

Microchip MPLAB XC8 Assembler V2.30 build 20200825195618 
                                                                                               Wed Jul 07 13:28:11 2021

Microchip MPLAB XC8 C Compiler v2.30 (Free license) build 20200825195618 Og1 
     1                           	processor	16F18446
     2                           	pagewidth 120
     3                           	opt	flic
     4                           	psect	idataCOMMON,global,class=CODE,delta=2,noexec
     5                           	psect	idataBANK1,global,class=CODE,delta=2,noexec
     6                           	psect	cinit,global,class=CODE,merge=1,delta=2
     7                           	psect	bssCOMMON,global,class=COMMON,space=1,delta=1,noexec
     8                           	psect	dataCOMMON,global,class=COMMON,space=1,delta=1,noexec
     9                           	psect	bssBANK0,global,class=BANK0,space=1,delta=1,noexec
    10                           	psect	bssBANK1,global,class=BANK1,space=1,delta=1,noexec
    11                           	psect	dataBANK1,global,class=BANK1,space=1,delta=1,noexec
    12                           	psect	bssBANK2,global,class=BANK2,space=1,delta=1,noexec
    13                           	psect	inittext,global,class=CODE,delta=2
    14                           	psect	clrtext,global,class=CODE,delta=2
    15                           	psect	cstackBANK3,global,class=BANK3,space=1,delta=1,noexec
    16                           	psect	cstackCOMMON,global,class=COMMON,space=1,delta=1,noexec
    17                           	psect	cstackBANK0,global,class=BANK0,space=1,delta=1,noexec
    18                           	psect	maintext,global,class=CODE,merge=1,split=1,delta=2
    19                           	psect	text1,local,class=CODE,merge=1,delta=2
    20                           	psect	text2,local,class=CODE,merge=1,delta=2
    21                           	psect	text3,local,class=CODE,merge=1,delta=2
    22                           	psect	text4,local,class=CODE,merge=1,delta=2
    23                           	psect	text5,local,class=CODE,merge=1,delta=2
    24                           	psect	text6,local,class=CODE,merge=1,delta=2
    25                           	psect	text7,local,class=CODE,merge=1,delta=2,group=1
    26                           	psect	text8,local,class=CODE,merge=1,delta=2,group=1
    27                           	psect	text9,local,class=CODE,merge=1,delta=2,group=1
    28                           	psect	text10,local,class=CODE,merge=1,delta=2
    29                           	psect	text11,local,class=CODE,merge=1,delta=2
    30                           	psect	text12,local,class=CODE,merge=1,delta=2
    31                           	psect	text13,local,class=CODE,merge=1,delta=2
    32                           	psect	text14,local,class=CODE,merge=1,delta=2
    33                           	psect	text15,local,class=CODE,merge=1,delta=2
    34                           	psect	text16,local,class=CODE,merge=1,delta=2
    35                           	psect	text17,local,class=CODE,merge=1,delta=2
    36                           	psect	text18,local,class=CODE,merge=1,delta=2
    37                           	psect	text19,local,class=CODE,merge=1,delta=2
    38                           	psect	text20,local,class=CODE,merge=1,delta=2
    39                           	psect	text21,local,class=CODE,merge=1,delta=2
    40                           	psect	text22,local,class=CODE,merge=1,delta=2
    41                           	psect	text23,local,class=CODE,merge=1,delta=2
    42                           	psect	text24,local,class=CODE,merge=1,delta=2
    43                           	psect	intentry,global,class=CODE,delta=2
    44                           	psect	text26,local,class=CODE,merge=1,delta=2
    45                           	psect	text27,local,class=CODE,merge=1,delta=2
    46                           	psect	text28,local,class=CODE,merge=1,delta=2
    47                           	psect	text29,local,class=CODE,merge=1,delta=2
    48                           	psect	text30,local,class=CODE,merge=1,delta=2
    49                           	psect	text31,local,class=CODE,merge=1,delta=2
    50                           	psect	text32,local,class=CODE,merge=1,delta=2
    51                           	psect	text33,local,class=CODE,merge=1,delta=2
    52                           	psect	text34,local,class=CODE,merge=1,delta=2
    53                           	psect	config,global,abs,ovrld,class=CONFIG,space=4,delta=2,noexec
    54                           	dabs	1,0x7E,2
    55  0000                     
    56                           ; Version 2.30
    57                           ; Generated 15/09/2020 GMT
    58                           ; 
    59                           ; Copyright © 2020, Microchip Technology Inc. and its subsidiaries ("Microchip")
    60                           ; All rights reserved.
    61                           ; 
    62                           ; This software is developed by Microchip Technology Inc. and its subsidiaries ("Microch
      +                          ip").
    63                           ; 
    64                           ; Redistribution and use in source and binary forms, with or without modification, are
    65                           ; permitted provided that the following conditions are met:
    66                           ; 
    67                           ;     1. Redistributions of source code must retain the above copyright notice, this lis
      +                          t of
    68                           ;        conditions and the following disclaimer.
    69                           ; 
    70                           ;     2. Redistributions in binary form must reproduce the above copyright notice, this 
      +                          list
    71                           ;        of conditions and the following disclaimer in the documentation and/or other
    72                           ;        materials provided with the distribution. Publication is not required when
    73                           ;        this file is used in an embedded application.
    74                           ; 
    75                           ;     3. Microchip's name may not be used to endorse or promote products derived from th
      +                          is
    76                           ;        software without specific prior written permission.
    77                           ; 
    78                           ; THIS SOFTWARE IS PROVIDED BY MICROCHIP "AS IS" AND ANY EXPRESS OR IMPLIED WARRANTIES,
    79                           ; INCLUDING, BUT NOT LIMITED TO, THE IMPLIED WARRANTIES OF MERCHANTABILITY AND FITNESS F
      +                          OR
    80                           ; PURPOSE ARE DISCLAIMED.  IN NO EVENT SHALL MICROCHIP BE LIABLE FOR ANY DIRECT, INDIREC
      +                          T,
    81                           ; INCIDENTAL, SPECIAL, EXEMPLARY, OR CONSEQUENTIAL DAMAGES (INCLUDING BUT NOT LIMITED TO
    82                           ; PROCUREMENT OF SUBSTITUTE GOODS OR SERVICES; LOSS OF USE, DATA OR PROFITS; OR BUSINESS
    83                           ; INTERRUPTION) HOWSOEVER CAUSED AND ON ANY THEORY OF LIABILITY, WHETHER IN CONTRACT, ST
      +                          RICT
    84                           ; LIABILITY, OR TORT (INCLUDING NEGLIGENCE OR OTHERWISE) ARISING IN ANY WAY OUT OF THE U
      +                          SE OF
    85                           ; THIS SOFTWARE, EVEN IF ADVISED OF THE POSSIBILITY OF SUCH DAMAGE.
    86                           ; 
    87                           ; 
    88                           ; Code-generator required, PIC16F18446 Definitions
    89                           ; 
    90                           ; SFR Addresses
    91  0000                     	;# 
    92  0001                     	;# 
    93  0002                     	;# 
    94  0003                     	;# 
    95  0004                     	;# 
    96  0005                     	;# 
    97  0006                     	;# 
    98  0007                     	;# 
    99  0008                     	;# 
   100  0009                     	;# 
   101  000A                     	;# 
   102  000B                     	;# 
   103  000C                     	;# 
   104  000D                     	;# 
   105  000E                     	;# 
   106  0012                     	;# 
   107  0013                     	;# 
   108  0014                     	;# 
   109  0018                     	;# 
   110  0019                     	;# 
   111  001A                     	;# 
   112  008C                     	;# 
   113  008C                     	;# 
   114  008D                     	;# 
   115  008E                     	;# 
   116  008E                     	;# 
   117  008F                     	;# 
   118  0090                     	;# 
   119  0090                     	;# 
   120  0091                     	;# 
   121  0092                     	;# 
   122  0092                     	;# 
   123  0093                     	;# 
   124  0094                     	;# 
   125  0094                     	;# 
   126  0095                     	;# 
   127  0096                     	;# 
   128  0096                     	;# 
   129  0097                     	;# 
   130  0098                     	;# 
   131  0099                     	;# 
   132  009A                     	;# 
   133  009B                     	;# 
   134  009B                     	;# 
   135  009C                     	;# 
   136  009D                     	;# 
   137  009D                     	;# 
   138  009E                     	;# 
   139  009F                     	;# 
   140  010C                     	;# 
   141  010C                     	;# 
   142  010D                     	;# 
   143  010E                     	;# 
   144  010F                     	;# 
   145  010F                     	;# 
   146  0110                     	;# 
   147  0111                     	;# 
   148  0112                     	;# 
   149  0113                     	;# 
   150  0114                     	;# 
   151  0115                     	;# 
   152  0116                     	;# 
   153  0117                     	;# 
   154  0118                     	;# 
   155  0119                     	;# 
   156  0119                     	;# 
   157  0119                     	;# 
   158  011A                     	;# 
   159  011A                     	;# 
   160  011A                     	;# 
   161  011B                     	;# 
   162  011B                     	;# 
   163  011B                     	;# 
   164  011B                     	;# 
   165  011B                     	;# 
   166  011C                     	;# 
   167  011C                     	;# 
   168  011C                     	;# 
   169  011D                     	;# 
   170  011D                     	;# 
   171  011D                     	;# 
   172  011E                     	;# 
   173  011E                     	;# 
   174  011E                     	;# 
   175  011F                     	;# 
   176  011F                     	;# 
   177  011F                     	;# 
   178  011F                     	;# 
   179  011F                     	;# 
   180  018C                     	;# 
   181  018D                     	;# 
   182  018E                     	;# 
   183  018F                     	;# 
   184  0190                     	;# 
   185  0191                     	;# 
   186  0192                     	;# 
   187  0196                     	;# 
   188  0197                     	;# 
   189  0198                     	;# 
   190  0199                     	;# 
   191  019A                     	;# 
   192  019B                     	;# 
   193  019C                     	;# 
   194  020C                     	;# 
   195  020D                     	;# 
   196  020E                     	;# 
   197  020E                     	;# 
   198  020F                     	;# 
   199  020F                     	;# 
   200  0210                     	;# 
   201  0210                     	;# 
   202  0211                     	;# 
   203  0211                     	;# 
   204  0212                     	;# 
   205  0213                     	;# 
   206  0214                     	;# 
   207  0214                     	;# 
   208  0215                     	;# 
   209  0215                     	;# 
   210  0216                     	;# 
   211  0216                     	;# 
   212  0217                     	;# 
   213  0217                     	;# 
   214  0218                     	;# 
   215  0219                     	;# 
   216  021A                     	;# 
   217  021A                     	;# 
   218  021B                     	;# 
   219  021B                     	;# 
   220  021C                     	;# 
   221  021C                     	;# 
   222  021D                     	;# 
   223  021D                     	;# 
   224  021E                     	;# 
   225  021F                     	;# 
   226  028C                     	;# 
   227  028C                     	;# 
   228  028D                     	;# 
   229  028D                     	;# 
   230  028E                     	;# 
   231  028F                     	;# 
   232  0290                     	;# 
   233  0291                     	;# 
   234  0292                     	;# 
   235  0292                     	;# 
   236  0293                     	;# 
   237  0293                     	;# 
   238  0294                     	;# 
   239  0295                     	;# 
   240  0296                     	;# 
   241  0297                     	;# 
   242  0298                     	;# 
   243  0298                     	;# 
   244  0299                     	;# 
   245  0299                     	;# 
   246  029A                     	;# 
   247  029B                     	;# 
   248  029C                     	;# 
   249  029D                     	;# 
   250  029F                     	;# 
   251  030C                     	;# 
   252  030C                     	;# 
   253  030D                     	;# 
   254  030E                     	;# 
   255  030F                     	;# 
   256  0310                     	;# 
   257  0310                     	;# 
   258  0311                     	;# 
   259  0312                     	;# 
   260  0313                     	;# 
   261  0314                     	;# 
   262  0314                     	;# 
   263  0315                     	;# 
   264  0316                     	;# 
   265  0317                     	;# 
   266  0318                     	;# 
   267  0318                     	;# 
   268  0319                     	;# 
   269  031A                     	;# 
   270  031B                     	;# 
   271  038C                     	;# 
   272  038C                     	;# 
   273  038D                     	;# 
   274  038E                     	;# 
   275  0390                     	;# 
   276  0390                     	;# 
   277  0391                     	;# 
   278  0392                     	;# 
   279  048C                     	;# 
   280  048C                     	;# 
   281  048D                     	;# 
   282  048E                     	;# 
   283  048F                     	;# 
   284  048F                     	;# 
   285  0490                     	;# 
   286  0491                     	;# 
   287  0492                     	;# 
   288  0492                     	;# 
   289  0493                     	;# 
   290  0494                     	;# 
   291  0495                     	;# 
   292  0495                     	;# 
   293  0496                     	;# 
   294  0497                     	;# 
   295  0498                     	;# 
   296  0499                     	;# 
   297  049A                     	;# 
   298  049B                     	;# 
   299  049C                     	;# 
   300  049D                     	;# 
   301  058C                     	;# 
   302  058C                     	;# 
   303  058D                     	;# 
   304  058E                     	;# 
   305  058F                     	;# 
   306  058F                     	;# 
   307  0590                     	;# 
   308  0591                     	;# 
   309  0592                     	;# 
   310  0593                     	;# 
   311  059C                     	;# 
   312  059C                     	;# 
   313  059D                     	;# 
   314  059D                     	;# 
   315  059E                     	;# 
   316  059F                     	;# 
   317  060C                     	;# 
   318  060C                     	;# 
   319  060D                     	;# 
   320  060D                     	;# 
   321  060E                     	;# 
   322  060F                     	;# 
   323  0610                     	;# 
   324  0611                     	;# 
   325  0612                     	;# 
   326  0613                     	;# 
   327  0614                     	;# 
   328  0616                     	;# 
   329  0616                     	;# 
   330  0617                     	;# 
   331  0617                     	;# 
   332  0618                     	;# 
   333  0619                     	;# 
   334  061A                     	;# 
   335  061B                     	;# 
   336  061C                     	;# 
   337  061D                     	;# 
   338  061E                     	;# 
   339  070C                     	;# 
   340  070D                     	;# 
   341  070E                     	;# 
   342  070F                     	;# 
   343  0710                     	;# 
   344  0711                     	;# 
   345  0712                     	;# 
   346  0713                     	;# 
   347  0714                     	;# 
   348  0716                     	;# 
   349  0717                     	;# 
   350  0718                     	;# 
   351  0719                     	;# 
   352  071A                     	;# 
   353  071B                     	;# 
   354  071C                     	;# 
   355  071D                     	;# 
   356  071E                     	;# 
   357  0796                     	;# 
   358  0797                     	;# 
   359  0798                     	;# 
   360  0799                     	;# 
   361  079A                     	;# 
   362  079B                     	;# 
   363  079C                     	;# 
   364  079D                     	;# 
   365  080C                     	;# 
   366  080D                     	;# 
   367  080E                     	;# 
   368  080F                     	;# 
   369  0810                     	;# 
   370  0811                     	;# 
   371  0812                     	;# 
   372  0813                     	;# 
   373  0814                     	;# 
   374  081A                     	;# 
   375  081A                     	;# 
   376  081B                     	;# 
   377  081C                     	;# 
   378  081C                     	;# 
   379  081D                     	;# 
   380  081E                     	;# 
   381  081F                     	;# 
   382  088C                     	;# 
   383  088D                     	;# 
   384  088E                     	;# 
   385  088F                     	;# 
   386  0890                     	;# 
   387  0891                     	;# 
   388  0892                     	;# 
   389  0893                     	;# 
   390  0895                     	;# 
   391  0896                     	;# 
   392  0897                     	;# 
   393  0898                     	;# 
   394  0899                     	;# 
   395  089A                     	;# 
   396  089B                     	;# 
   397  090C                     	;# 
   398  090E                     	;# 
   399  090F                     	;# 
   400  091F                     	;# 
   401  098F                     	;# 
   402  098F                     	;# 
   403  0990                     	;# 
   404  0991                     	;# 
   405  0992                     	;# 
   406  0993                     	;# 
   407  0994                     	;# 
   408  0995                     	;# 
   409  0996                     	;# 
   410  0997                     	;# 
   411  1E0F                     	;# 
   412  1E10                     	;# 
   413  1E11                     	;# 
   414  1E12                     	;# 
   415  1E13                     	;# 
   416  1E14                     	;# 
   417  1E15                     	;# 
   418  1E16                     	;# 
   419  1E17                     	;# 
   420  1E18                     	;# 
   421  1E19                     	;# 
   422  1E1A                     	;# 
   423  1E1B                     	;# 
   424  1E1C                     	;# 
   425  1E1D                     	;# 
   426  1E1E                     	;# 
   427  1E1F                     	;# 
   428  1E20                     	;# 
   429  1E21                     	;# 
   430  1E22                     	;# 
   431  1E23                     	;# 
   432  1E24                     	;# 
   433  1E25                     	;# 
   434  1E26                     	;# 
   435  1E27                     	;# 
   436  1E28                     	;# 
   437  1E29                     	;# 
   438  1E2A                     	;# 
   439  1E2B                     	;# 
   440  1E2C                     	;# 
   441  1E2D                     	;# 
   442  1E2E                     	;# 
   443  1E2F                     	;# 
   444  1E30                     	;# 
   445  1E31                     	;# 
   446  1E32                     	;# 
   447  1E33                     	;# 
   448  1E34                     	;# 
   449  1E35                     	;# 
   450  1E36                     	;# 
   451  1E37                     	;# 
   452  1E8F                     	;# 
   453  1E90                     	;# 
   454  1E91                     	;# 
   455  1E92                     	;# 
   456  1E93                     	;# 
   457  1E94                     	;# 
   458  1E95                     	;# 
   459  1E96                     	;# 
   460  1E97                     	;# 
   461  1E9C                     	;# 
   462  1E9D                     	;# 
   463  1E9E                     	;# 
   464  1EA1                     	;# 
   465  1EA2                     	;# 
   466  1EA3                     	;# 
   467  1EA4                     	;# 
   468  1EA9                     	;# 
   469  1EAA                     	;# 
   470  1EB1                     	;# 
   471  1EB2                     	;# 
   472  1EB8                     	;# 
   473  1EB9                     	;# 
   474  1EBA                     	;# 
   475  1EBB                     	;# 
   476  1EBC                     	;# 
   477  1EBD                     	;# 
   478  1EBE                     	;# 
   479  1EC3                     	;# 
   480  1EC5                     	;# 
   481  1EC6                     	;# 
   482  1EC7                     	;# 
   483  1EC8                     	;# 
   484  1EC9                     	;# 
   485  1ECA                     	;# 
   486  1ECB                     	;# 
   487  1ECB                     	;# 
   488  1ECB                     	;# 
   489  1ECC                     	;# 
   490  1ECC                     	;# 
   491  1ECC                     	;# 
   492  1F10                     	;# 
   493  1F11                     	;# 
   494  1F12                     	;# 
   495  1F14                     	;# 
   496  1F15                     	;# 
   497  1F1C                     	;# 
   498  1F1D                     	;# 
   499  1F1E                     	;# 
   500  1F1F                     	;# 
   501  1F20                     	;# 
   502  1F21                     	;# 
   503  1F22                     	;# 
   504  1F23                     	;# 
   505  1F24                     	;# 
   506  1F25                     	;# 
   507  1F26                     	;# 
   508  1F27                     	;# 
   509  1F38                     	;# 
   510  1F39                     	;# 
   511  1F3A                     	;# 
   512  1F3B                     	;# 
   513  1F3C                     	;# 
   514  1F3D                     	;# 
   515  1F3E                     	;# 
   516  1F3F                     	;# 
   517  1F43                     	;# 
   518  1F44                     	;# 
   519  1F45                     	;# 
   520  1F46                     	;# 
   521  1F47                     	;# 
   522  1F48                     	;# 
   523  1F49                     	;# 
   524  1F4A                     	;# 
   525  1F4E                     	;# 
   526  1F4F                     	;# 
   527  1F50                     	;# 
   528  1F51                     	;# 
   529  1F52                     	;# 
   530  1F53                     	;# 
   531  1F54                     	;# 
   532  1F55                     	;# 
   533  1FE4                     	;# 
   534  1FE5                     	;# 
   535  1FE6                     	;# 
   536  1FE7                     	;# 
   537  1FE8                     	;# 
   538  1FE8                     	;# 
   539  1FE9                     	;# 
   540  1FEA                     	;# 
   541  1FEB                     	;# 
   542  1FED                     	;# 
   543  1FEE                     	;# 
   544  1FEF                     	;# 
   545  0000                     	;# 
   546  0001                     	;# 
   547  0002                     	;# 
   548  0003                     	;# 
   549  0004                     	;# 
   550  0005                     	;# 
   551  0006                     	;# 
   552  0007                     	;# 
   553  0008                     	;# 
   554  0009                     	;# 
   555  000A                     	;# 
   556  000B                     	;# 
   557  000C                     	;# 
   558  000D                     	;# 
   559  000E                     	;# 
   560  0012                     	;# 
   561  0013                     	;# 
   562  0014                     	;# 
   563  0018                     	;# 
   564  0019                     	;# 
   565  001A                     	;# 
   566  008C                     	;# 
   567  008C                     	;# 
   568  008D                     	;# 
   569  008E                     	;# 
   570  008E                     	;# 
   571  008F                     	;# 
   572  0090                     	;# 
   573  0090                     	;# 
   574  0091                     	;# 
   575  0092                     	;# 
   576  0092                     	;# 
   577  0093                     	;# 
   578  0094                     	;# 
   579  0094                     	;# 
   580  0095                     	;# 
   581  0096                     	;# 
   582  0096                     	;# 
   583  0097                     	;# 
   584  0098                     	;# 
   585  0099                     	;# 
   586  009A                     	;# 
   587  009B                     	;# 
   588  009B                     	;# 
   589  009C                     	;# 
   590  009D                     	;# 
   591  009D                     	;# 
   592  009E                     	;# 
   593  009F                     	;# 
   594  010C                     	;# 
   595  010C                     	;# 
   596  010D                     	;# 
   597  010E                     	;# 
   598  010F                     	;# 
   599  010F                     	;# 
   600  0110                     	;# 
   601  0111                     	;# 
   602  0112                     	;# 
   603  0113                     	;# 
   604  0114                     	;# 
   605  0115                     	;# 
   606  0116                     	;# 
   607  0117                     	;# 
   608  0118                     	;# 
   609  0119                     	;# 
   610  0119                     	;# 
   611  0119                     	;# 
   612  011A                     	;# 
   613  011A                     	;# 
   614  011A                     	;# 
   615  011B                     	;# 
   616  011B                     	;# 
   617  011B                     	;# 
   618  011B                     	;# 
   619  011B                     	;# 
   620  011C                     	;# 
   621  011C                     	;# 
   622  011C                     	;# 
   623  011D                     	;# 
   624  011D                     	;# 
   625  011D                     	;# 
   626  011E                     	;# 
   627  011E                     	;# 
   628  011E                     	;# 
   629  011F                     	;# 
   630  011F                     	;# 
   631  011F                     	;# 
   632  011F                     	;# 
   633  011F                     	;# 
   634  018C                     	;# 
   635  018D                     	;# 
   636  018E                     	;# 
   637  018F                     	;# 
   638  0190                     	;# 
   639  0191                     	;# 
   640  0192                     	;# 
   641  0196                     	;# 
   642  0197                     	;# 
   643  0198                     	;# 
   644  0199                     	;# 
   645  019A                     	;# 
   646  019B                     	;# 
   647  019C                     	;# 
   648  020C                     	;# 
   649  020D                     	;# 
   650  020E                     	;# 
   651  020E                     	;# 
   652  020F                     	;# 
   653  020F                     	;# 
   654  0210                     	;# 
   655  0210                     	;# 
   656  0211                     	;# 
   657  0211                     	;# 
   658  0212                     	;# 
   659  0213                     	;# 
   660  0214                     	;# 
   661  0214                     	;# 
   662  0215                     	;# 
   663  0215                     	;# 
   664  0216                     	;# 
   665  0216                     	;# 
   666  0217                     	;# 
   667  0217                     	;# 
   668  0218                     	;# 
   669  0219                     	;# 
   670  021A                     	;# 
   671  021A                     	;# 
   672  021B                     	;# 
   673  021B                     	;# 
   674  021C                     	;# 
   675  021C                     	;# 
   676  021D                     	;# 
   677  021D                     	;# 
   678  021E                     	;# 
   679  021F                     	;# 
   680  028C                     	;# 
   681  028C                     	;# 
   682  028D                     	;# 
   683  028D                     	;# 
   684  028E                     	;# 
   685  028F                     	;# 
   686  0290                     	;# 
   687  0291                     	;# 
   688  0292                     	;# 
   689  0292                     	;# 
   690  0293                     	;# 
   691  0293                     	;# 
   692  0294                     	;# 
   693  0295                     	;# 
   694  0296                     	;# 
   695  0297                     	;# 
   696  0298                     	;# 
   697  0298                     	;# 
   698  0299                     	;# 
   699  0299                     	;# 
   700  029A                     	;# 
   701  029B                     	;# 
   702  029C                     	;# 
   703  029D                     	;# 
   704  029F                     	;# 
   705  030C                     	;# 
   706  030C                     	;# 
   707  030D                     	;# 
   708  030E                     	;# 
   709  030F                     	;# 
   710  0310                     	;# 
   711  0310                     	;# 
   712  0311                     	;# 
   713  0312                     	;# 
   714  0313                     	;# 
   715  0314                     	;# 
   716  0314                     	;# 
   717  0315                     	;# 
   718  0316                     	;# 
   719  0317                     	;# 
   720  0318                     	;# 
   721  0318                     	;# 
   722  0319                     	;# 
   723  031A                     	;# 
   724  031B                     	;# 
   725  038C                     	;# 
   726  038C                     	;# 
   727  038D                     	;# 
   728  038E                     	;# 
   729  0390                     	;# 
   730  0390                     	;# 
   731  0391                     	;# 
   732  0392                     	;# 
   733  048C                     	;# 
   734  048C                     	;# 
   735  048D                     	;# 
   736  048E                     	;# 
   737  048F                     	;# 
   738  048F                     	;# 
   739  0490                     	;# 
   740  0491                     	;# 
   741  0492                     	;# 
   742  0492                     	;# 
   743  0493                     	;# 
   744  0494                     	;# 
   745  0495                     	;# 
   746  0495                     	;# 
   747  0496                     	;# 
   748  0497                     	;# 
   749  0498                     	;# 
   750  0499                     	;# 
   751  049A                     	;# 
   752  049B                     	;# 
   753  049C                     	;# 
   754  049D                     	;# 
   755  058C                     	;# 
   756  058C                     	;# 
   757  058D                     	;# 
   758  058E                     	;# 
   759  058F                     	;# 
   760  058F                     	;# 
   761  0590                     	;# 
   762  0591                     	;# 
   763  0592                     	;# 
   764  0593                     	;# 
   765  059C                     	;# 
   766  059C                     	;# 
   767  059D                     	;# 
   768  059D                     	;# 
   769  059E                     	;# 
   770  059F                     	;# 
   771  060C                     	;# 
   772  060C                     	;# 
   773  060D                     	;# 
   774  060D                     	;# 
   775  060E                     	;# 
   776  060F                     	;# 
   777  0610                     	;# 
   778  0611                     	;# 
   779  0612                     	;# 
   780  0613                     	;# 
   781  0614                     	;# 
   782  0616                     	;# 
   783  0616                     	;# 
   784  0617                     	;# 
   785  0617                     	;# 
   786  0618                     	;# 
   787  0619                     	;# 
   788  061A                     	;# 
   789  061B                     	;# 
   790  061C                     	;# 
   791  061D                     	;# 
   792  061E                     	;# 
   793  070C                     	;# 
   794  070D                     	;# 
   795  070E                     	;# 
   796  070F                     	;# 
   797  0710                     	;# 
   798  0711                     	;# 
   799  0712                     	;# 
   800  0713                     	;# 
   801  0714                     	;# 
   802  0716                     	;# 
   803  0717                     	;# 
   804  0718                     	;# 
   805  0719                     	;# 
   806  071A                     	;# 
   807  071B                     	;# 
   808  071C                     	;# 
   809  071D                     	;# 
   810  071E                     	;# 
   811  0796                     	;# 
   812  0797                     	;# 
   813  0798                     	;# 
   814  0799                     	;# 
   815  079A                     	;# 
   816  079B                     	;# 
   817  079C                     	;# 
   818  079D                     	;# 
   819  080C                     	;# 
   820  080D                     	;# 
   821  080E                     	;# 
   822  080F                     	;# 
   823  0810                     	;# 
   824  0811                     	;# 
   825  0812                     	;# 
   826  0813                     	;# 
   827  0814                     	;# 
   828  081A                     	;# 
   829  081A                     	;# 
   830  081B                     	;# 
   831  081C                     	;# 
   832  081C                     	;# 
   833  081D                     	;# 
   834  081E                     	;# 
   835  081F                     	;# 
   836  088C                     	;# 
   837  088D                     	;# 
   838  088E                     	;# 
   839  088F                     	;# 
   840  0890                     	;# 
   841  0891                     	;# 
   842  0892                     	;# 
   843  0893                     	;# 
   844  0895                     	;# 
   845  0896                     	;# 
   846  0897                     	;# 
   847  0898                     	;# 
   848  0899                     	;# 
   849  089A                     	;# 
   850  089B                     	;# 
   851  090C                     	;# 
   852  090E                     	;# 
   853  090F                     	;# 
   854  091F                     	;# 
   855  098F                     	;# 
   856  098F                     	;# 
   857  0990                     	;# 
   858  0991                     	;# 
   859  0992                     	;# 
   860  0993                     	;# 
   861  0994                     	;# 
   862  0995                     	;# 
   863  0996                     	;# 
   864  0997                     	;# 
   865  1E0F                     	;# 
   866  1E10                     	;# 
   867  1E11                     	;# 
   868  1E12                     	;# 
   869  1E13                     	;# 
   870  1E14                     	;# 
   871  1E15                     	;# 
   872  1E16                     	;# 
   873  1E17                     	;# 
   874  1E18                     	;# 
   875  1E19                     	;# 
   876  1E1A                     	;# 
   877  1E1B                     	;# 
   878  1E1C                     	;# 
   879  1E1D                     	;# 
   880  1E1E                     	;# 
   881  1E1F                     	;# 
   882  1E20                     	;# 
   883  1E21                     	;# 
   884  1E22                     	;# 
   885  1E23                     	;# 
   886  1E24                     	;# 
   887  1E25                     	;# 
   888  1E26                     	;# 
   889  1E27                     	;# 
   890  1E28                     	;# 
   891  1E29                     	;# 
   892  1E2A                     	;# 
   893  1E2B                     	;# 
   894  1E2C                     	;# 
   895  1E2D                     	;# 
   896  1E2E                     	;# 
   897  1E2F                     	;# 
   898  1E30                     	;# 
   899  1E31                     	;# 
   900  1E32                     	;# 
   901  1E33                     	;# 
   902  1E34                     	;# 
   903  1E35                     	;# 
   904  1E36                     	;# 
   905  1E37                     	;# 
   906  1E8F                     	;# 
   907  1E90                     	;# 
   908  1E91                     	;# 
   909  1E92                     	;# 
   910  1E93                     	;# 
   911  1E94                     	;# 
   912  1E95                     	;# 
   913  1E96                     	;# 
   914  1E97                     	;# 
   915  1E9C                     	;# 
   916  1E9D                     	;# 
   917  1E9E                     	;# 
   918  1EA1                     	;# 
   919  1EA2                     	;# 
   920  1EA3                     	;# 
   921  1EA4                     	;# 
   922  1EA9                     	;# 
   923  1EAA                     	;# 
   924  1EB1                     	;# 
   925  1EB2                     	;# 
   926  1EB8                     	;# 
   927  1EB9                     	;# 
   928  1EBA                     	;# 
   929  1EBB                     	;# 
   930  1EBC                     	;# 
   931  1EBD                     	;# 
   932  1EBE                     	;# 
   933  1EC3                     	;# 
   934  1EC5                     	;# 
   935  1EC6                     	;# 
   936  1EC7                     	;# 
   937  1EC8                     	;# 
   938  1EC9                     	;# 
   939  1ECA                     	;# 
   940  1ECB                     	;# 
   941  1ECB                     	;# 
   942  1ECB                     	;# 
   943  1ECC                     	;# 
   944  1ECC                     	;# 
   945  1ECC                     	;# 
   946  1F10                     	;# 
   947  1F11                     	;# 
   948  1F12                     	;# 
   949  1F14                     	;# 
   950  1F15                     	;# 
   951  1F1C                     	;# 
   952  1F1D                     	;# 
   953  1F1E                     	;# 
   954  1F1F                     	;# 
   955  1F20                     	;# 
   956  1F21                     	;# 
   957  1F22                     	;# 
   958  1F23                     	;# 
   959  1F24                     	;# 
   960  1F25                     	;# 
   961  1F26                     	;# 
   962  1F27                     	;# 
   963  1F38                     	;# 
   964  1F39                     	;# 
   965  1F3A                     	;# 
   966  1F3B                     	;# 
   967  1F3C                     	;# 
   968  1F3D                     	;# 
   969  1F3E                     	;# 
   970  1F3F                     	;# 
   971  1F43                     	;# 
   972  1F44                     	;# 
   973  1F45                     	;# 
   974  1F46                     	;# 
   975  1F47                     	;# 
   976  1F48                     	;# 
   977  1F49                     	;# 
   978  1F4A                     	;# 
   979  1F4E                     	;# 
   980  1F4F                     	;# 
   981  1F50                     	;# 
   982  1F51                     	;# 
   983  1F52                     	;# 
   984  1F53                     	;# 
   985  1F54                     	;# 
   986  1F55                     	;# 
   987  1FE4                     	;# 
   988  1FE5                     	;# 
   989  1FE6                     	;# 
   990  1FE7                     	;# 
   991  1FE8                     	;# 
   992  1FE8                     	;# 
   993  1FE9                     	;# 
   994  1FEA                     	;# 
   995  1FEB                     	;# 
   996  1FED                     	;# 
   997  1FEE                     	;# 
   998  1FEF                     	;# 
   999  0000                     	;# 
  1000  0001                     	;# 
  1001  0002                     	;# 
  1002  0003                     	;# 
  1003  0004                     	;# 
  1004  0005                     	;# 
  1005  0006                     	;# 
  1006  0007                     	;# 
  1007  0008                     	;# 
  1008  0009                     	;# 
  1009  000A                     	;# 
  1010  000B                     	;# 
  1011  000C                     	;# 
  1012  000D                     	;# 
  1013  000E                     	;# 
  1014  0012                     	;# 
  1015  0013                     	;# 
  1016  0014                     	;# 
  1017  0018                     	;# 
  1018  0019                     	;# 
  1019  001A                     	;# 
  1020  008C                     	;# 
  1021  008C                     	;# 
  1022  008D                     	;# 
  1023  008E                     	;# 
  1024  008E                     	;# 
  1025  008F                     	;# 
  1026  0090                     	;# 
  1027  0090                     	;# 
  1028  0091                     	;# 
  1029  0092                     	;# 
  1030  0092                     	;# 
  1031  0093                     	;# 
  1032  0094                     	;# 
  1033  0094                     	;# 
  1034  0095                     	;# 
  1035  0096                     	;# 
  1036  0096                     	;# 
  1037  0097                     	;# 
  1038  0098                     	;# 
  1039  0099                     	;# 
  1040  009A                     	;# 
  1041  009B                     	;# 
  1042  009B                     	;# 
  1043  009C                     	;# 
  1044  009D                     	;# 
  1045  009D                     	;# 
  1046  009E                     	;# 
  1047  009F                     	;# 
  1048  010C                     	;# 
  1049  010C                     	;# 
  1050  010D                     	;# 
  1051  010E                     	;# 
  1052  010F                     	;# 
  1053  010F                     	;# 
  1054  0110                     	;# 
  1055  0111                     	;# 
  1056  0112                     	;# 
  1057  0113                     	;# 
  1058  0114                     	;# 
  1059  0115                     	;# 
  1060  0116                     	;# 
  1061  0117                     	;# 
  1062  0118                     	;# 
  1063  0119                     	;# 
  1064  0119                     	;# 
  1065  0119                     	;# 
  1066  011A                     	;# 
  1067  011A                     	;# 
  1068  011A                     	;# 
  1069  011B                     	;# 
  1070  011B                     	;# 
  1071  011B                     	;# 
  1072  011B                     	;# 
  1073  011B                     	;# 
  1074  011C                     	;# 
  1075  011C                     	;# 
  1076  011C                     	;# 
  1077  011D                     	;# 
  1078  011D                     	;# 
  1079  011D                     	;# 
  1080  011E                     	;# 
  1081  011E                     	;# 
  1082  011E                     	;# 
  1083  011F                     	;# 
  1084  011F                     	;# 
  1085  011F                     	;# 
  1086  011F                     	;# 
  1087  011F                     	;# 
  1088  018C                     	;# 
  1089  018D                     	;# 
  1090  018E                     	;# 
  1091  018F                     	;# 
  1092  0190                     	;# 
  1093  0191                     	;# 
  1094  0192                     	;# 
  1095  0196                     	;# 
  1096  0197                     	;# 
  1097  0198                     	;# 
  1098  0199                     	;# 
  1099  019A                     	;# 
  1100  019B                     	;# 
  1101  019C                     	;# 
  1102  020C                     	;# 
  1103  020D                     	;# 
  1104  020E                     	;# 
  1105  020E                     	;# 
  1106  020F                     	;# 
  1107  020F                     	;# 
  1108  0210                     	;# 
  1109  0210                     	;# 
  1110  0211                     	;# 
  1111  0211                     	;# 
  1112  0212                     	;# 
  1113  0213                     	;# 
  1114  0214                     	;# 
  1115  0214                     	;# 
  1116  0215                     	;# 
  1117  0215                     	;# 
  1118  0216                     	;# 
  1119  0216                     	;# 
  1120  0217                     	;# 
  1121  0217                     	;# 
  1122  0218                     	;# 
  1123  0219                     	;# 
  1124  021A                     	;# 
  1125  021A                     	;# 
  1126  021B                     	;# 
  1127  021B                     	;# 
  1128  021C                     	;# 
  1129  021C                     	;# 
  1130  021D                     	;# 
  1131  021D                     	;# 
  1132  021E                     	;# 
  1133  021F                     	;# 
  1134  028C                     	;# 
  1135  028C                     	;# 
  1136  028D                     	;# 
  1137  028D                     	;# 
  1138  028E                     	;# 
  1139  028F                     	;# 
  1140  0290                     	;# 
  1141  0291                     	;# 
  1142  0292                     	;# 
  1143  0292                     	;# 
  1144  0293                     	;# 
  1145  0293                     	;# 
  1146  0294                     	;# 
  1147  0295                     	;# 
  1148  0296                     	;# 
  1149  0297                     	;# 
  1150  0298                     	;# 
  1151  0298                     	;# 
  1152  0299                     	;# 
  1153  0299                     	;# 
  1154  029A                     	;# 
  1155  029B                     	;# 
  1156  029C                     	;# 
  1157  029D                     	;# 
  1158  029F                     	;# 
  1159  030C                     	;# 
  1160  030C                     	;# 
  1161  030D                     	;# 
  1162  030E                     	;# 
  1163  030F                     	;# 
  1164  0310                     	;# 
  1165  0310                     	;# 
  1166  0311                     	;# 
  1167  0312                     	;# 
  1168  0313                     	;# 
  1169  0314                     	;# 
  1170  0314                     	;# 
  1171  0315                     	;# 
  1172  0316                     	;# 
  1173  0317                     	;# 
  1174  0318                     	;# 
  1175  0318                     	;# 
  1176  0319                     	;# 
  1177  031A                     	;# 
  1178  031B                     	;# 
  1179  038C                     	;# 
  1180  038C                     	;# 
  1181  038D                     	;# 
  1182  038E                     	;# 
  1183  0390                     	;# 
  1184  0390                     	;# 
  1185  0391                     	;# 
  1186  0392                     	;# 
  1187  048C                     	;# 
  1188  048C                     	;# 
  1189  048D                     	;# 
  1190  048E                     	;# 
  1191  048F                     	;# 
  1192  048F                     	;# 
  1193  0490                     	;# 
  1194  0491                     	;# 
  1195  0492                     	;# 
  1196  0492                     	;# 
  1197  0493                     	;# 
  1198  0494                     	;# 
  1199  0495                     	;# 
  1200  0495                     	;# 
  1201  0496                     	;# 
  1202  0497                     	;# 
  1203  0498                     	;# 
  1204  0499                     	;# 
  1205  049A                     	;# 
  1206  049B                     	;# 
  1207  049C                     	;# 
  1208  049D                     	;# 
  1209  058C                     	;# 
  1210  058C                     	;# 
  1211  058D                     	;# 
  1212  058E                     	;# 
  1213  058F                     	;# 
  1214  058F                     	;# 
  1215  0590                     	;# 
  1216  0591                     	;# 
  1217  0592                     	;# 
  1218  0593                     	;# 
  1219  059C                     	;# 
  1220  059C                     	;# 
  1221  059D                     	;# 
  1222  059D                     	;# 
  1223  059E                     	;# 
  1224  059F                     	;# 
  1225  060C                     	;# 
  1226  060C                     	;# 
  1227  060D                     	;# 
  1228  060D                     	;# 
  1229  060E                     	;# 
  1230  060F                     	;# 
  1231  0610                     	;# 
  1232  0611                     	;# 
  1233  0612                     	;# 
  1234  0613                     	;# 
  1235  0614                     	;# 
  1236  0616                     	;# 
  1237  0616                     	;# 
  1238  0617                     	;# 
  1239  0617                     	;# 
  1240  0618                     	;# 
  1241  0619                     	;# 
  1242  061A                     	;# 
  1243  061B                     	;# 
  1244  061C                     	;# 
  1245  061D                     	;# 
  1246  061E                     	;# 
  1247  070C                     	;# 
  1248  070D                     	;# 
  1249  070E                     	;# 
  1250  070F                     	;# 
  1251  0710                     	;# 
  1252  0711                     	;# 
  1253  0712                     	;# 
  1254  0713                     	;# 
  1255  0714                     	;# 
  1256  0716                     	;# 
  1257  0717                     	;# 
  1258  0718                     	;# 
  1259  0719                     	;# 
  1260  071A                     	;# 
  1261  071B                     	;# 
  1262  071C                     	;# 
  1263  071D                     	;# 
  1264  071E                     	;# 
  1265  0796                     	;# 
  1266  0797                     	;# 
  1267  0798                     	;# 
  1268  0799                     	;# 
  1269  079A                     	;# 
  1270  079B                     	;# 
  1271  079C                     	;# 
  1272  079D                     	;# 
  1273  080C                     	;# 
  1274  080D                     	;# 
  1275  080E                     	;# 
  1276  080F                     	;# 
  1277  0810                     	;# 
  1278  0811                     	;# 
  1279  0812                     	;# 
  1280  0813                     	;# 
  1281  0814                     	;# 
  1282  081A                     	;# 
  1283  081A                     	;# 
  1284  081B                     	;# 
  1285  081C                     	;# 
  1286  081C                     	;# 
  1287  081D                     	;# 
  1288  081E                     	;# 
  1289  081F                     	;# 
  1290  088C                     	;# 
  1291  088D                     	;# 
  1292  088E                     	;# 
  1293  088F                     	;# 
  1294  0890                     	;# 
  1295  0891                     	;# 
  1296  0892                     	;# 
  1297  0893                     	;# 
  1298  0895                     	;# 
  1299  0896                     	;# 
  1300  0897                     	;# 
  1301  0898                     	;# 
  1302  0899                     	;# 
  1303  089A                     	;# 
  1304  089B                     	;# 
  1305  090C                     	;# 
  1306  090E                     	;# 
  1307  090F                     	;# 
  1308  091F                     	;# 
  1309  098F                     	;# 
  1310  098F                     	;# 
  1311  0990                     	;# 
  1312  0991                     	;# 
  1313  0992                     	;# 
  1314  0993                     	;# 
  1315  0994                     	;# 
  1316  0995                     	;# 
  1317  0996                     	;# 
  1318  0997                     	;# 
  1319  1E0F                     	;# 
  1320  1E10                     	;# 
  1321  1E11                     	;# 
  1322  1E12                     	;# 
  1323  1E13                     	;# 
  1324  1E14                     	;# 
  1325  1E15                     	;# 
  1326  1E16                     	;# 
  1327  1E17                     	;# 
  1328  1E18                     	;# 
  1329  1E19                     	;# 
  1330  1E1A                     	;# 
  1331  1E1B                     	;# 
  1332  1E1C                     	;# 
  1333  1E1D                     	;# 
  1334  1E1E                     	;# 
  1335  1E1F                     	;# 
  1336  1E20                     	;# 
  1337  1E21                     	;# 
  1338  1E22                     	;# 
  1339  1E23                     	;# 
  1340  1E24                     	;# 
  1341  1E25                     	;# 
  1342  1E26                     	;# 
  1343  1E27                     	;# 
  1344  1E28                     	;# 
  1345  1E29                     	;# 
  1346  1E2A                     	;# 
  1347  1E2B                     	;# 
  1348  1E2C                     	;# 
  1349  1E2D                     	;# 
  1350  1E2E                     	;# 
  1351  1E2F                     	;# 
  1352  1E30                     	;# 
  1353  1E31                     	;# 
  1354  1E32                     	;# 
  1355  1E33                     	;# 
  1356  1E34                     	;# 
  1357  1E35                     	;# 
  1358  1E36                     	;# 
  1359  1E37                     	;# 
  1360  1E8F                     	;# 
  1361  1E90                     	;# 
  1362  1E91                     	;# 
  1363  1E92                     	;# 
  1364  1E93                     	;# 
  1365  1E94                     	;# 
  1366  1E95                     	;# 
  1367  1E96                     	;# 
  1368  1E97                     	;# 
  1369  1E9C                     	;# 
  1370  1E9D                     	;# 
  1371  1E9E                     	;# 
  1372  1EA1                     	;# 
  1373  1EA2                     	;# 
  1374  1EA3                     	;# 
  1375  1EA4                     	;# 
  1376  1EA9                     	;# 
  1377  1EAA                     	;# 
  1378  1EB1                     	;# 
  1379  1EB2                     	;# 
  1380  1EB8                     	;# 
  1381  1EB9                     	;# 
  1382  1EBA                     	;# 
  1383  1EBB                     	;# 
  1384  1EBC                     	;# 
  1385  1EBD                     	;# 
  1386  1EBE                     	;# 
  1387  1EC3                     	;# 
  1388  1EC5                     	;# 
  1389  1EC6                     	;# 
  1390  1EC7                     	;# 
  1391  1EC8                     	;# 
  1392  1EC9                     	;# 
  1393  1ECA                     	;# 
  1394  1ECB                     	;# 
  1395  1ECB                     	;# 
  1396  1ECB                     	;# 
  1397  1ECC                     	;# 
  1398  1ECC                     	;# 
  1399  1ECC                     	;# 
  1400  1F10                     	;# 
  1401  1F11                     	;# 
  1402  1F12                     	;# 
  1403  1F14                     	;# 
  1404  1F15                     	;# 
  1405  1F1C                     	;# 
  1406  1F1D                     	;# 
  1407  1F1E                     	;# 
  1408  1F1F                     	;# 
  1409  1F20                     	;# 
  1410  1F21                     	;# 
  1411  1F22                     	;# 
  1412  1F23                     	;# 
  1413  1F24                     	;# 
  1414  1F25                     	;# 
  1415  1F26                     	;# 
  1416  1F27                     	;# 
  1417  1F38                     	;# 
  1418  1F39                     	;# 
  1419  1F3A                     	;# 
  1420  1F3B                     	;# 
  1421  1F3C                     	;# 
  1422  1F3D                     	;# 
  1423  1F3E                     	;# 
  1424  1F3F                     	;# 
  1425  1F43                     	;# 
  1426  1F44                     	;# 
  1427  1F45                     	;# 
  1428  1F46                     	;# 
  1429  1F47                     	;# 
  1430  1F48                     	;# 
  1431  1F49                     	;# 
  1432  1F4A                     	;# 
  1433  1F4E                     	;# 
  1434  1F4F                     	;# 
  1435  1F50                     	;# 
  1436  1F51                     	;# 
  1437  1F52                     	;# 
  1438  1F53                     	;# 
  1439  1F54                     	;# 
  1440  1F55                     	;# 
  1441  1FE4                     	;# 
  1442  1FE5                     	;# 
  1443  1FE6                     	;# 
  1444  1FE7                     	;# 
  1445  1FE8                     	;# 
  1446  1FE8                     	;# 
  1447  1FE9                     	;# 
  1448  1FEA                     	;# 
  1449  1FEB                     	;# 
  1450  1FED                     	;# 
  1451  1FEE                     	;# 
  1452  1FEF                     	;# 
  1453  0000                     	;# 
  1454  0001                     	;# 
  1455  0002                     	;# 
  1456  0003                     	;# 
  1457  0004                     	;# 
  1458  0005                     	;# 
  1459  0006                     	;# 
  1460  0007                     	;# 
  1461  0008                     	;# 
  1462  0009                     	;# 
  1463  000A                     	;# 
  1464  000B                     	;# 
  1465  000C                     	;# 
  1466  000D                     	;# 
  1467  000E                     	;# 
  1468  0012                     	;# 
  1469  0013                     	;# 
  1470  0014                     	;# 
  1471  0018                     	;# 
  1472  0019                     	;# 
  1473  001A                     	;# 
  1474  008C                     	;# 
  1475  008C                     	;# 
  1476  008D                     	;# 
  1477  008E                     	;# 
  1478  008E                     	;# 
  1479  008F                     	;# 
  1480  0090                     	;# 
  1481  0090                     	;# 
  1482  0091                     	;# 
  1483  0092                     	;# 
  1484  0092                     	;# 
  1485  0093                     	;# 
  1486  0094                     	;# 
  1487  0094                     	;# 
  1488  0095                     	;# 
  1489  0096                     	;# 
  1490  0096                     	;# 
  1491  0097                     	;# 
  1492  0098                     	;# 
  1493  0099                     	;# 
  1494  009A                     	;# 
  1495  009B                     	;# 
  1496  009B                     	;# 
  1497  009C                     	;# 
  1498  009D                     	;# 
  1499  009D                     	;# 
  1500  009E                     	;# 
  1501  009F                     	;# 
  1502  010C                     	;# 
  1503  010C                     	;# 
  1504  010D                     	;# 
  1505  010E                     	;# 
  1506  010F                     	;# 
  1507  010F                     	;# 
  1508  0110                     	;# 
  1509  0111                     	;# 
  1510  0112                     	;# 
  1511  0113                     	;# 
  1512  0114                     	;# 
  1513  0115                     	;# 
  1514  0116                     	;# 
  1515  0117                     	;# 
  1516  0118                     	;# 
  1517  0119                     	;# 
  1518  0119                     	;# 
  1519  0119                     	;# 
  1520  011A                     	;# 
  1521  011A                     	;# 
  1522  011A                     	;# 
  1523  011B                     	;# 
  1524  011B                     	;# 
  1525  011B                     	;# 
  1526  011B                     	;# 
  1527  011B                     	;# 
  1528  011C                     	;# 
  1529  011C                     	;# 
  1530  011C                     	;# 
  1531  011D                     	;# 
  1532  011D                     	;# 
  1533  011D                     	;# 
  1534  011E                     	;# 
  1535  011E                     	;# 
  1536  011E                     	;# 
  1537  011F                     	;# 
  1538  011F                     	;# 
  1539  011F                     	;# 
  1540  011F                     	;# 
  1541  011F                     	;# 
  1542  018C                     	;# 
  1543  018D                     	;# 
  1544  018E                     	;# 
  1545  018F                     	;# 
  1546  0190                     	;# 
  1547  0191                     	;# 
  1548  0192                     	;# 
  1549  0196                     	;# 
  1550  0197                     	;# 
  1551  0198                     	;# 
  1552  0199                     	;# 
  1553  019A                     	;# 
  1554  019B                     	;# 
  1555  019C                     	;# 
  1556  020C                     	;# 
  1557  020D                     	;# 
  1558  020E                     	;# 
  1559  020E                     	;# 
  1560  020F                     	;# 
  1561  020F                     	;# 
  1562  0210                     	;# 
  1563  0210                     	;# 
  1564  0211                     	;# 
  1565  0211                     	;# 
  1566  0212                     	;# 
  1567  0213                     	;# 
  1568  0214                     	;# 
  1569  0214                     	;# 
  1570  0215                     	;# 
  1571  0215                     	;# 
  1572  0216                     	;# 
  1573  0216                     	;# 
  1574  0217                     	;# 
  1575  0217                     	;# 
  1576  0218                     	;# 
  1577  0219                     	;# 
  1578  021A                     	;# 
  1579  021A                     	;# 
  1580  021B                     	;# 
  1581  021B                     	;# 
  1582  021C                     	;# 
  1583  021C                     	;# 
  1584  021D                     	;# 
  1585  021D                     	;# 
  1586  021E                     	;# 
  1587  021F                     	;# 
  1588  028C                     	;# 
  1589  028C                     	;# 
  1590  028D                     	;# 
  1591  028D                     	;# 
  1592  028E                     	;# 
  1593  028F                     	;# 
  1594  0290                     	;# 
  1595  0291                     	;# 
  1596  0292                     	;# 
  1597  0292                     	;# 
  1598  0293                     	;# 
  1599  0293                     	;# 
  1600  0294                     	;# 
  1601  0295                     	;# 
  1602  0296                     	;# 
  1603  0297                     	;# 
  1604  0298                     	;# 
  1605  0298                     	;# 
  1606  0299                     	;# 
  1607  0299                     	;# 
  1608  029A                     	;# 
  1609  029B                     	;# 
  1610  029C                     	;# 
  1611  029D                     	;# 
  1612  029F                     	;# 
  1613  030C                     	;# 
  1614  030C                     	;# 
  1615  030D                     	;# 
  1616  030E                     	;# 
  1617  030F                     	;# 
  1618  0310                     	;# 
  1619  0310                     	;# 
  1620  0311                     	;# 
  1621  0312                     	;# 
  1622  0313                     	;# 
  1623  0314                     	;# 
  1624  0314                     	;# 
  1625  0315                     	;# 
  1626  0316                     	;# 
  1627  0317                     	;# 
  1628  0318                     	;# 
  1629  0318                     	;# 
  1630  0319                     	;# 
  1631  031A                     	;# 
  1632  031B                     	;# 
  1633  038C                     	;# 
  1634  038C                     	;# 
  1635  038D                     	;# 
  1636  038E                     	;# 
  1637  0390                     	;# 
  1638  0390                     	;# 
  1639  0391                     	;# 
  1640  0392                     	;# 
  1641  048C                     	;# 
  1642  048C                     	;# 
  1643  048D                     	;# 
  1644  048E                     	;# 
  1645  048F                     	;# 
  1646  048F                     	;# 
  1647  0490                     	;# 
  1648  0491                     	;# 
  1649  0492                     	;# 
  1650  0492                     	;# 
  1651  0493                     	;# 
  1652  0494                     	;# 
  1653  0495                     	;# 
  1654  0495                     	;# 
  1655  0496                     	;# 
  1656  0497                     	;# 
  1657  0498                     	;# 
  1658  0499                     	;# 
  1659  049A                     	;# 
  1660  049B                     	;# 
  1661  049C                     	;# 
  1662  049D                     	;# 
  1663  058C                     	;# 
  1664  058C                     	;# 
  1665  058D                     	;# 
  1666  058E                     	;# 
  1667  058F                     	;# 
  1668  058F                     	;# 
  1669  0590                     	;# 
  1670  0591                     	;# 
  1671  0592                     	;# 
  1672  0593                     	;# 
  1673  059C                     	;# 
  1674  059C                     	;# 
  1675  059D                     	;# 
  1676  059D                     	;# 
  1677  059E                     	;# 
  1678  059F                     	;# 
  1679  060C                     	;# 
  1680  060C                     	;# 
  1681  060D                     	;# 
  1682  060D                     	;# 
  1683  060E                     	;# 
  1684  060F                     	;# 
  1685  0610                     	;# 
  1686  0611                     	;# 
  1687  0612                     	;# 
  1688  0613                     	;# 
  1689  0614                     	;# 
  1690  0616                     	;# 
  1691  0616                     	;# 
  1692  0617                     	;# 
  1693  0617                     	;# 
  1694  0618                     	;# 
  1695  0619                     	;# 
  1696  061A                     	;# 
  1697  061B                     	;# 
  1698  061C                     	;# 
  1699  061D                     	;# 
  1700  061E                     	;# 
  1701  070C                     	;# 
  1702  070D                     	;# 
  1703  070E                     	;# 
  1704  070F                     	;# 
  1705  0710                     	;# 
  1706  0711                     	;# 
  1707  0712                     	;# 
  1708  0713                     	;# 
  1709  0714                     	;# 
  1710  0716                     	;# 
  1711  0717                     	;# 
  1712  0718                     	;# 
  1713  0719                     	;# 
  1714  071A                     	;# 
  1715  071B                     	;# 
  1716  071C                     	;# 
  1717  071D                     	;# 
  1718  071E                     	;# 
  1719  0796                     	;# 
  1720  0797                     	;# 
  1721  0798                     	;# 
  1722  0799                     	;# 
  1723  079A                     	;# 
  1724  079B                     	;# 
  1725  079C                     	;# 
  1726  079D                     	;# 
  1727  080C                     	;# 
  1728  080D                     	;# 
  1729  080E                     	;# 
  1730  080F                     	;# 
  1731  0810                     	;# 
  1732  0811                     	;# 
  1733  0812                     	;# 
  1734  0813                     	;# 
  1735  0814                     	;# 
  1736  081A                     	;# 
  1737  081A                     	;# 
  1738  081B                     	;# 
  1739  081C                     	;# 
  1740  081C                     	;# 
  1741  081D                     	;# 
  1742  081E                     	;# 
  1743  081F                     	;# 
  1744  088C                     	;# 
  1745  088D                     	;# 
  1746  088E                     	;# 
  1747  088F                     	;# 
  1748  0890                     	;# 
  1749  0891                     	;# 
  1750  0892                     	;# 
  1751  0893                     	;# 
  1752  0895                     	;# 
  1753  0896                     	;# 
  1754  0897                     	;# 
  1755  0898                     	;# 
  1756  0899                     	;# 
  1757  089A                     	;# 
  1758  089B                     	;# 
  1759  090C                     	;# 
  1760  090E                     	;# 
  1761  090F                     	;# 
  1762  091F                     	;# 
  1763  098F                     	;# 
  1764  098F                     	;# 
  1765  0990                     	;# 
  1766  0991                     	;# 
  1767  0992                     	;# 
  1768  0993                     	;# 
  1769  0994                     	;# 
  1770  0995                     	;# 
  1771  0996                     	;# 
  1772  0997                     	;# 
  1773  1E0F                     	;# 
  1774  1E10                     	;# 
  1775  1E11                     	;# 
  1776  1E12                     	;# 
  1777  1E13                     	;# 
  1778  1E14                     	;# 
  1779  1E15                     	;# 
  1780  1E16                     	;# 
  1781  1E17                     	;# 
  1782  1E18                     	;# 
  1783  1E19                     	;# 
  1784  1E1A                     	;# 
  1785  1E1B                     	;# 
  1786  1E1C                     	;# 
  1787  1E1D                     	;# 
  1788  1E1E                     	;# 
  1789  1E1F                     	;# 
  1790  1E20                     	;# 
  1791  1E21                     	;# 
  1792  1E22                     	;# 
  1793  1E23                     	;# 
  1794  1E24                     	;# 
  1795  1E25                     	;# 
  1796  1E26                     	;# 
  1797  1E27                     	;# 
  1798  1E28                     	;# 
  1799  1E29                     	;# 
  1800  1E2A                     	;# 
  1801  1E2B                     	;# 
  1802  1E2C                     	;# 
  1803  1E2D                     	;# 
  1804  1E2E                     	;# 
  1805  1E2F                     	;# 
  1806  1E30                     	;# 
  1807  1E31                     	;# 
  1808  1E32                     	;# 
  1809  1E33                     	;# 
  1810  1E34                     	;# 
  1811  1E35                     	;# 
  1812  1E36                     	;# 
  1813  1E37                     	;# 
  1814  1E8F                     	;# 
  1815  1E90                     	;# 
  1816  1E91                     	;# 
  1817  1E92                     	;# 
  1818  1E93                     	;# 
  1819  1E94                     	;# 
  1820  1E95                     	;# 
  1821  1E96                     	;# 
  1822  1E97                     	;# 
  1823  1E9C                     	;# 
  1824  1E9D                     	;# 
  1825  1E9E                     	;# 
  1826  1EA1                     	;# 
  1827  1EA2                     	;# 
  1828  1EA3                     	;# 
  1829  1EA4                     	;# 
  1830  1EA9                     	;# 
  1831  1EAA                     	;# 
  1832  1EB1                     	;# 
  1833  1EB2                     	;# 
  1834  1EB8                     	;# 
  1835  1EB9                     	;# 
  1836  1EBA                     	;# 
  1837  1EBB                     	;# 
  1838  1EBC                     	;# 
  1839  1EBD                     	;# 
  1840  1EBE                     	;# 
  1841  1EC3                     	;# 
  1842  1EC5                     	;# 
  1843  1EC6                     	;# 
  1844  1EC7                     	;# 
  1845  1EC8                     	;# 
  1846  1EC9                     	;# 
  1847  1ECA                     	;# 
  1848  1ECB                     	;# 
  1849  1ECB                     	;# 
  1850  1ECB                     	;# 
  1851  1ECC                     	;# 
  1852  1ECC                     	;# 
  1853  1ECC                     	;# 
  1854  1F10                     	;# 
  1855  1F11                     	;# 
  1856  1F12                     	;# 
  1857  1F14                     	;# 
  1858  1F15                     	;# 
  1859  1F1C                     	;# 
  1860  1F1D                     	;# 
  1861  1F1E                     	;# 
  1862  1F1F                     	;# 
  1863  1F20                     	;# 
  1864  1F21                     	;# 
  1865  1F22                     	;# 
  1866  1F23                     	;# 
  1867  1F24                     	;# 
  1868  1F25                     	;# 
  1869  1F26                     	;# 
  1870  1F27                     	;# 
  1871  1F38                     	;# 
  1872  1F39                     	;# 
  1873  1F3A                     	;# 
  1874  1F3B                     	;# 
  1875  1F3C                     	;# 
  1876  1F3D                     	;# 
  1877  1F3E                     	;# 
  1878  1F3F                     	;# 
  1879  1F43                     	;# 
  1880  1F44                     	;# 
  1881  1F45                     	;# 
  1882  1F46                     	;# 
  1883  1F47                     	;# 
  1884  1F48                     	;# 
  1885  1F49                     	;# 
  1886  1F4A                     	;# 
  1887  1F4E                     	;# 
  1888  1F4F                     	;# 
  1889  1F50                     	;# 
  1890  1F51                     	;# 
  1891  1F52                     	;# 
  1892  1F53                     	;# 
  1893  1F54                     	;# 
  1894  1F55                     	;# 
  1895  1FE4                     	;# 
  1896  1FE5                     	;# 
  1897  1FE6                     	;# 
  1898  1FE7                     	;# 
  1899  1FE8                     	;# 
  1900  1FE8                     	;# 
  1901  1FE9                     	;# 
  1902  1FEA                     	;# 
  1903  1FEB                     	;# 
  1904  1FED                     	;# 
  1905  1FEE                     	;# 
  1906  1FEF                     	;# 
  1907  0000                     	;# 
  1908  0001                     	;# 
  1909  0002                     	;# 
  1910  0003                     	;# 
  1911  0004                     	;# 
  1912  0005                     	;# 
  1913  0006                     	;# 
  1914  0007                     	;# 
  1915  0008                     	;# 
  1916  0009                     	;# 
  1917  000A                     	;# 
  1918  000B                     	;# 
  1919  000C                     	;# 
  1920  000D                     	;# 
  1921  000E                     	;# 
  1922  0012                     	;# 
  1923  0013                     	;# 
  1924  0014                     	;# 
  1925  0018                     	;# 
  1926  0019                     	;# 
  1927  001A                     	;# 
  1928  008C                     	;# 
  1929  008C                     	;# 
  1930  008D                     	;# 
  1931  008E                     	;# 
  1932  008E                     	;# 
  1933  008F                     	;# 
  1934  0090                     	;# 
  1935  0090                     	;# 
  1936  0091                     	;# 
  1937  0092                     	;# 
  1938  0092                     	;# 
  1939  0093                     	;# 
  1940  0094                     	;# 
  1941  0094                     	;# 
  1942  0095                     	;# 
  1943  0096                     	;# 
  1944  0096                     	;# 
  1945  0097                     	;# 
  1946  0098                     	;# 
  1947  0099                     	;# 
  1948  009A                     	;# 
  1949  009B                     	;# 
  1950  009B                     	;# 
  1951  009C                     	;# 
  1952  009D                     	;# 
  1953  009D                     	;# 
  1954  009E                     	;# 
  1955  009F                     	;# 
  1956  010C                     	;# 
  1957  010C                     	;# 
  1958  010D                     	;# 
  1959  010E                     	;# 
  1960  010F                     	;# 
  1961  010F                     	;# 
  1962  0110                     	;# 
  1963  0111                     	;# 
  1964  0112                     	;# 
  1965  0113                     	;# 
  1966  0114                     	;# 
  1967  0115                     	;# 
  1968  0116                     	;# 
  1969  0117                     	;# 
  1970  0118                     	;# 
  1971  0119                     	;# 
  1972  0119                     	;# 
  1973  0119                     	;# 
  1974  011A                     	;# 
  1975  011A                     	;# 
  1976  011A                     	;# 
  1977  011B                     	;# 
  1978  011B                     	;# 
  1979  011B                     	;# 
  1980  011B                     	;# 
  1981  011B                     	;# 
  1982  011C                     	;# 
  1983  011C                     	;# 
  1984  011C                     	;# 
  1985  011D                     	;# 
  1986  011D                     	;# 
  1987  011D                     	;# 
  1988  011E                     	;# 
  1989  011E                     	;# 
  1990  011E                     	;# 
  1991  011F                     	;# 
  1992  011F                     	;# 
  1993  011F                     	;# 
  1994  011F                     	;# 
  1995  011F                     	;# 
  1996  018C                     	;# 
  1997  018D                     	;# 
  1998  018E                     	;# 
  1999  018F                     	;# 
  2000  0190                     	;# 
  2001  0191                     	;# 
  2002  0192                     	;# 
  2003  0196                     	;# 
  2004  0197                     	;# 
  2005  0198                     	;# 
  2006  0199                     	;# 
  2007  019A                     	;# 
  2008  019B                     	;# 
  2009  019C                     	;# 
  2010  020C                     	;# 
  2011  020D                     	;# 
  2012  020E                     	;# 
  2013  020E                     	;# 
  2014  020F                     	;# 
  2015  020F                     	;# 
  2016  0210                     	;# 
  2017  0210                     	;# 
  2018  0211                     	;# 
  2019  0211                     	;# 
  2020  0212                     	;# 
  2021  0213                     	;# 
  2022  0214                     	;# 
  2023  0214                     	;# 
  2024  0215                     	;# 
  2025  0215                     	;# 
  2026  0216                     	;# 
  2027  0216                     	;# 
  2028  0217                     	;# 
  2029  0217                     	;# 
  2030  0218                     	;# 
  2031  0219                     	;# 
  2032  021A                     	;# 
  2033  021A                     	;# 
  2034  021B                     	;# 
  2035  021B                     	;# 
  2036  021C                     	;# 
  2037  021C                     	;# 
  2038  021D                     	;# 
  2039  021D                     	;# 
  2040  021E                     	;# 
  2041  021F                     	;# 
  2042  028C                     	;# 
  2043  028C                     	;# 
  2044  028D                     	;# 
  2045  028D                     	;# 
  2046  028E                     	;# 
  2047  028F                     	;# 
  2048  0290                     	;# 
  2049  0291                     	;# 
  2050  0292                     	;# 
  2051  0292                     	;# 
  2052  0293                     	;# 
  2053  0293                     	;# 
  2054  0294                     	;# 
  2055  0295                     	;# 
  2056  0296                     	;# 
  2057  0297                     	;# 
  2058  0298                     	;# 
  2059  0298                     	;# 
  2060  0299                     	;# 
  2061  0299                     	;# 
  2062  029A                     	;# 
  2063  029B                     	;# 
  2064  029C                     	;# 
  2065  029D                     	;# 
  2066  029F                     	;# 
  2067  030C                     	;# 
  2068  030C                     	;# 
  2069  030D                     	;# 
  2070  030E                     	;# 
  2071  030F                     	;# 
  2072  0310                     	;# 
  2073  0310                     	;# 
  2074  0311                     	;# 
  2075  0312                     	;# 
  2076  0313                     	;# 
  2077  0314                     	;# 
  2078  0314                     	;# 
  2079  0315                     	;# 
  2080  0316                     	;# 
  2081  0317                     	;# 
  2082  0318                     	;# 
  2083  0318                     	;# 
  2084  0319                     	;# 
  2085  031A                     	;# 
  2086  031B                     	;# 
  2087  038C                     	;# 
  2088  038C                     	;# 
  2089  038D                     	;# 
  2090  038E                     	;# 
  2091  0390                     	;# 
  2092  0390                     	;# 
  2093  0391                     	;# 
  2094  0392                     	;# 
  2095  048C                     	;# 
  2096  048C                     	;# 
  2097  048D                     	;# 
  2098  048E                     	;# 
  2099  048F                     	;# 
  2100  048F                     	;# 
  2101  0490                     	;# 
  2102  0491                     	;# 
  2103  0492                     	;# 
  2104  0492                     	;# 
  2105  0493                     	;# 
  2106  0494                     	;# 
  2107  0495                     	;# 
  2108  0495                     	;# 
  2109  0496                     	;# 
  2110  0497                     	;# 
  2111  0498                     	;# 
  2112  0499                     	;# 
  2113  049A                     	;# 
  2114  049B                     	;# 
  2115  049C                     	;# 
  2116  049D                     	;# 
  2117  058C                     	;# 
  2118  058C                     	;# 
  2119  058D                     	;# 
  2120  058E                     	;# 
  2121  058F                     	;# 
  2122  058F                     	;# 
  2123  0590                     	;# 
  2124  0591                     	;# 
  2125  0592                     	;# 
  2126  0593                     	;# 
  2127  059C                     	;# 
  2128  059C                     	;# 
  2129  059D                     	;# 
  2130  059D                     	;# 
  2131  059E                     	;# 
  2132  059F                     	;# 
  2133  060C                     	;# 
  2134  060C                     	;# 
  2135  060D                     	;# 
  2136  060D                     	;# 
  2137  060E                     	;# 
  2138  060F                     	;# 
  2139  0610                     	;# 
  2140  0611                     	;# 
  2141  0612                     	;# 
  2142  0613                     	;# 
  2143  0614                     	;# 
  2144  0616                     	;# 
  2145  0616                     	;# 
  2146  0617                     	;# 
  2147  0617                     	;# 
  2148  0618                     	;# 
  2149  0619                     	;# 
  2150  061A                     	;# 
  2151  061B                     	;# 
  2152  061C                     	;# 
  2153  061D                     	;# 
  2154  061E                     	;# 
  2155  070C                     	;# 
  2156  070D                     	;# 
  2157  070E                     	;# 
  2158  070F                     	;# 
  2159  0710                     	;# 
  2160  0711                     	;# 
  2161  0712                     	;# 
  2162  0713                     	;# 
  2163  0714                     	;# 
  2164  0716                     	;# 
  2165  0717                     	;# 
  2166  0718                     	;# 
  2167  0719                     	;# 
  2168  071A                     	;# 
  2169  071B                     	;# 
  2170  071C                     	;# 
  2171  071D                     	;# 
  2172  071E                     	;# 
  2173  0796                     	;# 
  2174  0797                     	;# 
  2175  0798                     	;# 
  2176  0799                     	;# 
  2177  079A                     	;# 
  2178  079B                     	;# 
  2179  079C                     	;# 
  2180  079D                     	;# 
  2181  080C                     	;# 
  2182  080D                     	;# 
  2183  080E                     	;# 
  2184  080F                     	;# 
  2185  0810                     	;# 
  2186  0811                     	;# 
  2187  0812                     	;# 
  2188  0813                     	;# 
  2189  0814                     	;# 
  2190  081A                     	;# 
  2191  081A                     	;# 
  2192  081B                     	;# 
  2193  081C                     	;# 
  2194  081C                     	;# 
  2195  081D                     	;# 
  2196  081E                     	;# 
  2197  081F                     	;# 
  2198  088C                     	;# 
  2199  088D                     	;# 
  2200  088E                     	;# 
  2201  088F                     	;# 
  2202  0890                     	;# 
  2203  0891                     	;# 
  2204  0892                     	;# 
  2205  0893                     	;# 
  2206  0895                     	;# 
  2207  0896                     	;# 
  2208  0897                     	;# 
  2209  0898                     	;# 
  2210  0899                     	;# 
  2211  089A                     	;# 
  2212  089B                     	;# 
  2213  090C                     	;# 
  2214  090E                     	;# 
  2215  090F                     	;# 
  2216  091F                     	;# 
  2217  098F                     	;# 
  2218  098F                     	;# 
  2219  0990                     	;# 
  2220  0991                     	;# 
  2221  0992                     	;# 
  2222  0993                     	;# 
  2223  0994                     	;# 
  2224  0995                     	;# 
  2225  0996                     	;# 
  2226  0997                     	;# 
  2227  1E0F                     	;# 
  2228  1E10                     	;# 
  2229  1E11                     	;# 
  2230  1E12                     	;# 
  2231  1E13                     	;# 
  2232  1E14                     	;# 
  2233  1E15                     	;# 
  2234  1E16                     	;# 
  2235  1E17                     	;# 
  2236  1E18                     	;# 
  2237  1E19                     	;# 
  2238  1E1A                     	;# 
  2239  1E1B                     	;# 
  2240  1E1C                     	;# 
  2241  1E1D                     	;# 
  2242  1E1E                     	;# 
  2243  1E1F                     	;# 
  2244  1E20                     	;# 
  2245  1E21                     	;# 
  2246  1E22                     	;# 
  2247  1E23                     	;# 
  2248  1E24                     	;# 
  2249  1E25                     	;# 
  2250  1E26                     	;# 
  2251  1E27                     	;# 
  2252  1E28                     	;# 
  2253  1E29                     	;# 
  2254  1E2A                     	;# 
  2255  1E2B                     	;# 
  2256  1E2C                     	;# 
  2257  1E2D                     	;# 
  2258  1E2E                     	;# 
  2259  1E2F                     	;# 
  2260  1E30                     	;# 
  2261  1E31                     	;# 
  2262  1E32                     	;# 
  2263  1E33                     	;# 
  2264  1E34                     	;# 
  2265  1E35                     	;# 
  2266  1E36                     	;# 
  2267  1E37                     	;# 
  2268  1E8F                     	;# 
  2269  1E90                     	;# 
  2270  1E91                     	;# 
  2271  1E92                     	;# 
  2272  1E93                     	;# 
  2273  1E94                     	;# 
  2274  1E95                     	;# 
  2275  1E96                     	;# 
  2276  1E97                     	;# 
  2277  1E9C                     	;# 
  2278  1E9D                     	;# 
  2279  1E9E                     	;# 
  2280  1EA1                     	;# 
  2281  1EA2                     	;# 
  2282  1EA3                     	;# 
  2283  1EA4                     	;# 
  2284  1EA9                     	;# 
  2285  1EAA                     	;# 
  2286  1EB1                     	;# 
  2287  1EB2                     	;# 
  2288  1EB8                     	;# 
  2289  1EB9                     	;# 
  2290  1EBA                     	;# 
  2291  1EBB                     	;# 
  2292  1EBC                     	;# 
  2293  1EBD                     	;# 
  2294  1EBE                     	;# 
  2295  1EC3                     	;# 
  2296  1EC5                     	;# 
  2297  1EC6                     	;# 
  2298  1EC7                     	;# 
  2299  1EC8                     	;# 
  2300  1EC9                     	;# 
  2301  1ECA                     	;# 
  2302  1ECB                     	;# 
  2303  1ECB                     	;# 
  2304  1ECB                     	;# 
  2305  1ECC                     	;# 
  2306  1ECC                     	;# 
  2307  1ECC                     	;# 
  2308  1F10                     	;# 
  2309  1F11                     	;# 
  2310  1F12                     	;# 
  2311  1F14                     	;# 
  2312  1F15                     	;# 
  2313  1F1C                     	;# 
  2314  1F1D                     	;# 
  2315  1F1E                     	;# 
  2316  1F1F                     	;# 
  2317  1F20                     	;# 
  2318  1F21                     	;# 
  2319  1F22                     	;# 
  2320  1F23                     	;# 
  2321  1F24                     	;# 
  2322  1F25                     	;# 
  2323  1F26                     	;# 
  2324  1F27                     	;# 
  2325  1F38                     	;# 
  2326  1F39                     	;# 
  2327  1F3A                     	;# 
  2328  1F3B                     	;# 
  2329  1F3C                     	;# 
  2330  1F3D                     	;# 
  2331  1F3E                     	;# 
  2332  1F3F                     	;# 
  2333  1F43                     	;# 
  2334  1F44                     	;# 
  2335  1F45                     	;# 
  2336  1F46                     	;# 
  2337  1F47                     	;# 
  2338  1F48                     	;# 
  2339  1F49                     	;# 
  2340  1F4A                     	;# 
  2341  1F4E                     	;# 
  2342  1F4F                     	;# 
  2343  1F50                     	;# 
  2344  1F51                     	;# 
  2345  1F52                     	;# 
  2346  1F53                     	;# 
  2347  1F54                     	;# 
  2348  1F55                     	;# 
  2349  1FE4                     	;# 
  2350  1FE5                     	;# 
  2351  1FE6                     	;# 
  2352  1FE7                     	;# 
  2353  1FE8                     	;# 
  2354  1FE8                     	;# 
  2355  1FE9                     	;# 
  2356  1FEA                     	;# 
  2357  1FEB                     	;# 
  2358  1FED                     	;# 
  2359  1FEE                     	;# 
  2360  1FEF                     	;# 
  2361  0000                     	;# 
  2362  0001                     	;# 
  2363  0002                     	;# 
  2364  0003                     	;# 
  2365  0004                     	;# 
  2366  0005                     	;# 
  2367  0006                     	;# 
  2368  0007                     	;# 
  2369  0008                     	;# 
  2370  0009                     	;# 
  2371  000A                     	;# 
  2372  000B                     	;# 
  2373  000C                     	;# 
  2374  000D                     	;# 
  2375  000E                     	;# 
  2376  0012                     	;# 
  2377  0013                     	;# 
  2378  0014                     	;# 
  2379  0018                     	;# 
  2380  0019                     	;# 
  2381  001A                     	;# 
  2382  008C                     	;# 
  2383  008C                     	;# 
  2384  008D                     	;# 
  2385  008E                     	;# 
  2386  008E                     	;# 
  2387  008F                     	;# 
  2388  0090                     	;# 
  2389  0090                     	;# 
  2390  0091                     	;# 
  2391  0092                     	;# 
  2392  0092                     	;# 
  2393  0093                     	;# 
  2394  0094                     	;# 
  2395  0094                     	;# 
  2396  0095                     	;# 
  2397  0096                     	;# 
  2398  0096                     	;# 
  2399  0097                     	;# 
  2400  0098                     	;# 
  2401  0099                     	;# 
  2402  009A                     	;# 
  2403  009B                     	;# 
  2404  009B                     	;# 
  2405  009C                     	;# 
  2406  009D                     	;# 
  2407  009D                     	;# 
  2408  009E                     	;# 
  2409  009F                     	;# 
  2410  010C                     	;# 
  2411  010C                     	;# 
  2412  010D                     	;# 
  2413  010E                     	;# 
  2414  010F                     	;# 
  2415  010F                     	;# 
  2416  0110                     	;# 
  2417  0111                     	;# 
  2418  0112                     	;# 
  2419  0113                     	;# 
  2420  0114                     	;# 
  2421  0115                     	;# 
  2422  0116                     	;# 
  2423  0117                     	;# 
  2424  0118                     	;# 
  2425  0119                     	;# 
  2426  0119                     	;# 
  2427  0119                     	;# 
  2428  011A                     	;# 
  2429  011A                     	;# 
  2430  011A                     	;# 
  2431  011B                     	;# 
  2432  011B                     	;# 
  2433  011B                     	;# 
  2434  011B                     	;# 
  2435  011B                     	;# 
  2436  011C                     	;# 
  2437  011C                     	;# 
  2438  011C                     	;# 
  2439  011D                     	;# 
  2440  011D                     	;# 
  2441  011D                     	;# 
  2442  011E                     	;# 
  2443  011E                     	;# 
  2444  011E                     	;# 
  2445  011F                     	;# 
  2446  011F                     	;# 
  2447  011F                     	;# 
  2448  011F                     	;# 
  2449  011F                     	;# 
  2450  018C                     	;# 
  2451  018D                     	;# 
  2452  018E                     	;# 
  2453  018F                     	;# 
  2454  0190                     	;# 
  2455  0191                     	;# 
  2456  0192                     	;# 
  2457  0196                     	;# 
  2458  0197                     	;# 
  2459  0198                     	;# 
  2460  0199                     	;# 
  2461  019A                     	;# 
  2462  019B                     	;# 
  2463  019C                     	;# 
  2464  020C                     	;# 
  2465  020D                     	;# 
  2466  020E                     	;# 
  2467  020E                     	;# 
  2468  020F                     	;# 
  2469  020F                     	;# 
  2470  0210                     	;# 
  2471  0210                     	;# 
  2472  0211                     	;# 
  2473  0211                     	;# 
  2474  0212                     	;# 
  2475  0213                     	;# 
  2476  0214                     	;# 
  2477  0214                     	;# 
  2478  0215                     	;# 
  2479  0215                     	;# 
  2480  0216                     	;# 
  2481  0216                     	;# 
  2482  0217                     	;# 
  2483  0217                     	;# 
  2484  0218                     	;# 
  2485  0219                     	;# 
  2486  021A                     	;# 
  2487  021A                     	;# 
  2488  021B                     	;# 
  2489  021B                     	;# 
  2490  021C                     	;# 
  2491  021C                     	;# 
  2492  021D                     	;# 
  2493  021D                     	;# 
  2494  021E                     	;# 
  2495  021F                     	;# 
  2496  028C                     	;# 
  2497  028C                     	;# 
  2498  028D                     	;# 
  2499  028D                     	;# 
  2500  028E                     	;# 
  2501  028F                     	;# 
  2502  0290                     	;# 
  2503  0291                     	;# 
  2504  0292                     	;# 
  2505  0292                     	;# 
  2506  0293                     	;# 
  2507  0293                     	;# 
  2508  0294                     	;# 
  2509  0295                     	;# 
  2510  0296                     	;# 
  2511  0297                     	;# 
  2512  0298                     	;# 
  2513  0298                     	;# 
  2514  0299                     	;# 
  2515  0299                     	;# 
  2516  029A                     	;# 
  2517  029B                     	;# 
  2518  029C                     	;# 
  2519  029D                     	;# 
  2520  029F                     	;# 
  2521  030C                     	;# 
  2522  030C                     	;# 
  2523  030D                     	;# 
  2524  030E                     	;# 
  2525  030F                     	;# 
  2526  0310                     	;# 
  2527  0310                     	;# 
  2528  0311                     	;# 
  2529  0312                     	;# 
  2530  0313                     	;# 
  2531  0314                     	;# 
  2532  0314                     	;# 
  2533  0315                     	;# 
  2534  0316                     	;# 
  2535  0317                     	;# 
  2536  0318                     	;# 
  2537  0318                     	;# 
  2538  0319                     	;# 
  2539  031A                     	;# 
  2540  031B                     	;# 
  2541  038C                     	;# 
  2542  038C                     	;# 
  2543  038D                     	;# 
  2544  038E                     	;# 
  2545  0390                     	;# 
  2546  0390                     	;# 
  2547  0391                     	;# 
  2548  0392                     	;# 
  2549  048C                     	;# 
  2550  048C                     	;# 
  2551  048D                     	;# 
  2552  048E                     	;# 
  2553  048F                     	;# 
  2554  048F                     	;# 
  2555  0490                     	;# 
  2556  0491                     	;# 
  2557  0492                     	;# 
  2558  0492                     	;# 
  2559  0493                     	;# 
  2560  0494                     	;# 
  2561  0495                     	;# 
  2562  0495                     	;# 
  2563  0496                     	;# 
  2564  0497                     	;# 
  2565  0498                     	;# 
  2566  0499                     	;# 
  2567  049A                     	;# 
  2568  049B                     	;# 
  2569  049C                     	;# 
  2570  049D                     	;# 
  2571  058C                     	;# 
  2572  058C                     	;# 
  2573  058D                     	;# 
  2574  058E                     	;# 
  2575  058F                     	;# 
  2576  058F                     	;# 
  2577  0590                     	;# 
  2578  0591                     	;# 
  2579  0592                     	;# 
  2580  0593                     	;# 
  2581  059C                     	;# 
  2582  059C                     	;# 
  2583  059D                     	;# 
  2584  059D                     	;# 
  2585  059E                     	;# 
  2586  059F                     	;# 
  2587  060C                     	;# 
  2588  060C                     	;# 
  2589  060D                     	;# 
  2590  060D                     	;# 
  2591  060E                     	;# 
  2592  060F                     	;# 
  2593  0610                     	;# 
  2594  0611                     	;# 
  2595  0612                     	;# 
  2596  0613                     	;# 
  2597  0614                     	;# 
  2598  0616                     	;# 
  2599  0616                     	;# 
  2600  0617                     	;# 
  2601  0617                     	;# 
  2602  0618                     	;# 
  2603  0619                     	;# 
  2604  061A                     	;# 
  2605  061B                     	;# 
  2606  061C                     	;# 
  2607  061D                     	;# 
  2608  061E                     	;# 
  2609  070C                     	;# 
  2610  070D                     	;# 
  2611  070E                     	;# 
  2612  070F                     	;# 
  2613  0710                     	;# 
  2614  0711                     	;# 
  2615  0712                     	;# 
  2616  0713                     	;# 
  2617  0714                     	;# 
  2618  0716                     	;# 
  2619  0717                     	;# 
  2620  0718                     	;# 
  2621  0719                     	;# 
  2622  071A                     	;# 
  2623  071B                     	;# 
  2624  071C                     	;# 
  2625  071D                     	;# 
  2626  071E                     	;# 
  2627  0796                     	;# 
  2628  0797                     	;# 
  2629  0798                     	;# 
  2630  0799                     	;# 
  2631  079A                     	;# 
  2632  079B                     	;# 
  2633  079C                     	;# 
  2634  079D                     	;# 
  2635  080C                     	;# 
  2636  080D                     	;# 
  2637  080E                     	;# 
  2638  080F                     	;# 
  2639  0810                     	;# 
  2640  0811                     	;# 
  2641  0812                     	;# 
  2642  0813                     	;# 
  2643  0814                     	;# 
  2644  081A                     	;# 
  2645  081A                     	;# 
  2646  081B                     	;# 
  2647  081C                     	;# 
  2648  081C                     	;# 
  2649  081D                     	;# 
  2650  081E                     	;# 
  2651  081F                     	;# 
  2652  088C                     	;# 
  2653  088D                     	;# 
  2654  088E                     	;# 
  2655  088F                     	;# 
  2656  0890                     	;# 
  2657  0891                     	;# 
  2658  0892                     	;# 
  2659  0893                     	;# 
  2660  0895                     	;# 
  2661  0896                     	;# 
  2662  0897                     	;# 
  2663  0898                     	;# 
  2664  0899                     	;# 
  2665  089A                     	;# 
  2666  089B                     	;# 
  2667  090C                     	;# 
  2668  090E                     	;# 
  2669  090F                     	;# 
  2670  091F                     	;# 
  2671  098F                     	;# 
  2672  098F                     	;# 
  2673  0990                     	;# 
  2674  0991                     	;# 
  2675  0992                     	;# 
  2676  0993                     	;# 
  2677  0994                     	;# 
  2678  0995                     	;# 
  2679  0996                     	;# 
  2680  0997                     	;# 
  2681  1E0F                     	;# 
  2682  1E10                     	;# 
  2683  1E11                     	;# 
  2684  1E12                     	;# 
  2685  1E13                     	;# 
  2686  1E14                     	;# 
  2687  1E15                     	;# 
  2688  1E16                     	;# 
  2689  1E17                     	;# 
  2690  1E18                     	;# 
  2691  1E19                     	;# 
  2692  1E1A                     	;# 
  2693  1E1B                     	;# 
  2694  1E1C                     	;# 
  2695  1E1D                     	;# 
  2696  1E1E                     	;# 
  2697  1E1F                     	;# 
  2698  1E20                     	;# 
  2699  1E21                     	;# 
  2700  1E22                     	;# 
  2701  1E23                     	;# 
  2702  1E24                     	;# 
  2703  1E25                     	;# 
  2704  1E26                     	;# 
  2705  1E27                     	;# 
  2706  1E28                     	;# 
  2707  1E29                     	;# 
  2708  1E2A                     	;# 
  2709  1E2B                     	;# 
  2710  1E2C                     	;# 
  2711  1E2D                     	;# 
  2712  1E2E                     	;# 
  2713  1E2F                     	;# 
  2714  1E30                     	;# 
  2715  1E31                     	;# 
  2716  1E32                     	;# 
  2717  1E33                     	;# 
  2718  1E34                     	;# 
  2719  1E35                     	;# 
  2720  1E36                     	;# 
  2721  1E37                     	;# 
  2722  1E8F                     	;# 
  2723  1E90                     	;# 
  2724  1E91                     	;# 
  2725  1E92                     	;# 
  2726  1E93                     	;# 
  2727  1E94                     	;# 
  2728  1E95                     	;# 
  2729  1E96                     	;# 
  2730  1E97                     	;# 
  2731  1E9C                     	;# 
  2732  1E9D                     	;# 
  2733  1E9E                     	;# 
  2734  1EA1                     	;# 
  2735  1EA2                     	;# 
  2736  1EA3                     	;# 
  2737  1EA4                     	;# 
  2738  1EA9                     	;# 
  2739  1EAA                     	;# 
  2740  1EB1                     	;# 
  2741  1EB2                     	;# 
  2742  1EB8                     	;# 
  2743  1EB9                     	;# 
  2744  1EBA                     	;# 
  2745  1EBB                     	;# 
  2746  1EBC                     	;# 
  2747  1EBD                     	;# 
  2748  1EBE                     	;# 
  2749  1EC3                     	;# 
  2750  1EC5                     	;# 
  2751  1EC6                     	;# 
  2752  1EC7                     	;# 
  2753  1EC8                     	;# 
  2754  1EC9                     	;# 
  2755  1ECA                     	;# 
  2756  1ECB                     	;# 
  2757  1ECB                     	;# 
  2758  1ECB                     	;# 
  2759  1ECC                     	;# 
  2760  1ECC                     	;# 
  2761  1ECC                     	;# 
  2762  1F10                     	;# 
  2763  1F11                     	;# 
  2764  1F12                     	;# 
  2765  1F14                     	;# 
  2766  1F15                     	;# 
  2767  1F1C                     	;# 
  2768  1F1D                     	;# 
  2769  1F1E                     	;# 
  2770  1F1F                     	;# 
  2771  1F20                     	;# 
  2772  1F21                     	;# 
  2773  1F22                     	;# 
  2774  1F23                     	;# 
  2775  1F24                     	;# 
  2776  1F25                     	;# 
  2777  1F26                     	;# 
  2778  1F27                     	;# 
  2779  1F38                     	;# 
  2780  1F39                     	;# 
  2781  1F3A                     	;# 
  2782  1F3B                     	;# 
  2783  1F3C                     	;# 
  2784  1F3D                     	;# 
  2785  1F3E                     	;# 
  2786  1F3F                     	;# 
  2787  1F43                     	;# 
  2788  1F44                     	;# 
  2789  1F45                     	;# 
  2790  1F46                     	;# 
  2791  1F47                     	;# 
  2792  1F48                     	;# 
  2793  1F49                     	;# 
  2794  1F4A                     	;# 
  2795  1F4E                     	;# 
  2796  1F4F                     	;# 
  2797  1F50                     	;# 
  2798  1F51                     	;# 
  2799  1F52                     	;# 
  2800  1F53                     	;# 
  2801  1F54                     	;# 
  2802  1F55                     	;# 
  2803  1FE4                     	;# 
  2804  1FE5                     	;# 
  2805  1FE6                     	;# 
  2806  1FE7                     	;# 
  2807  1FE8                     	;# 
  2808  1FE8                     	;# 
  2809  1FE9                     	;# 
  2810  1FEA                     	;# 
  2811  1FEB                     	;# 
  2812  1FED                     	;# 
  2813  1FEE                     	;# 
  2814  1FEF                     	;# 
  2815  0000                     	;# 
  2816  0001                     	;# 
  2817  0002                     	;# 
  2818  0003                     	;# 
  2819  0004                     	;# 
  2820  0005                     	;# 
  2821  0006                     	;# 
  2822  0007                     	;# 
  2823  0008                     	;# 
  2824  0009                     	;# 
  2825  000A                     	;# 
  2826  000B                     	;# 
  2827  000C                     	;# 
  2828  000D                     	;# 
  2829  000E                     	;# 
  2830  0012                     	;# 
  2831  0013                     	;# 
  2832  0014                     	;# 
  2833  0018                     	;# 
  2834  0019                     	;# 
  2835  001A                     	;# 
  2836  008C                     	;# 
  2837  008C                     	;# 
  2838  008D                     	;# 
  2839  008E                     	;# 
  2840  008E                     	;# 
  2841  008F                     	;# 
  2842  0090                     	;# 
  2843  0090                     	;# 
  2844  0091                     	;# 
  2845  0092                     	;# 
  2846  0092                     	;# 
  2847  0093                     	;# 
  2848  0094                     	;# 
  2849  0094                     	;# 
  2850  0095                     	;# 
  2851  0096                     	;# 
  2852  0096                     	;# 
  2853  0097                     	;# 
  2854  0098                     	;# 
  2855  0099                     	;# 
  2856  009A                     	;# 
  2857  009B                     	;# 
  2858  009B                     	;# 
  2859  009C                     	;# 
  2860  009D                     	;# 
  2861  009D                     	;# 
  2862  009E                     	;# 
  2863  009F                     	;# 
  2864  010C                     	;# 
  2865  010C                     	;# 
  2866  010D                     	;# 
  2867  010E                     	;# 
  2868  010F                     	;# 
  2869  010F                     	;# 
  2870  0110                     	;# 
  2871  0111                     	;# 
  2872  0112                     	;# 
  2873  0113                     	;# 
  2874  0114                     	;# 
  2875  0115                     	;# 
  2876  0116                     	;# 
  2877  0117                     	;# 
  2878  0118                     	;# 
  2879  0119                     	;# 
  2880  0119                     	;# 
  2881  0119                     	;# 
  2882  011A                     	;# 
  2883  011A                     	;# 
  2884  011A                     	;# 
  2885  011B                     	;# 
  2886  011B                     	;# 
  2887  011B                     	;# 
  2888  011B                     	;# 
  2889  011B                     	;# 
  2890  011C                     	;# 
  2891  011C                     	;# 
  2892  011C                     	;# 
  2893  011D                     	;# 
  2894  011D                     	;# 
  2895  011D                     	;# 
  2896  011E                     	;# 
  2897  011E                     	;# 
  2898  011E                     	;# 
  2899  011F                     	;# 
  2900  011F                     	;# 
  2901  011F                     	;# 
  2902  011F                     	;# 
  2903  011F                     	;# 
  2904  018C                     	;# 
  2905  018D                     	;# 
  2906  018E                     	;# 
  2907  018F                     	;# 
  2908  0190                     	;# 
  2909  0191                     	;# 
  2910  0192                     	;# 
  2911  0196                     	;# 
  2912  0197                     	;# 
  2913  0198                     	;# 
  2914  0199                     	;# 
  2915  019A                     	;# 
  2916  019B                     	;# 
  2917  019C                     	;# 
  2918  020C                     	;# 
  2919  020D                     	;# 
  2920  020E                     	;# 
  2921  020E                     	;# 
  2922  020F                     	;# 
  2923  020F                     	;# 
  2924  0210                     	;# 
  2925  0210                     	;# 
  2926  0211                     	;# 
  2927  0211                     	;# 
  2928  0212                     	;# 
  2929  0213                     	;# 
  2930  0214                     	;# 
  2931  0214                     	;# 
  2932  0215                     	;# 
  2933  0215                     	;# 
  2934  0216                     	;# 
  2935  0216                     	;# 
  2936  0217                     	;# 
  2937  0217                     	;# 
  2938  0218                     	;# 
  2939  0219                     	;# 
  2940  021A                     	;# 
  2941  021A                     	;# 
  2942  021B                     	;# 
  2943  021B                     	;# 
  2944  021C                     	;# 
  2945  021C                     	;# 
  2946  021D                     	;# 
  2947  021D                     	;# 
  2948  021E                     	;# 
  2949  021F                     	;# 
  2950  028C                     	;# 
  2951  028C                     	;# 
  2952  028D                     	;# 
  2953  028D                     	;# 
  2954  028E                     	;# 
  2955  028F                     	;# 
  2956  0290                     	;# 
  2957  0291                     	;# 
  2958  0292                     	;# 
  2959  0292                     	;# 
  2960  0293                     	;# 
  2961  0293                     	;# 
  2962  0294                     	;# 
  2963  0295                     	;# 
  2964  0296                     	;# 
  2965  0297                     	;# 
  2966  0298                     	;# 
  2967  0298                     	;# 
  2968  0299                     	;# 
  2969  0299                     	;# 
  2970  029A                     	;# 
  2971  029B                     	;# 
  2972  029C                     	;# 
  2973  029D                     	;# 
  2974  029F                     	;# 
  2975  030C                     	;# 
  2976  030C                     	;# 
  2977  030D                     	;# 
  2978  030E                     	;# 
  2979  030F                     	;# 
  2980  0310                     	;# 
  2981  0310                     	;# 
  2982  0311                     	;# 
  2983  0312                     	;# 
  2984  0313                     	;# 
  2985  0314                     	;# 
  2986  0314                     	;# 
  2987  0315                     	;# 
  2988  0316                     	;# 
  2989  0317                     	;# 
  2990  0318                     	;# 
  2991  0318                     	;# 
  2992  0319                     	;# 
  2993  031A                     	;# 
  2994  031B                     	;# 
  2995  038C                     	;# 
  2996  038C                     	;# 
  2997  038D                     	;# 
  2998  038E                     	;# 
  2999  0390                     	;# 
  3000  0390                     	;# 
  3001  0391                     	;# 
  3002  0392                     	;# 
  3003  048C                     	;# 
  3004  048C                     	;# 
  3005  048D                     	;# 
  3006  048E                     	;# 
  3007  048F                     	;# 
  3008  048F                     	;# 
  3009  0490                     	;# 
  3010  0491                     	;# 
  3011  0492                     	;# 
  3012  0492                     	;# 
  3013  0493                     	;# 
  3014  0494                     	;# 
  3015  0495                     	;# 
  3016  0495                     	;# 
  3017  0496                     	;# 
  3018  0497                     	;# 
  3019  0498                     	;# 
  3020  0499                     	;# 
  3021  049A                     	;# 
  3022  049B                     	;# 
  3023  049C                     	;# 
  3024  049D                     	;# 
  3025  058C                     	;# 
  3026  058C                     	;# 
  3027  058D                     	;# 
  3028  058E                     	;# 
  3029  058F                     	;# 
  3030  058F                     	;# 
  3031  0590                     	;# 
  3032  0591                     	;# 
  3033  0592                     	;# 
  3034  0593                     	;# 
  3035  059C                     	;# 
  3036  059C                     	;# 
  3037  059D                     	;# 
  3038  059D                     	;# 
  3039  059E                     	;# 
  3040  059F                     	;# 
  3041  060C                     	;# 
  3042  060C                     	;# 
  3043  060D                     	;# 
  3044  060D                     	;# 
  3045  060E                     	;# 
  3046  060F                     	;# 
  3047  0610                     	;# 
  3048  0611                     	;# 
  3049  0612                     	;# 
  3050  0613                     	;# 
  3051  0614                     	;# 
  3052  0616                     	;# 
  3053  0616                     	;# 
  3054  0617                     	;# 
  3055  0617                     	;# 
  3056  0618                     	;# 
  3057  0619                     	;# 
  3058  061A                     	;# 
  3059  061B                     	;# 
  3060  061C                     	;# 
  3061  061D                     	;# 
  3062  061E                     	;# 
  3063  070C                     	;# 
  3064  070D                     	;# 
  3065  070E                     	;# 
  3066  070F                     	;# 
  3067  0710                     	;# 
  3068  0711                     	;# 
  3069  0712                     	;# 
  3070  0713                     	;# 
  3071  0714                     	;# 
  3072  0716                     	;# 
  3073  0717                     	;# 
  3074  0718                     	;# 
  3075  0719                     	;# 
  3076  071A                     	;# 
  3077  071B                     	;# 
  3078  071C                     	;# 
  3079  071D                     	;# 
  3080  071E                     	;# 
  3081  0796                     	;# 
  3082  0797                     	;# 
  3083  0798                     	;# 
  3084  0799                     	;# 
  3085  079A                     	;# 
  3086  079B                     	;# 
  3087  079C                     	;# 
  3088  079D                     	;# 
  3089  080C                     	;# 
  3090  080D                     	;# 
  3091  080E                     	;# 
  3092  080F                     	;# 
  3093  0810                     	;# 
  3094  0811                     	;# 
  3095  0812                     	;# 
  3096  0813                     	;# 
  3097  0814                     	;# 
  3098  081A                     	;# 
  3099  081A                     	;# 
  3100  081B                     	;# 
  3101  081C                     	;# 
  3102  081C                     	;# 
  3103  081D                     	;# 
  3104  081E                     	;# 
  3105  081F                     	;# 
  3106  088C                     	;# 
  3107  088D                     	;# 
  3108  088E                     	;# 
  3109  088F                     	;# 
  3110  0890                     	;# 
  3111  0891                     	;# 
  3112  0892                     	;# 
  3113  0893                     	;# 
  3114  0895                     	;# 
  3115  0896                     	;# 
  3116  0897                     	;# 
  3117  0898                     	;# 
  3118  0899                     	;# 
  3119  089A                     	;# 
  3120  089B                     	;# 
  3121  090C                     	;# 
  3122  090E                     	;# 
  3123  090F                     	;# 
  3124  091F                     	;# 
  3125  098F                     	;# 
  3126  098F                     	;# 
  3127  0990                     	;# 
  3128  0991                     	;# 
  3129  0992                     	;# 
  3130  0993                     	;# 
  3131  0994                     	;# 
  3132  0995                     	;# 
  3133  0996                     	;# 
  3134  0997                     	;# 
  3135  1E0F                     	;# 
  3136  1E10                     	;# 
  3137  1E11                     	;# 
  3138  1E12                     	;# 
  3139  1E13                     	;# 
  3140  1E14                     	;# 
  3141  1E15                     	;# 
  3142  1E16                     	;# 
  3143  1E17                     	;# 
  3144  1E18                     	;# 
  3145  1E19                     	;# 
  3146  1E1A                     	;# 
  3147  1E1B                     	;# 
  3148  1E1C                     	;# 
  3149  1E1D                     	;# 
  3150  1E1E                     	;# 
  3151  1E1F                     	;# 
  3152  1E20                     	;# 
  3153  1E21                     	;# 
  3154  1E22                     	;# 
  3155  1E23                     	;# 
  3156  1E24                     	;# 
  3157  1E25                     	;# 
  3158  1E26                     	;# 
  3159  1E27                     	;# 
  3160  1E28                     	;# 
  3161  1E29                     	;# 
  3162  1E2A                     	;# 
  3163  1E2B                     	;# 
  3164  1E2C                     	;# 
  3165  1E2D                     	;# 
  3166  1E2E                     	;# 
  3167  1E2F                     	;# 
  3168  1E30                     	;# 
  3169  1E31                     	;# 
  3170  1E32                     	;# 
  3171  1E33                     	;# 
  3172  1E34                     	;# 
  3173  1E35                     	;# 
  3174  1E36                     	;# 
  3175  1E37                     	;# 
  3176  1E8F                     	;# 
  3177  1E90                     	;# 
  3178  1E91                     	;# 
  3179  1E92                     	;# 
  3180  1E93                     	;# 
  3181  1E94                     	;# 
  3182  1E95                     	;# 
  3183  1E96                     	;# 
  3184  1E97                     	;# 
  3185  1E9C                     	;# 
  3186  1E9D                     	;# 
  3187  1E9E                     	;# 
  3188  1EA1                     	;# 
  3189  1EA2                     	;# 
  3190  1EA3                     	;# 
  3191  1EA4                     	;# 
  3192  1EA9                     	;# 
  3193  1EAA                     	;# 
  3194  1EB1                     	;# 
  3195  1EB2                     	;# 
  3196  1EB8                     	;# 
  3197  1EB9                     	;# 
  3198  1EBA                     	;# 
  3199  1EBB                     	;# 
  3200  1EBC                     	;# 
  3201  1EBD                     	;# 
  3202  1EBE                     	;# 
  3203  1EC3                     	;# 
  3204  1EC5                     	;# 
  3205  1EC6                     	;# 
  3206  1EC7                     	;# 
  3207  1EC8                     	;# 
  3208  1EC9                     	;# 
  3209  1ECA                     	;# 
  3210  1ECB                     	;# 
  3211  1ECB                     	;# 
  3212  1ECB                     	;# 
  3213  1ECC                     	;# 
  3214  1ECC                     	;# 
  3215  1ECC                     	;# 
  3216  1F10                     	;# 
  3217  1F11                     	;# 
  3218  1F12                     	;# 
  3219  1F14                     	;# 
  3220  1F15                     	;# 
  3221  1F1C                     	;# 
  3222  1F1D                     	;# 
  3223  1F1E                     	;# 
  3224  1F1F                     	;# 
  3225  1F20                     	;# 
  3226  1F21                     	;# 
  3227  1F22                     	;# 
  3228  1F23                     	;# 
  3229  1F24                     	;# 
  3230  1F25                     	;# 
  3231  1F26                     	;# 
  3232  1F27                     	;# 
  3233  1F38                     	;# 
  3234  1F39                     	;# 
  3235  1F3A                     	;# 
  3236  1F3B                     	;# 
  3237  1F3C                     	;# 
  3238  1F3D                     	;# 
  3239  1F3E                     	;# 
  3240  1F3F                     	;# 
  3241  1F43                     	;# 
  3242  1F44                     	;# 
  3243  1F45                     	;# 
  3244  1F46                     	;# 
  3245  1F47                     	;# 
  3246  1F48                     	;# 
  3247  1F49                     	;# 
  3248  1F4A                     	;# 
  3249  1F4E                     	;# 
  3250  1F4F                     	;# 
  3251  1F50                     	;# 
  3252  1F51                     	;# 
  3253  1F52                     	;# 
  3254  1F53                     	;# 
  3255  1F54                     	;# 
  3256  1F55                     	;# 
  3257  1FE4                     	;# 
  3258  1FE5                     	;# 
  3259  1FE6                     	;# 
  3260  1FE7                     	;# 
  3261  1FE8                     	;# 
  3262  1FE8                     	;# 
  3263  1FE9                     	;# 
  3264  1FEA                     	;# 
  3265  1FEB                     	;# 
  3266  1FED                     	;# 
  3267  1FEE                     	;# 
  3268  1FEF                     	;# 
  3269  0000                     	;# 
  3270  0001                     	;# 
  3271  0002                     	;# 
  3272  0003                     	;# 
  3273  0004                     	;# 
  3274  0005                     	;# 
  3275  0006                     	;# 
  3276  0007                     	;# 
  3277  0008                     	;# 
  3278  0009                     	;# 
  3279  000A                     	;# 
  3280  000B                     	;# 
  3281  000C                     	;# 
  3282  000D                     	;# 
  3283  000E                     	;# 
  3284  0012                     	;# 
  3285  0013                     	;# 
  3286  0014                     	;# 
  3287  0018                     	;# 
  3288  0019                     	;# 
  3289  001A                     	;# 
  3290  008C                     	;# 
  3291  008C                     	;# 
  3292  008D                     	;# 
  3293  008E                     	;# 
  3294  008E                     	;# 
  3295  008F                     	;# 
  3296  0090                     	;# 
  3297  0090                     	;# 
  3298  0091                     	;# 
  3299  0092                     	;# 
  3300  0092                     	;# 
  3301  0093                     	;# 
  3302  0094                     	;# 
  3303  0094                     	;# 
  3304  0095                     	;# 
  3305  0096                     	;# 
  3306  0096                     	;# 
  3307  0097                     	;# 
  3308  0098                     	;# 
  3309  0099                     	;# 
  3310  009A                     	;# 
  3311  009B                     	;# 
  3312  009B                     	;# 
  3313  009C                     	;# 
  3314  009D                     	;# 
  3315  009D                     	;# 
  3316  009E                     	;# 
  3317  009F                     	;# 
  3318  010C                     	;# 
  3319  010C                     	;# 
  3320  010D                     	;# 
  3321  010E                     	;# 
  3322  010F                     	;# 
  3323  010F                     	;# 
  3324  0110                     	;# 
  3325  0111                     	;# 
  3326  0112                     	;# 
  3327  0113                     	;# 
  3328  0114                     	;# 
  3329  0115                     	;# 
  3330  0116                     	;# 
  3331  0117                     	;# 
  3332  0118                     	;# 
  3333  0119                     	;# 
  3334  0119                     	;# 
  3335  0119                     	;# 
  3336  011A                     	;# 
  3337  011A                     	;# 
  3338  011A                     	;# 
  3339  011B                     	;# 
  3340  011B                     	;# 
  3341  011B                     	;# 
  3342  011B                     	;# 
  3343  011B                     	;# 
  3344  011C                     	;# 
  3345  011C                     	;# 
  3346  011C                     	;# 
  3347  011D                     	;# 
  3348  011D                     	;# 
  3349  011D                     	;# 
  3350  011E                     	;# 
  3351  011E                     	;# 
  3352  011E                     	;# 
  3353  011F                     	;# 
  3354  011F                     	;# 
  3355  011F                     	;# 
  3356  011F                     	;# 
  3357  011F                     	;# 
  3358  018C                     	;# 
  3359  018D                     	;# 
  3360  018E                     	;# 
  3361  018F                     	;# 
  3362  0190                     	;# 
  3363  0191                     	;# 
  3364  0192                     	;# 
  3365  0196                     	;# 
  3366  0197                     	;# 
  3367  0198                     	;# 
  3368  0199                     	;# 
  3369  019A                     	;# 
  3370  019B                     	;# 
  3371  019C                     	;# 
  3372  020C                     	;# 
  3373  020D                     	;# 
  3374  020E                     	;# 
  3375  020E                     	;# 
  3376  020F                     	;# 
  3377  020F                     	;# 
  3378  0210                     	;# 
  3379  0210                     	;# 
  3380  0211                     	;# 
  3381  0211                     	;# 
  3382  0212                     	;# 
  3383  0213                     	;# 
  3384  0214                     	;# 
  3385  0214                     	;# 
  3386  0215                     	;# 
  3387  0215                     	;# 
  3388  0216                     	;# 
  3389  0216                     	;# 
  3390  0217                     	;# 
  3391  0217                     	;# 
  3392  0218                     	;# 
  3393  0219                     	;# 
  3394  021A                     	;# 
  3395  021A                     	;# 
  3396  021B                     	;# 
  3397  021B                     	;# 
  3398  021C                     	;# 
  3399  021C                     	;# 
  3400  021D                     	;# 
  3401  021D                     	;# 
  3402  021E                     	;# 
  3403  021F                     	;# 
  3404  028C                     	;# 
  3405  028C                     	;# 
  3406  028D                     	;# 
  3407  028D                     	;# 
  3408  028E                     	;# 
  3409  028F                     	;# 
  3410  0290                     	;# 
  3411  0291                     	;# 
  3412  0292                     	;# 
  3413  0292                     	;# 
  3414  0293                     	;# 
  3415  0293                     	;# 
  3416  0294                     	;# 
  3417  0295                     	;# 
  3418  0296                     	;# 
  3419  0297                     	;# 
  3420  0298                     	;# 
  3421  0298                     	;# 
  3422  0299                     	;# 
  3423  0299                     	;# 
  3424  029A                     	;# 
  3425  029B                     	;# 
  3426  029C                     	;# 
  3427  029D                     	;# 
  3428  029F                     	;# 
  3429  030C                     	;# 
  3430  030C                     	;# 
  3431  030D                     	;# 
  3432  030E                     	;# 
  3433  030F                     	;# 
  3434  0310                     	;# 
  3435  0310                     	;# 
  3436  0311                     	;# 
  3437  0312                     	;# 
  3438  0313                     	;# 
  3439  0314                     	;# 
  3440  0314                     	;# 
  3441  0315                     	;# 
  3442  0316                     	;# 
  3443  0317                     	;# 
  3444  0318                     	;# 
  3445  0318                     	;# 
  3446  0319                     	;# 
  3447  031A                     	;# 
  3448  031B                     	;# 
  3449  038C                     	;# 
  3450  038C                     	;# 
  3451  038D                     	;# 
  3452  038E                     	;# 
  3453  0390                     	;# 
  3454  0390                     	;# 
  3455  0391                     	;# 
  3456  0392                     	;# 
  3457  048C                     	;# 
  3458  048C                     	;# 
  3459  048D                     	;# 
  3460  048E                     	;# 
  3461  048F                     	;# 
  3462  048F                     	;# 
  3463  0490                     	;# 
  3464  0491                     	;# 
  3465  0492                     	;# 
  3466  0492                     	;# 
  3467  0493                     	;# 
  3468  0494                     	;# 
  3469  0495                     	;# 
  3470  0495                     	;# 
  3471  0496                     	;# 
  3472  0497                     	;# 
  3473  0498                     	;# 
  3474  0499                     	;# 
  3475  049A                     	;# 
  3476  049B                     	;# 
  3477  049C                     	;# 
  3478  049D                     	;# 
  3479  058C                     	;# 
  3480  058C                     	;# 
  3481  058D                     	;# 
  3482  058E                     	;# 
  3483  058F                     	;# 
  3484  058F                     	;# 
  3485  0590                     	;# 
  3486  0591                     	;# 
  3487  0592                     	;# 
  3488  0593                     	;# 
  3489  059C                     	;# 
  3490  059C                     	;# 
  3491  059D                     	;# 
  3492  059D                     	;# 
  3493  059E                     	;# 
  3494  059F                     	;# 
  3495  060C                     	;# 
  3496  060C                     	;# 
  3497  060D                     	;# 
  3498  060D                     	;# 
  3499  060E                     	;# 
  3500  060F                     	;# 
  3501  0610                     	;# 
  3502  0611                     	;# 
  3503  0612                     	;# 
  3504  0613                     	;# 
  3505  0614                     	;# 
  3506  0616                     	;# 
  3507  0616                     	;# 
  3508  0617                     	;# 
  3509  0617                     	;# 
  3510  0618                     	;# 
  3511  0619                     	;# 
  3512  061A                     	;# 
  3513  061B                     	;# 
  3514  061C                     	;# 
  3515  061D                     	;# 
  3516  061E                     	;# 
  3517  070C                     	;# 
  3518  070D                     	;# 
  3519  070E                     	;# 
  3520  070F                     	;# 
  3521  0710                     	;# 
  3522  0711                     	;# 
  3523  0712                     	;# 
  3524  0713                     	;# 
  3525  0714                     	;# 
  3526  0716                     	;# 
  3527  0717                     	;# 
  3528  0718                     	;# 
  3529  0719                     	;# 
  3530  071A                     	;# 
  3531  071B                     	;# 
  3532  071C                     	;# 
  3533  071D                     	;# 
  3534  071E                     	;# 
  3535  0796                     	;# 
  3536  0797                     	;# 
  3537  0798                     	;# 
  3538  0799                     	;# 
  3539  079A                     	;# 
  3540  079B                     	;# 
  3541  079C                     	;# 
  3542  079D                     	;# 
  3543  080C                     	;# 
  3544  080D                     	;# 
  3545  080E                     	;# 
  3546  080F                     	;# 
  3547  0810                     	;# 
  3548  0811                     	;# 
  3549  0812                     	;# 
  3550  0813                     	;# 
  3551  0814                     	;# 
  3552  081A                     	;# 
  3553  081A                     	;# 
  3554  081B                     	;# 
  3555  081C                     	;# 
  3556  081C                     	;# 
  3557  081D                     	;# 
  3558  081E                     	;# 
  3559  081F                     	;# 
  3560  088C                     	;# 
  3561  088D                     	;# 
  3562  088E                     	;# 
  3563  088F                     	;# 
  3564  0890                     	;# 
  3565  0891                     	;# 
  3566  0892                     	;# 
  3567  0893                     	;# 
  3568  0895                     	;# 
  3569  0896                     	;# 
  3570  0897                     	;# 
  3571  0898                     	;# 
  3572  0899                     	;# 
  3573  089A                     	;# 
  3574  089B                     	;# 
  3575  090C                     	;# 
  3576  090E                     	;# 
  3577  090F                     	;# 
  3578  091F                     	;# 
  3579  098F                     	;# 
  3580  098F                     	;# 
  3581  0990                     	;# 
  3582  0991                     	;# 
  3583  0992                     	;# 
  3584  0993                     	;# 
  3585  0994                     	;# 
  3586  0995                     	;# 
  3587  0996                     	;# 
  3588  0997                     	;# 
  3589  1E0F                     	;# 
  3590  1E10                     	;# 
  3591  1E11                     	;# 
  3592  1E12                     	;# 
  3593  1E13                     	;# 
  3594  1E14                     	;# 
  3595  1E15                     	;# 
  3596  1E16                     	;# 
  3597  1E17                     	;# 
  3598  1E18                     	;# 
  3599  1E19                     	;# 
  3600  1E1A                     	;# 
  3601  1E1B                     	;# 
  3602  1E1C                     	;# 
  3603  1E1D                     	;# 
  3604  1E1E                     	;# 
  3605  1E1F                     	;# 
  3606  1E20                     	;# 
  3607  1E21                     	;# 
  3608  1E22                     	;# 
  3609  1E23                     	;# 
  3610  1E24                     	;# 
  3611  1E25                     	;# 
  3612  1E26                     	;# 
  3613  1E27                     	;# 
  3614  1E28                     	;# 
  3615  1E29                     	;# 
  3616  1E2A                     	;# 
  3617  1E2B                     	;# 
  3618  1E2C                     	;# 
  3619  1E2D                     	;# 
  3620  1E2E                     	;# 
  3621  1E2F                     	;# 
  3622  1E30                     	;# 
  3623  1E31                     	;# 
  3624  1E32                     	;# 
  3625  1E33                     	;# 
  3626  1E34                     	;# 
  3627  1E35                     	;# 
  3628  1E36                     	;# 
  3629  1E37                     	;# 
  3630  1E8F                     	;# 
  3631  1E90                     	;# 
  3632  1E91                     	;# 
  3633  1E92                     	;# 
  3634  1E93                     	;# 
  3635  1E94                     	;# 
  3636  1E95                     	;# 
  3637  1E96                     	;# 
  3638  1E97                     	;# 
  3639  1E9C                     	;# 
  3640  1E9D                     	;# 
  3641  1E9E                     	;# 
  3642  1EA1                     	;# 
  3643  1EA2                     	;# 
  3644  1EA3                     	;# 
  3645  1EA4                     	;# 
  3646  1EA9                     	;# 
  3647  1EAA                     	;# 
  3648  1EB1                     	;# 
  3649  1EB2                     	;# 
  3650  1EB8                     	;# 
  3651  1EB9                     	;# 
  3652  1EBA                     	;# 
  3653  1EBB                     	;# 
  3654  1EBC                     	;# 
  3655  1EBD                     	;# 
  3656  1EBE                     	;# 
  3657  1EC3                     	;# 
  3658  1EC5                     	;# 
  3659  1EC6                     	;# 
  3660  1EC7                     	;# 
  3661  1EC8                     	;# 
  3662  1EC9                     	;# 
  3663  1ECA                     	;# 
  3664  1ECB                     	;# 
  3665  1ECB                     	;# 
  3666  1ECB                     	;# 
  3667  1ECC                     	;# 
  3668  1ECC                     	;# 
  3669  1ECC                     	;# 
  3670  1F10                     	;# 
  3671  1F11                     	;# 
  3672  1F12                     	;# 
  3673  1F14                     	;# 
  3674  1F15                     	;# 
  3675  1F1C                     	;# 
  3676  1F1D                     	;# 
  3677  1F1E                     	;# 
  3678  1F1F                     	;# 
  3679  1F20                     	;# 
  3680  1F21                     	;# 
  3681  1F22                     	;# 
  3682  1F23                     	;# 
  3683  1F24                     	;# 
  3684  1F25                     	;# 
  3685  1F26                     	;# 
  3686  1F27                     	;# 
  3687  1F38                     	;# 
  3688  1F39                     	;# 
  3689  1F3A                     	;# 
  3690  1F3B                     	;# 
  3691  1F3C                     	;# 
  3692  1F3D                     	;# 
  3693  1F3E                     	;# 
  3694  1F3F                     	;# 
  3695  1F43                     	;# 
  3696  1F44                     	;# 
  3697  1F45                     	;# 
  3698  1F46                     	;# 
  3699  1F47                     	;# 
  3700  1F48                     	;# 
  3701  1F49                     	;# 
  3702  1F4A                     	;# 
  3703  1F4E                     	;# 
  3704  1F4F                     	;# 
  3705  1F50                     	;# 
  3706  1F51                     	;# 
  3707  1F52                     	;# 
  3708  1F53                     	;# 
  3709  1F54                     	;# 
  3710  1F55                     	;# 
  3711  1FE4                     	;# 
  3712  1FE5                     	;# 
  3713  1FE6                     	;# 
  3714  1FE7                     	;# 
  3715  1FE8                     	;# 
  3716  1FE8                     	;# 
  3717  1FE9                     	;# 
  3718  1FEA                     	;# 
  3719  1FEB                     	;# 
  3720  1FED                     	;# 
  3721  1FEE                     	;# 
  3722  1FEF                     	;# 
  3723                           
  3724                           	psect	idataCOMMON
  3725  0003                     __pidataCOMMON:
  3726                           
  3727                           ;initializer for _I2C1_slaveWriteData
  3728  0003  3455               	retlw	85
  3729                           
  3730                           	psect	idataBANK1
  3731  0F8E                     __pidataBANK1:
  3732                           
  3733                           ;initializer for _sensorAPI
  3734  0F8E  347E               	retlw	low _Power_Init
  3735  0F8F  3407               	retlw	high _Power_Init
  3736  0F90  345E               	retlw	low _Power_Measure
  3737  0F91  340F               	retlw	high _Power_Measure
  3738  0F92  34A6               	retlw	low _Power_Loop
  3739  0F93  3405               	retlw	high _Power_Loop
  3740  0F94  34AC               	retlw	low _Power_GetData
  3741  0F95  3406               	retlw	high _Power_GetData
  3742  0F96  34DE               	retlw	low _Power_SetThreshold
  3743  0F97  3401               	retlw	high _Power_SetThreshold
  3744                           
  3745                           ;initializer for _SensorInterruptHandler
  3746  0F98  3402               	retlw	low _DefaultSensorInterruptHandler
  3747  0F99  3400               	retlw	high _DefaultSensorInterruptHandler
  3748  0003                     _STATUSbits	set	3
  3749  0018                     _LATAbits	set	24
  3750  0012                     _TRISAbits	set	18
  3751  0014                     _TRISCbits	set	20
  3752  001A                     _LATCbits	set	26
  3753  0019                     _LATBbits	set	25
  3754  001A                     _LATC	set	26
  3755  0019                     _LATB	set	25
  3756  0018                     _LATA	set	24
  3757  0014                     _TRISC	set	20
  3758  0013                     _TRISB	set	19
  3759  0012                     _TRISA	set	18
  3760  000B                     _INTCONbits	set	11
  3761  0013                     _TRISBbits	set	19
  3762  0090                     _ADERRL	set	144
  3763  0091                     _ADERRH	set	145
  3764  009B                     _ADPREVL	set	155
  3765  009C                     _ADPREVH	set	156
  3766  0094                     _ADFLTRL	set	148
  3767  0095                     _ADFLTRH	set	149
  3768  0096                     _ADACCL	set	150
  3769  0097                     _ADACCH	set	151
  3770  0099                     _ADCNT	set	153
  3771  009D                     _ADRESL	set	157
  3772  009E                     _ADRESH	set	158
  3773  009F                     _ADPCH	set	159
  3774  009A                     _ADRPT	set	154
  3775  0098                     _ADACCU	set	152
  3776  0093                     _ADSTPTH	set	147
  3777  0092                     _ADSTPTL	set	146
  3778  008F                     _ADUTHH	set	143
  3779  008E                     _ADUTHL	set	142
  3780  008D                     _ADLTHH	set	141
  3781  008C                     _ADLTHL	set	140
  3782  0112                     _ADCON1bits	set	274
  3783  0115                     _ADSTATbits	set	277
  3784  0113                     _ADCON2bits	set	275
  3785  0114                     _ADCON3bits	set	276
  3786  0111                     _ADCON0bits	set	273
  3787  0111                     _ADCON0	set	273
  3788  0118                     _ADCLK	set	280
  3789  0117                     _ADACT	set	279
  3790  0116                     _ADREF	set	278
  3791  0115                     _ADSTAT	set	277
  3792  0114                     _ADCON3	set	276
  3793  0113                     _ADCON2	set	275
  3794  0112                     _ADCON1	set	274
  3795  0110                     _ADPREH	set	272
  3796  010F                     _ADPREL	set	271
  3797  010E                     _ADCAP	set	270
  3798  010D                     _ADACQH	set	269
  3799  010C                     _ADACQL	set	268
  3800  0196                     _SSP2BUF	set	406
  3801  019B                     _SSP2CON2bits	set	411
  3802  019A                     _SSP2CON1bits	set	410
  3803  0197                     _SSP2ADD	set	407
  3804  019C                     _SSP2CON3	set	412
  3805  019A                     _SSP2CON1	set	410
  3806  0199                     _SSP2STAT	set	409
  3807  0190                     _SSP1CON1bits	set	400
  3808  0191                     _SSP1CON2bits	set	401
  3809  018F                     _SSP1STATbits	set	399
  3810  018C                     _SSP1BUF	set	396
  3811  018D                     _SSP1ADD	set	397
  3812  018E                     _SSP1MSK	set	398
  3813  0192                     _SSP1CON3bits	set	402
  3814  0192                     _SSP1CON3	set	402
  3815  0191                     _SSP1CON2	set	401
  3816  0190                     _SSP1CON1	set	400
  3817  018F                     _SSP1STAT	set	399
  3818  070D                     _PIR1bits	set	1805
  3819  0717                     _PIE1bits	set	1815
  3820  0719                     _PIE3bits	set	1817
  3821  070F                     _PIR3bits	set	1807
  3822  0799                     _PMD3bits	set	1945
  3823  079D                     _PMD7	set	1949
  3824  079C                     _PMD6	set	1948
  3825  079B                     _PMD5	set	1947
  3826  079A                     _PMD4	set	1946
  3827  0799                     _PMD3	set	1945
  3828  0798                     _PMD2	set	1944
  3829  0797                     _PMD1	set	1943
  3830  0796                     _PMD0bits	set	1942
  3831  0796                     _PMD0	set	1942
  3832  079C                     _PMD6bits	set	1948
  3833  080C                     _WDTCON0bits	set	2060
  3834  080D                     _WDTCON1	set	2061
  3835  080C                     _WDTCON0	set	2060
  3836  0812                     _VREGCONbits	set	2066
  3837  088C                     _CPUDOZEbits	set	2188
  3838  0893                     _OSCFRQ	set	2195
  3839  088D                     _OSCCON1	set	2189
  3840  090C                     _FVRCON	set	2316
  3841  1EC8                     _SSP2CLKPPS	set	7880
  3842  1EC9                     _SSP2DATPPS	set	7881
  3843  1EC6                     _SSP1DATPPS	set	7878
  3844  1EC5                     _SSP1CLKPPS	set	7877
  3845  1F38                     _ANSELAbits	set	7992
  3846  1F4E                     _ANSELCbits	set	8014
  3847  1F1C                     _RB4PPS	set	7964
  3848  1F1E                     _RB6PPS	set	7966
  3849  1F47                     _INLVLB	set	8007
  3850  1F4E                     _ANSELC	set	8014
  3851  1F43                     _ANSELB	set	8003
  3852  1F38                     _ANSELA	set	7992
  3853  1F1D                     _RB5PPS	set	7965
  3854  1F1F                     _RB7PPS	set	7967
  3855  1F43                     _ANSELBbits	set	8003
  3856                           
  3857                           	psect	cinit
  3858  0045                     start_initialization:	
  3859                           ; #config settings
  3860                           
  3861  0045                     __initialization:
  3862                           
  3863                           ; Initialize objects allocated to COMMON
  3864  0045  3180  2003  3180   	fcall	__pidataCOMMON	;fetch initializer
  3865  0048  00FB               	movwf	__pdataCOMMON& (0+127)
  3866                           
  3867                           ; Initialize objects allocated to BANK1
  3868  0049  308E               	movlw	low __pidataBANK1
  3869  004A  0084               	movwf	4
  3870  004B  308F               	movlw	(high __pidataBANK1)| (0+128)
  3871  004C  0085               	movwf	5
  3872  004D  30E2               	movlw	low __pdataBANK1
  3873  004E  0086               	movwf	6
  3874  004F  3000               	movlw	high __pdataBANK1
  3875  0050  0087               	movwf	7
  3876  0051  300C               	movlw	12
  3877  0052  318F  2774  3180   	fcall	init_ram
  3878                           
  3879                           ; Clear objects allocated to COMMON
  3880  0055  01F6               	clrf	__pbssCOMMON& (0+127)
  3881  0056  01F7               	clrf	(__pbssCOMMON+1)& (0+127)
  3882  0057  01F8               	clrf	(__pbssCOMMON+2)& (0+127)
  3883  0058  01F9               	clrf	(__pbssCOMMON+3)& (0+127)
  3884  0059  01FA               	clrf	(__pbssCOMMON+4)& (0+127)
  3885                           
  3886                           ; Clear objects allocated to BANK0
  3887  005A  3045               	movlw	low __pbssBANK0
  3888  005B  0084               	movwf	4
  3889  005C  3000               	movlw	high __pbssBANK0
  3890  005D  0085               	movwf	5
  3891  005E  3012               	movlw	18
  3892  005F  318F  276E  3180   	fcall	clear_ram0
  3893                           
  3894                           ; Clear objects allocated to BANK1
  3895  0062  30A0               	movlw	low __pbssBANK1
  3896  0063  0084               	movwf	4
  3897  0064  3000               	movlw	high __pbssBANK1
  3898  0065  0085               	movwf	5
  3899  0066  3042               	movlw	66
  3900  0067  318F  276E  3180   	fcall	clear_ram0
  3901                           
  3902                           ; Clear objects allocated to BANK2
  3903  006A  3020               	movlw	low __pbssBANK2
  3904  006B  0084               	movwf	4
  3905  006C  3001               	movlw	high __pbssBANK2
  3906  006D  0085               	movwf	5
  3907  006E  3040               	movlw	64
  3908  006F  318F  276E  3180   	fcall	clear_ram0
  3909  0072                     end_of_initialization:	
  3910                           ;End of C runtime variable initialization code
  3911                           
  3912  0072                     __end_of__initialization:
  3913  0072  107E               	bcf	int$flags,0	;clear compiler interrupt flag (level 1)
  3914  0073  0140               	movlb	0
  3915  0074  3182  2AFA         	ljmp	_main	;jump to C main() function
  3916                           
  3917                           	psect	bssCOMMON
  3918  0076                     __pbssCOMMON:
  3919  0076                     _p_i2c2_trb_current:
  3920  0076                     	ds	1
  3921  0077                     _txCnt:
  3922  0077                     	ds	1
  3923  0078                     _rxLen:
  3924  0078                     	ds	1
  3925  0079                     I2C2_ISR@i2c_address:
  3926  0079                     	ds	2
  3927                           
  3928                           	psect	dataCOMMON
  3929  007B                     __pdataCOMMON:
  3930  007B                     _I2C1_slaveWriteData:
  3931  007B                     	ds	1
  3932                           
  3933                           	psect	bssBANK0
  3934  0045                     __pbssBANK0:
  3935  0045                     _i2c2_object:
  3936  0045                     	ds	5
  3937  004A                     _ldrThresholdEnabled:
  3938  004A                     	ds	1
  3939  004B                     _batThresholdEnabled:
  3940  004B                     	ds	1
  3941  004C                     I2C2_ISR@i2c_10bit_address_restart:
  3942  004C                     	ds	1
  3943  004D                     I2C2_ISR@i2c_bytes_left:
  3944  004D                     	ds	1
  3945  004E                     I2C2_ISR@pi2c_buf_ptr:
  3946  004E                     	ds	1
  3947  004F                     _p_i2c2_current:
  3948  004F                     	ds	1
  3949  0050                     _i2c2_trb_count:
  3950  0050                     	ds	1
  3951  0051                     _i2c2_state:
  3952  0051                     	ds	1
  3953  0052                     I2C1_StatusCallback@slaveWriteType:
  3954  0052                     	ds	1
  3955  0053                     _txLen:
  3956  0053                     	ds	1
  3957  0054                     _cmdReceived:
  3958  0054                     	ds	1
  3959  0055                     _cmdByte:
  3960  0055                     	ds	1
  3961  0056                     _mDataLength:
  3962  0056                     	ds	1
  3963                           
  3964                           	psect	bssBANK1
  3965  00A0                     __pbssBANK1:
  3966  00A0                     _measurementData:
  3967  00A0                     	ds	4
  3968  00A4                     _lux:
  3969  00A4                     	ds	3
  3970  00A7                     _LDR:
  3971  00A7                     	ds	3
  3972  00AA                     _floatbatvoltage:
  3973  00AA                     	ds	3
  3974  00AD                     _floatldrvoltage:
  3975  00AD                     	ds	3
  3976  00B0                     _floatLDRThresholdLevelLow:
  3977  00B0                     	ds	3
  3978  00B3                     _floatLDRThresholdLevelHigh:
  3979  00B3                     	ds	3
  3980  00B6                     _floatBatThresholdLevelLow:
  3981  00B6                     	ds	3
  3982  00B9                     _floatBatThresholdLevelHigh:
  3983  00B9                     	ds	3
  3984  00BC                     _batvoltage:
  3985  00BC                     	ds	2
  3986  00BE                     _tempValue:
  3987  00BE                     	ds	2
  3988  00C0                     _ldrvoltage:
  3989  00C0                     	ds	2
  3990  00C2                     _ldrThresholdLevelLow:
  3991  00C2                     	ds	2
  3992  00C4                     _ldrThresholdLevelHigh:
  3993  00C4                     	ds	2
  3994  00C6                     _batThresholdLevelLow:
  3995  00C6                     	ds	2
  3996  00C8                     _batThresholdLevelHigh:
  3997  00C8                     	ds	2
  3998  00CA                     _ADCC_ADI_InterruptHandler:
  3999  00CA                     	ds	2
  4000  00CC                     _batteryundervoltage:
  4001  00CC                     	ds	1
  4002  00CD                     _measurementRunning:
  4003  00CD                     	ds	1
  4004  00CE                     _startMeasurement:
  4005  00CE                     	ds	1
  4006  00CF                     _underThresholdLDR:
  4007  00CF                     	ds	1
  4008  00D0                     _overThresholdLDR:
  4009  00D0                     	ds	1
  4010  00D1                     _underThresholdBatt:
  4011  00D1                     	ds	1
  4012  00D2                     _overThresholdBatt:
  4013  00D2                     	ds	1
  4014  00D3                     _mData:
  4015  00D3                     	ds	4
  4016  00D7                     I2C2_MasterRead@trBlock:
  4017  00D7                     	ds	4
  4018  00DB                     I2C2_MasterWrite@trBlock:
  4019  00DB                     	ds	4
  4020  00DF                     _i2c2_tr_queue:
  4021  00DF                     	ds	3
  4022                           
  4023                           	psect	dataBANK1
  4024  00E2                     __pdataBANK1:
  4025  00E2                     _sensorAPI:
  4026  00E2                     	ds	10
  4027  00EC                     _SensorInterruptHandler:
  4028  00EC                     	ds	2
  4029                           
  4030                           	psect	bssBANK2
  4031  0120                     __pbssBANK2:
  4032  0120                     _i2c1_tx_buffer:
  4033  0120                     	ds	32
  4034  0140                     _i2c1_rx_buffer:
  4035  0140                     	ds	32
  4036                           
  4037                           	psect	inittext
  4038  0F74                     init_ram:
  4039  0F74  00FE               	movwf	btemp
  4040  0F75                     initloop:
  4041  0F75  0012               	moviw fsr0++
  4042  0F76  001E               	movwi fsr1++
  4043  0F77  0BFE               	decfsz	btemp,f
  4044  0F78  2F75               	goto	initloop
  4045  0F79  3400               	retlw	0
  4046                           
  4047                           	psect	clrtext
  4048  0F6E                     clear_ram0:	
  4049                           ;	Called with FSR0 containing the base address, and
  4050                           ;	WREG with the size to clear
  4051                           
  4052  0F6E  0064               	clrwdt	;clear the watchdog before getting into this loop
  4053  0F6F                     clrloop0:
  4054  0F6F  0180               	clrf	0	;clear RAM location pointed to by FSR
  4055  0F70  3101               	addfsr 0,1
  4056  0F71  0B89               	decfsz	9,f	;Have we reached the end of clearing yet?
  4057  0F72  2F6F               	goto	clrloop0	;have we reached the end yet?
  4058  0F73  3400               	retlw	0	;all done for this memory range, return
  4059                           
  4060                           	psect	cstackBANK3
  4061  01A0                     __pcstackBANK3:
  4062  01A0                     main@data:
  4063                           
  4064                           ; 20 bytes @ 0x0
  4065  01A0                     	ds	20
  4066  01B4                     main@retries:
  4067                           
  4068                           ; 1 bytes @ 0x14
  4069  01B4                     	ds	1
  4070  01B5                     main@ack:
  4071                           
  4072                           ; 1 bytes @ 0x15
  4073  01B5                     	ds	1
  4074  01B6                     main@type:
  4075                           
  4076                           ; 1 bytes @ 0x16
  4077  01B6                     	ds	1
  4078  01B7                     main@mnr:
  4079                           
  4080                           ; 1 bytes @ 0x17
  4081  01B7                     	ds	1
  4082  01B8                     main@cmd:
  4083                           
  4084                           ; 1 bytes @ 0x18
  4085  01B8                     	ds	1
  4086  01B9                     main@len:
  4087                           
  4088                           ; 1 bytes @ 0x19
  4089  01B9                     	ds	1
  4090                           
  4091                           	psect	cstackCOMMON
  4092  0070                     __pcstackCOMMON:
  4093  0070                     ?_I2C1_StatusCallback:
  4094  0070                     ??_I2C1_StatusCallback:	
  4095                           ; 1 bytes @ 0x0
  4096                           
  4097  0070                     ?_DefaultSensorInterruptHandler:	
  4098                           ; 1 bytes @ 0x0
  4099                           
  4100  0070                     ??_DefaultSensorInterruptHandler:	
  4101                           ; 1 bytes @ 0x0
  4102                           
  4103  0070                     ?_ADCC_ISR:	
  4104                           ; 1 bytes @ 0x0
  4105                           
  4106  0070                     ??_ADCC_ISR:	
  4107                           ; 1 bytes @ 0x0
  4108                           
  4109  0070                     ?_I2C2_BusCollisionISR:	
  4110                           ; 1 bytes @ 0x0
  4111                           
  4112  0070                     ??_I2C2_BusCollisionISR:	
  4113                           ; 1 bytes @ 0x0
  4114                           
  4115  0070                     ?_I2C2_ISR:	
  4116                           ; 1 bytes @ 0x0
  4117                           
  4118  0070                     ?_PMD_Initialize:	
  4119                           ; 1 bytes @ 0x0
  4120                           
  4121  0070                     ?_OSCILLATOR_Initialize:	
  4122                           ; 1 bytes @ 0x0
  4123                           
  4124  0070                     ?_ADCC_DefaultInterruptHandler:	
  4125                           ; 1 bytes @ 0x0
  4126                           
  4127  0070                     ??_ADCC_DefaultInterruptHandler:	
  4128                           ; 1 bytes @ 0x0
  4129                           
  4130  0070                     ?_I2C2_Stop:	
  4131                           ; 1 bytes @ 0x0
  4132                           
  4133  0070                     ??_I2C2_Stop:	
  4134                           ; 1 bytes @ 0x0
  4135                           
  4136  0070                     ?_I2C2_FunctionComplete:	
  4137                           ; 1 bytes @ 0x0
  4138                           
  4139  0070                     ??_I2C2_FunctionComplete:	
  4140                           ; 1 bytes @ 0x0
  4141                           
  4142  0070                     ?_generateIntPower:	
  4143                           ; 1 bytes @ 0x0
  4144                           
  4145  0070                     ?_toggleInt:	
  4146                           ; 1 bytes @ 0x0
  4147                           
  4148  0070                     ?_I2C1_Initialize:	
  4149                           ; 1 bytes @ 0x0
  4150                           
  4151  0070                     ?_I2C1_ISR:	
  4152                           ; 1 bytes @ 0x0
  4153                           
  4154  0070                     ?_I2C1_CommandReceived:	
  4155                           ; 1 bytes @ 0x0
  4156                           
  4157  0070                     ?_I2C1_TxBufferEmpty:	
  4158                           ; 1 bytes @ 0x0
  4159                           
  4160  0070                     ?_I2C1_GetCommand:	
  4161                           ; 1 bytes @ 0x0
  4162                           
  4163  0070                     ?_Interrupt_Handler:	
  4164                           ; 1 bytes @ 0x0
  4165                           
  4166  0070                     ?_SYSTEM_Initialize:	
  4167                           ; 1 bytes @ 0x0
  4168                           
  4169  0070                     ?_LED_Blink:	
  4170                           ; 1 bytes @ 0x0
  4171                           
  4172  0070                     ?_WDT_Init:	
  4173                           ; 1 bytes @ 0x0
  4174                           
  4175  0070                     ?_ADC_Init:	
  4176                           ; 1 bytes @ 0x0
  4177                           
  4178  0070                     ?_Enter_sleep:	
  4179                           ; 1 bytes @ 0x0
  4180                           
  4181  0070                     ?_Power_Init:	
  4182                           ; 1 bytes @ 0x0
  4183                           
  4184  0070                     ?_Power_Measure:	
  4185                           ; 1 bytes @ 0x0
  4186                           
  4187  0070                     ?_Measure:	
  4188                           ; 1 bytes @ 0x0
  4189                           
  4190  0070                     ?_Power_Loop:	
  4191                           ; 1 bytes @ 0x0
  4192                           
  4193  0070                     ?_main:	
  4194                           ; 1 bytes @ 0x0
  4195                           
  4196                           
  4197                           ; 1 bytes @ 0x0
  4198  0070                     	ds	1
  4199  0071                     I2C1_StatusCallback@i2c_bus_state:
  4200  0071                     I2C2_Stop@completion_code:	
  4201                           ; 1 bytes @ 0x1
  4202                           
  4203                           
  4204                           ; 1 bytes @ 0x1
  4205  0071                     	ds	1
  4206  0072                     ??_I2C2_ISR:
  4207  0072                     ??_I2C1_ISR:	
  4208                           ; 1 bytes @ 0x2
  4209                           
  4210                           
  4211                           ; 1 bytes @ 0x2
  4212  0072                     	ds	1
  4213  0073                     I2C1_ISR@ctr:
  4214                           
  4215                           ; 1 bytes @ 0x3
  4216  0073                     	ds	1
  4217  0074                     I2C1_ISR@i2c_data:
  4218                           
  4219                           ; 1 bytes @ 0x4
  4220  0074                     	ds	2
  4221  0076                     ??_Interrupt_Handler:
  4222                           
  4223                           	psect	cstackBANK0
  4224  0020                     __pcstackBANK0:	
  4225                           ; 1 bytes @ 0x6
  4226                           
  4227  0020                     ??_PMD_Initialize:
  4228  0020                     ??_OSCILLATOR_Initialize:	
  4229                           ; 1 bytes @ 0x0
  4230                           
  4231  0020                     ??_generateIntPower:	
  4232                           ; 1 bytes @ 0x0
  4233                           
  4234  0020                     ??_toggleInt:	
  4235                           ; 1 bytes @ 0x0
  4236                           
  4237  0020                     ??_I2C1_Initialize:	
  4238                           ; 1 bytes @ 0x0
  4239                           
  4240  0020                     ??_I2C1_CommandReceived:	
  4241                           ; 1 bytes @ 0x0
  4242                           
  4243  0020                     ??_I2C1_TxBufferEmpty:	
  4244                           ; 1 bytes @ 0x0
  4245                           
  4246  0020                     ??_I2C1_GetCommand:	
  4247                           ; 1 bytes @ 0x0
  4248                           
  4249  0020                     ?_I2C1_GetCommandData:	
  4250                           ; 1 bytes @ 0x0
  4251                           
  4252  0020                     ?_I2C1_SetTransmitData:	
  4253                           ; 1 bytes @ 0x0
  4254                           
  4255  0020                     ??_LED_Blink:	
  4256                           ; 1 bytes @ 0x0
  4257                           
  4258  0020                     ??_WDT_Init:	
  4259                           ; 1 bytes @ 0x0
  4260                           
  4261  0020                     ??_ADC_Init:	
  4262                           ; 1 bytes @ 0x0
  4263                           
  4264  0020                     ??_Enter_sleep:	
  4265                           ; 1 bytes @ 0x0
  4266                           
  4267  0020                     ??_Power_Measure:	
  4268                           ; 1 bytes @ 0x0
  4269                           
  4270  0020                     ??_Measure:	
  4271                           ; 1 bytes @ 0x0
  4272                           
  4273  0020                     ?_Power_GetData:	
  4274                           ; 1 bytes @ 0x0
  4275                           
  4276  0020                     ?___ftpack:	
  4277                           ; 1 bytes @ 0x0
  4278                           
  4279  0020                     I2C1_Initialize@slave_address:	
  4280                           ; 3 bytes @ 0x0
  4281                           
  4282  0020                     I2C1_GetCommandData@len:	
  4283                           ; 1 bytes @ 0x0
  4284                           
  4285  0020                     Power_GetData@data:	
  4286                           ; 1 bytes @ 0x0
  4287                           
  4288  0020                     I2C1_SetTransmitData@data:	
  4289                           ; 1 bytes @ 0x0
  4290                           
  4291  0020                     ___ftpack@arg:	
  4292                           ; 2 bytes @ 0x0
  4293                           
  4294                           
  4295                           ; 3 bytes @ 0x0
  4296  0020                     	ds	1
  4297  0021                     ??_I2C1_GetCommandData:
  4298  0021                     ??_SYSTEM_Initialize:	
  4299                           ; 1 bytes @ 0x1
  4300                           
  4301  0021                     I2C1_GetCommand@cmd:	
  4302                           ; 1 bytes @ 0x1
  4303                           
  4304  0021                     SYSTEM_Initialize@slave_address:	
  4305                           ; 1 bytes @ 0x1
  4306                           
  4307  0021                     Power_GetData@length:	
  4308                           ; 1 bytes @ 0x1
  4309                           
  4310                           
  4311                           ; 1 bytes @ 0x1
  4312  0021                     	ds	1
  4313  0022                     ??_Power_Init:
  4314  0022                     ??_Power_Loop:	
  4315                           ; 1 bytes @ 0x2
  4316                           
  4317  0022                     ??_Power_GetData:	
  4318                           ; 1 bytes @ 0x2
  4319                           
  4320  0022                     I2C1_GetCommandData@data:	
  4321                           ; 1 bytes @ 0x2
  4322                           
  4323  0022                     I2C1_SetTransmitData@len:	
  4324                           ; 1 bytes @ 0x2
  4325                           
  4326                           
  4327                           ; 1 bytes @ 0x2
  4328  0022                     	ds	1
  4329  0023                     ??_I2C1_SetTransmitData:
  4330  0023                     ___ftpack@exp:	
  4331                           ; 1 bytes @ 0x3
  4332                           
  4333                           
  4334                           ; 1 bytes @ 0x3
  4335  0023                     	ds	1
  4336  0024                     ___ftpack@sign:
  4337                           
  4338                           ; 1 bytes @ 0x4
  4339  0024                     	ds	1
  4340  0025                     ??___ftpack:
  4341                           
  4342                           ; 1 bytes @ 0x5
  4343  0025                     	ds	3
  4344  0028                     ?___lwtoft:
  4345  0028                     ___lwtoft@c:	
  4346                           ; 3 bytes @ 0x8
  4347                           
  4348                           
  4349                           ; 2 bytes @ 0x8
  4350  0028                     	ds	3
  4351  002B                     ??___lwtoft:
  4352                           
  4353                           ; 1 bytes @ 0xB
  4354  002B                     	ds	1
  4355  002C                     ?___ftdiv:
  4356  002C                     ___ftdiv@f2:	
  4357                           ; 3 bytes @ 0xC
  4358                           
  4359                           
  4360                           ; 3 bytes @ 0xC
  4361  002C                     	ds	3
  4362  002F                     ___ftdiv@f1:
  4363                           
  4364                           ; 3 bytes @ 0xF
  4365  002F                     	ds	3
  4366  0032                     ??___ftdiv:
  4367                           
  4368                           ; 1 bytes @ 0x12
  4369  0032                     	ds	4
  4370  0036                     ___ftdiv@cntr:
  4371                           
  4372                           ; 1 bytes @ 0x16
  4373  0036                     	ds	1
  4374  0037                     ___ftdiv@f3:
  4375                           
  4376                           ; 3 bytes @ 0x17
  4377  0037                     	ds	3
  4378  003A                     ___ftdiv@exp:
  4379                           
  4380                           ; 1 bytes @ 0x1A
  4381  003A                     	ds	1
  4382  003B                     ___ftdiv@sign:
  4383                           
  4384                           ; 1 bytes @ 0x1B
  4385  003B                     	ds	1
  4386  003C                     ?_Power_SetThreshold:
  4387  003C                     Power_SetThreshold@metric:	
  4388                           ; 1 bytes @ 0x1C
  4389                           
  4390                           
  4391                           ; 1 bytes @ 0x1C
  4392  003C                     	ds	1
  4393  003D                     Power_SetThreshold@thresholdData:
  4394                           
  4395                           ; 1 bytes @ 0x1D
  4396  003D                     	ds	1
  4397  003E                     ??_Power_SetThreshold:
  4398                           
  4399                           ; 1 bytes @ 0x1E
  4400  003E                     	ds	5
  4401  0043                     ??_main:
  4402                           
  4403                           ; 1 bytes @ 0x23
  4404  0043                     	ds	2
  4405                           
  4406                           	psect	maintext
  4407  02FA                     __pmaintext:	
  4408 ;;
  4409 ;;Main: autosize = 0, tempsize = 2, incstack = 0, save=0
  4410 ;;
  4411 ;; *************** function _main *****************
  4412 ;; Defined at:
  4413 ;;		line 56 in file "main.c"
  4414 ;; Parameters:    Size  Location     Type
  4415 ;;		None
  4416 ;; Auto vars:     Size  Location     Type
  4417 ;;  data           20    0[BANK3 ] unsigned char [20]
  4418 ;;  len             1   25[BANK3 ] unsigned char 
  4419 ;;  retries         1   20[BANK3 ] unsigned char 
  4420 ;;  mnr             1   23[BANK3 ] unsigned char 
  4421 ;;  type            1   22[BANK3 ] unsigned char 
  4422 ;;  ack             1   21[BANK3 ] unsigned char 
  4423 ;;  cmd             1   24[BANK3 ] unsigned char 
  4424 ;; Return value:  Size  Location     Type
  4425 ;;                  1    wreg      void 
  4426 ;; Registers used:
  4427 ;;		wreg, fsr0l, fsr0h, fsr1l, fsr1h, status,2, status,0, pclath, cstack
  4428 ;; Tracked objects:
  4429 ;;		On entry : B3F/0
  4430 ;;		On exit  : 0/0
  4431 ;;		Unchanged: 0/0
  4432 ;; Data sizes:     COMMON   BANK0   BANK1   BANK2   BANK3   BANK4   BANK5   BANK6   BANK7   BANK8   BANK9  BANK10  BANK1
      +1  BANK12  BANK13  BANK14  BANK15  BANK16  BANK17  BANK18  BANK19  BANK20  BANK21  BANK22  BANK23  BANK24  BANK25
  4433 ;;      Params:         0       0       0       0       0       0       0       0       0       0       0       0       
      +0       0       0       0       0       0       0       0       0       0       0       0       0       0       0
  4434 ;;      Locals:         0       0       0       0      26       0       0       0       0       0       0       0       
      +0       0       0       0       0       0       0       0       0       0       0       0       0       0       0
  4435 ;;      Temps:          0       2       0       0       0       0       0       0       0       0       0       0       
      +0       0       0       0       0       0       0       0       0       0       0       0       0       0       0
  4436 ;;      Totals:         0       2       0       0      26       0       0       0       0       0       0       0       
      +0       0       0       0       0       0       0       0       0       0       0       0       0       0       0
  4437 ;;Total ram usage:       28 bytes
  4438 ;; Hardware stack levels required when called:    6
  4439 ;; This function calls:
  4440 ;;		_I2C1_CommandReceived
  4441 ;;		_I2C1_GetCommand
  4442 ;;		_I2C1_GetCommandData
  4443 ;;		_I2C1_SetTransmitData
  4444 ;;		_I2C1_TxBufferEmpty
  4445 ;;		_Power_GetData
  4446 ;;		_Power_Init
  4447 ;;		_Power_Loop
  4448 ;;		_Power_Measure
  4449 ;;		_Power_SetThreshold
  4450 ;;		_SYSTEM_Initialize
  4451 ;;		_toggleInt
  4452 ;; This function is called by:
  4453 ;;		Startup code after reset
  4454 ;; This function uses a non-reentrant model
  4455 ;;
  4456                           
  4457                           
  4458                           ;psect for function _main
  4459  02FA                     _main:
  4460  02FA                     l3524:	
  4461                           ;incstack = 0
  4462                           ; Regs used in _main: [wreg-fsr1h+status,2+status,0+pclath+cstack]
  4463                           
  4464                           
  4465                           ;main.c: 59: SYSTEM_Initialize(0x70);
  4466  02FA  3070               	movlw	112
  4467  02FB  3187  27C0  3182   	fcall	_SYSTEM_Initialize
  4468                           
  4469                           ;main.c: 61: sensorAPI.Init();
  4470  02FE  0141               	movlb	1	; select bank1
  4471  02FF  0863               	movf	(_sensorAPI+1)^(0+128),w
  4472  0300  008A               	movwf	10
  4473  0301  0862               	movf	_sensorAPI^(0+128),w
  4474  0302  000A               	callw
  4475  0303  3182               	pagesel	$
  4476  0304                     l3526:
  4477                           
  4478                           ;main.c: 64: sensorAPI.Loop();
  4479  0304  3004               	movlw	4
  4480  0305  3EE2               	addlw	(low (_sensorAPI| 0))& (0+255)
  4481  0306  0086               	movwf	6
  4482  0307  0187               	clrf	7
  4483  0308  3F41               	moviw [1]fsr1
  4484  0309  008A               	movwf	10
  4485  030A  3F40               	moviw [0]fsr1
  4486  030B  000A               	callw
  4487  030C  3182               	pagesel	$
  4488  030D                     l3528:
  4489                           
  4490                           ;main.c: 65: sensorAPI.GetData(mData, &mDataLength);
  4491  030D  30D3               	movlw	(low (_mData| 0))& (0+255)
  4492  030E  0140               	movlb	0	; select bank0
  4493  030F  00C3               	movwf	??_main
  4494  0310  0843               	movf	??_main,w
  4495  0311  00A0               	movwf	Power_GetData@data
  4496  0312  3056               	movlw	(low (_mDataLength| 0))& (0+255)
  4497  0313  00C4               	movwf	??_main+1
  4498  0314  0844               	movf	??_main+1,w
  4499  0315  00A1               	movwf	Power_GetData@length
  4500  0316  3006               	movlw	6
  4501  0317  3EE2               	addlw	(low (_sensorAPI| 0))& (0+255)
  4502  0318  0086               	movwf	6
  4503  0319  0187               	clrf	7
  4504  031A  3F41               	moviw [1]fsr1
  4505  031B  008A               	movwf	10
  4506  031C  3F40               	moviw [0]fsr1
  4507  031D  000A               	callw
  4508  031E  3182               	pagesel	$
  4509  031F                     l3530:
  4510                           
  4511                           ;main.c: 66: I2C1_SetTransmitData(mData, mDataLength);
  4512  031F  30D3               	movlw	low _mData
  4513  0320  0140               	movlb	0	; select bank0
  4514  0321  00A0               	movwf	I2C1_SetTransmitData@data
  4515  0322  3000               	movlw	high _mData
  4516  0323  00A1               	movwf	I2C1_SetTransmitData@data+1
  4517  0324  0856               	movf	_mDataLength,w
  4518  0325  00C3               	movwf	??_main
  4519  0326  0843               	movf	??_main,w
  4520  0327  00A2               	movwf	I2C1_SetTransmitData@len
  4521  0328  3187  2731  3182   	fcall	_I2C1_SetTransmitData
  4522  032B                     l3532:
  4523                           
  4524                           ;main.c: 69: if(I2C1_CommandReceived()){
  4525  032B  318F  275B  3182   	fcall	_I2C1_CommandReceived
  4526  032E  3A00               	xorlw	0
  4527  032F  1903               	skipnz
  4528  0330  2B32               	goto	u2181
  4529  0331  2B33               	goto	u2180
  4530  0332                     u2181:
  4531  0332  2B04               	goto	l3526
  4532  0333                     u2180:
  4533  0333                     l3534:
  4534                           
  4535                           ;main.c: 70: uint8_t cmd;;main.c: 71: I2C1_GetCommand(&cmd);
  4536  0333  30B8               	movlw	(low (main@cmd| (0+256)))& (0+255)
  4537  0334  318F  2782  3182   	fcall	_I2C1_GetCommand
  4538                           
  4539                           ;main.c: 73: switch(cmd){
  4540  0337  2BC6               	goto	l3570
  4541  0338                     l3536:
  4542                           
  4543                           ;main.c: 77: uint8_t ack = 0xAA;
  4544  0338  30AA               	movlw	170
  4545  0339  0140               	movlb	0	; select bank0
  4546  033A  00C3               	movwf	??_main
  4547  033B  0843               	movf	??_main,w
  4548  033C  0143               	movlb	3	; select bank3
  4549  033D  00B5               	movwf	main@ack^(0+384)
  4550  033E                     l3538:
  4551                           
  4552                           ;main.c: 78: I2C1_SetTransmitData(&ack, 1);
  4553  033E  30B5               	movlw	low main@ack
  4554  033F  0140               	movlb	0	; select bank0
  4555  0340  00A0               	movwf	I2C1_SetTransmitData@data
  4556  0341  3001               	movlw	high main@ack
  4557  0342  00A1               	movwf	I2C1_SetTransmitData@data+1
  4558  0343  01A2               	clrf	I2C1_SetTransmitData@len
  4559  0344  0AA2               	incf	I2C1_SetTransmitData@len,f
  4560  0345  3187  2731  3182   	fcall	_I2C1_SetTransmitData
  4561                           
  4562                           ;main.c: 79: } break;
  4563  0348  2B04               	goto	l3526
  4564  0349                     l3540:
  4565                           
  4566                           ;main.c: 84: uint8_t type = 0x04;
  4567  0349  3004               	movlw	4
  4568  034A  0140               	movlb	0	; select bank0
  4569  034B  00C3               	movwf	??_main
  4570  034C  0843               	movf	??_main,w
  4571  034D  0143               	movlb	3	; select bank3
  4572  034E  00B6               	movwf	main@type^(0+384)
  4573  034F                     l3542:
  4574                           
  4575                           ;main.c: 85: I2C1_SetTransmitData(&type, 1);
  4576  034F  30B6               	movlw	low main@type
  4577  0350  0140               	movlb	0	; select bank0
  4578  0351  00A0               	movwf	I2C1_SetTransmitData@data
  4579  0352  3001               	movlw	high main@type
  4580  0353  00A1               	movwf	I2C1_SetTransmitData@data+1
  4581  0354  01A2               	clrf	I2C1_SetTransmitData@len
  4582  0355  0AA2               	incf	I2C1_SetTransmitData@len,f
  4583  0356  3187  2731  3182   	fcall	_I2C1_SetTransmitData
  4584                           
  4585                           ;main.c: 86: } break;
  4586  0359  2B04               	goto	l3526
  4587  035A                     l3544:
  4588                           
  4589                           ;main.c: 91: uint8_t mnr = 0x02;
  4590  035A  3002               	movlw	2
  4591  035B  0140               	movlb	0	; select bank0
  4592  035C  00C3               	movwf	??_main
  4593  035D  0843               	movf	??_main,w
  4594  035E  0143               	movlb	3	; select bank3
  4595  035F  00B7               	movwf	main@mnr^(0+384)
  4596  0360                     l3546:
  4597                           
  4598                           ;main.c: 92: I2C1_SetTransmitData(&mnr, 1);
  4599  0360  30B7               	movlw	low main@mnr
  4600  0361  0140               	movlb	0	; select bank0
  4601  0362  00A0               	movwf	I2C1_SetTransmitData@data
  4602  0363  3001               	movlw	high main@mnr
  4603  0364  00A1               	movwf	I2C1_SetTransmitData@data+1
  4604  0365  01A2               	clrf	I2C1_SetTransmitData@len
  4605  0366  0AA2               	incf	I2C1_SetTransmitData@len,f
  4606  0367  3187  2731  3182   	fcall	_I2C1_SetTransmitData
  4607                           
  4608                           ;main.c: 93: } break;
  4609  036A  2B04               	goto	l3526
  4610  036B                     l3548:
  4611                           
  4612                           ;main.c: 98: sensorAPI.Measure();
  4613  036B  3002               	movlw	2
  4614  036C  3EE2               	addlw	(low (_sensorAPI| 0))& (0+255)
  4615  036D  0086               	movwf	6
  4616  036E  0187               	clrf	7
  4617  036F  3F41               	moviw [1]fsr1
  4618  0370  008A               	movwf	10
  4619  0371  3F40               	moviw [0]fsr1
  4620  0372  000A               	callw
  4621  0373  3182               	pagesel	$
  4622                           
  4623                           ;main.c: 99: } break;
  4624  0374  2B04               	goto	l3526
  4625  0375                     l3550:
  4626                           
  4627                           ;main.c: 104: uint8_t retries = 20;
  4628  0375  3014               	movlw	20
  4629  0376  0140               	movlb	0	; select bank0
  4630  0377  00C3               	movwf	??_main
  4631  0378  0843               	movf	??_main,w
  4632  0379  0143               	movlb	3	; select bank3
  4633  037A  00B4               	movwf	main@retries^(0+384)
  4634                           
  4635                           ;main.c: 105: while(!I2C1_TxBufferEmpty() && retries--){
  4636  037B  2B85               	goto	l3554
  4637  037C                     l3552:
  4638                           
  4639                           ;main.c: 106: _delay((unsigned long)((1)*(32000000/4000.0)));
  4640  037C  300B               	movlw	11
  4641  037D  0140               	movlb	0	; select bank0
  4642  037E  00C3               	movwf	??_main
  4643  037F  3062               	movlw	98
  4644  0380                     u2227:
  4645  0380  0B89               	decfsz	9,f
  4646  0381  2B80               	goto	u2227
  4647  0382  0BC3               	decfsz	??_main,f
  4648  0383  2B80               	goto	u2227
  4649  0384  0000               	nop
  4650  0385                     l3554:
  4651  0385  318F  277A  3182   	fcall	_I2C1_TxBufferEmpty
  4652  0388  3A00               	xorlw	0
  4653  0389  1D03               	skipz
  4654  038A  2B8C               	goto	u2191
  4655  038B  2B8D               	goto	u2190
  4656  038C                     u2191:
  4657  038C  2BDE               	goto	l877
  4658  038D                     u2190:
  4659  038D                     l3556:
  4660  038D  3001               	movlw	1
  4661  038E  0143               	movlb	3	; select bank3
  4662  038F  02B4               	subwf	main@retries^(0+384),f
  4663  0390  0A34               	incf	main@retries^(0+384),w
  4664  0391  1D03               	btfss	3,2
  4665  0392  2B94               	goto	u2201
  4666  0393  2B95               	goto	u2200
  4667  0394                     u2201:
  4668  0394  2B7C               	goto	l3552
  4669  0395                     u2200:
  4670  0395  2B04               	goto	l3526
  4671  0396                     l3558:
  4672                           
  4673                           ;main.c: 112: toggleInt();
  4674  0396  318F  279A  3182   	fcall	_toggleInt
  4675                           
  4676                           ;main.c: 113: } break;
  4677  0399  2B04               	goto	l3526
  4678  039A                     l3560:
  4679                           
  4680                           ;main.c: 117: _delay((unsigned long)((2)*(32000000/4000.0)));
  4681  039A  3015               	movlw	21
  4682  039B  0140               	movlb	0	; select bank0
  4683  039C  00C3               	movwf	??_main
  4684  039D  30C6               	movlw	198
  4685  039E                     u2237:
  4686  039E  0B89               	decfsz	9,f
  4687  039F  2B9E               	goto	u2237
  4688  03A0  0BC3               	decfsz	??_main,f
  4689  03A1  2B9E               	goto	u2237
  4690  03A2  0000               	nop
  4691  03A3                     l3562:
  4692                           
  4693                           ;main.c: 118: uint8_t len;;main.c: 119: uint8_t data[20];;main.c: 120: I2C1_GetCommandDa
      +                          ta(data, &len);
  4694  03A3  30B9               	movlw	(low (main@len| (0+256)))& (0+255)
  4695  03A4  0140               	movlb	0	; select bank0
  4696  03A5  00C3               	movwf	??_main
  4697  03A6  0843               	movf	??_main,w
  4698  03A7  00A0               	movwf	I2C1_GetCommandData@len
  4699  03A8  30A0               	movlw	(low (main@data| (0+256)))& (0+255)
  4700  03A9  3187  279F  3182   	fcall	_I2C1_GetCommandData
  4701  03AC                     l3564:
  4702                           
  4703                           ;main.c: 121: if(len == 6){
  4704  03AC  3006               	movlw	6
  4705  03AD  0143               	movlb	3	; select bank3
  4706  03AE  0639               	xorwf	main@len^(0+384),w
  4707  03AF  1D03               	btfss	3,2
  4708  03B0  2BB2               	goto	u2211
  4709  03B1  2BB3               	goto	u2210
  4710  03B2                     u2211:
  4711  03B2  2BDE               	goto	l877
  4712  03B3                     u2210:
  4713  03B3                     l3566:
  4714                           
  4715                           ;main.c: 122: sensorAPI.UpdateThreshold(data[0], data+1);
  4716  03B3  0820               	movf	main@data^(0+384),w
  4717  03B4  0140               	movlb	0	; select bank0
  4718  03B5  00C3               	movwf	??_main
  4719  03B6  0843               	movf	??_main,w
  4720  03B7  00BC               	movwf	Power_SetThreshold@metric
  4721  03B8  30A1               	movlw	(low ((main@data| (0+256)+1)))& (0+255)
  4722  03B9  00C4               	movwf	??_main+1
  4723  03BA  0844               	movf	??_main+1,w
  4724  03BB  00BD               	movwf	Power_SetThreshold@thresholdData
  4725  03BC  3008               	movlw	8
  4726  03BD  3EE2               	addlw	(low (_sensorAPI| 0))& (0+255)
  4727  03BE  0086               	movwf	6
  4728  03BF  0187               	clrf	7
  4729  03C0  3F41               	moviw [1]fsr1
  4730  03C1  008A               	movwf	10
  4731  03C2  3F40               	moviw [0]fsr1
  4732  03C3  000A               	callw
  4733  03C4  3182               	pagesel	$
  4734  03C5  2B04               	goto	l3526
  4735  03C6                     l3570:
  4736  03C6  0143               	movlb	3	; select bank3
  4737  03C7  0838               	movf	main@cmd^(0+384),w
  4738                           
  4739                           ; Switch size 1, requested type "simple"
  4740                           ; Number of cases is 7, Range of values is 16 to 36
  4741                           ; switch strategies available:
  4742                           ; Name         Instructions Cycles
  4743                           ; simple_byte           22    12 (average)
  4744                           ; direct_byte           51     9 (fixed)
  4745                           ; jumptable            263     9 (fixed)
  4746                           ;	Chosen strategy is simple_byte
  4747  03C8  3A10               	xorlw	16	; case 16
  4748  03C9  1903               	skipnz
  4749  03CA  2B38               	goto	l3536
  4750  03CB  3A01               	xorlw	1	; case 17
  4751  03CC  1903               	skipnz
  4752  03CD  2B49               	goto	l3540
  4753  03CE  3A02               	xorlw	2	; case 19
  4754  03CF  1903               	skipnz
  4755  03D0  2B6B               	goto	l3548
  4756  03D1  3A07               	xorlw	7	; case 20
  4757  03D2  1903               	skipnz
  4758  03D3  2B75               	goto	l3550
  4759  03D4  3A01               	xorlw	1	; case 21
  4760  03D5  1903               	skipnz
  4761  03D6  2B96               	goto	l3558
  4762  03D7  3A36               	xorlw	54	; case 35
  4763  03D8  1903               	skipnz
  4764  03D9  2B5A               	goto	l3544
  4765  03DA  3A07               	xorlw	7	; case 36
  4766  03DB  1903               	skipnz
  4767  03DC  2B9A               	goto	l3560
  4768  03DD  2BDE               	goto	l877
  4769  03DE                     l877:
  4770  03DE  2B04               	goto	l3526
  4771  03DF  3180  2843         	ljmp	start
  4772  03E1                     __end_of_main:
  4773                           
  4774                           	psect	text1
  4775  0F9A                     __ptext1:	
  4776 ;; *************** function _toggleInt *****************
  4777 ;; Defined at:
  4778 ;;		line 134 in file "main.c"
  4779 ;; Parameters:    Size  Location     Type
  4780 ;;		None
  4781 ;; Auto vars:     Size  Location     Type
  4782 ;;		None
  4783 ;; Return value:  Size  Location     Type
  4784 ;;                  1    wreg      void 
  4785 ;; Registers used:
  4786 ;;		status,0
  4787 ;; Tracked objects:
  4788 ;;		On entry : 0/0
  4789 ;;		On exit  : 0/0
  4790 ;;		Unchanged: 0/0
  4791 ;; Data sizes:     COMMON   BANK0   BANK1   BANK2   BANK3   BANK4   BANK5   BANK6   BANK7   BANK8   BANK9  BANK10  BANK1
      +1  BANK12  BANK13  BANK14  BANK15  BANK16  BANK17  BANK18  BANK19  BANK20  BANK21  BANK22  BANK23  BANK24  BANK25
  4792 ;;      Params:         0       0       0       0       0       0       0       0       0       0       0       0       
      +0       0       0       0       0       0       0       0       0       0       0       0       0       0       0
  4793 ;;      Locals:         0       0       0       0       0       0       0       0       0       0       0       0       
      +0       0       0       0       0       0       0       0       0       0       0       0       0       0       0
  4794 ;;      Temps:          0       0       0       0       0       0       0       0       0       0       0       0       
      +0       0       0       0       0       0       0       0       0       0       0       0       0       0       0
  4795 ;;      Totals:         0       0       0       0       0       0       0       0       0       0       0       0       
      +0       0       0       0       0       0       0       0       0       0       0       0       0       0       0
  4796 ;;Total ram usage:        0 bytes
  4797 ;; Hardware stack levels used:    1
  4798 ;; Hardware stack levels required when called:    3
  4799 ;; This function calls:
  4800 ;;		Nothing
  4801 ;; This function is called by:
  4802 ;;		_main
  4803 ;; This function uses a non-reentrant model
  4804 ;;
  4805                           
  4806                           
  4807                           ;psect for function _toggleInt
  4808  0F9A                     _toggleInt:
  4809  0F9A                     l899:	
  4810                           ;incstack = 0
  4811                           ; Regs used in _toggleInt: [status,0]
  4812                           ;main.c: 135: do { LATCbits.LATC0 = ~LATCbits.LATC0; } while(0);
  4813                           
  4814  0F9A                     l3460:
  4815  0F9A  1003               	clrc
  4816  0F9B  0140               	movlb	0	; select bank0
  4817  0F9C  1C1A               	btfss	26,0	;volatile
  4818  0F9D  1403               	setc
  4819  0F9E  1803               	btfsc	3,0
  4820  0F9F  2FA1               	goto	u2101
  4821  0FA0  2FA4               	goto	u2100
  4822  0FA1                     u2101:
  4823  0FA1  0140               	movlb	0	; select bank0
  4824  0FA2  141A               	bsf	26,0	;volatile
  4825  0FA3  2FA6               	goto	u2114
  4826  0FA4                     u2100:
  4827  0FA4  0140               	movlb	0	; select bank0
  4828  0FA5  101A               	bcf	26,0	;volatile
  4829  0FA6                     u2114:
  4830  0FA6                     l901:
  4831  0FA6  0008               	return
  4832  0FA7                     __end_of_toggleInt:
  4833                           
  4834                           	psect	text2
  4835  07C0                     __ptext2:	
  4836 ;; *************** function _SYSTEM_Initialize *****************
  4837 ;; Defined at:
  4838 ;;		line 32 in file "system/system.c"
  4839 ;; Parameters:    Size  Location     Type
  4840 ;;  slave_addres    1    wreg     unsigned char 
  4841 ;; Auto vars:     Size  Location     Type
  4842 ;;  slave_addres    1    1[BANK0 ] unsigned char 
  4843 ;; Return value:  Size  Location     Type
  4844 ;;                  1    wreg      void 
  4845 ;; Registers used:
  4846 ;;		wreg, status,2, status,0, pclath, cstack
  4847 ;; Tracked objects:
  4848 ;;		On entry : 0/0
  4849 ;;		On exit  : 0/0
  4850 ;;		Unchanged: 0/0
  4851 ;; Data sizes:     COMMON   BANK0   BANK1   BANK2   BANK3   BANK4   BANK5   BANK6   BANK7   BANK8   BANK9  BANK10  BANK1
      +1  BANK12  BANK13  BANK14  BANK15  BANK16  BANK17  BANK18  BANK19  BANK20  BANK21  BANK22  BANK23  BANK24  BANK25
  4852 ;;      Params:         0       0       0       0       0       0       0       0       0       0       0       0       
      +0       0       0       0       0       0       0       0       0       0       0       0       0       0       0
  4853 ;;      Locals:         0       1       0       0       0       0       0       0       0       0       0       0       
      +0       0       0       0       0       0       0       0       0       0       0       0       0       0       0
  4854 ;;      Temps:          0       0       0       0       0       0       0       0       0       0       0       0       
      +0       0       0       0       0       0       0       0       0       0       0       0       0       0       0
  4855 ;;      Totals:         0       1       0       0       0       0       0       0       0       0       0       0       
      +0       0       0       0       0       0       0       0       0       0       0       0       0       0       0
  4856 ;;Total ram usage:        1 bytes
  4857 ;; Hardware stack levels used:    1
  4858 ;; Hardware stack levels required when called:    4
  4859 ;; This function calls:
  4860 ;;		_I2C1_Initialize
  4861 ;;		_OSCILLATOR_Initialize
  4862 ;;		_PMD_Initialize
  4863 ;; This function is called by:
  4864 ;;		_main
  4865 ;; This function uses a non-reentrant model
  4866 ;;
  4867                           
  4868                           
  4869                           ;psect for function _SYSTEM_Initialize
  4870  07C0                     _SYSTEM_Initialize:
  4871                           
  4872                           ;incstack = 0
  4873                           ; Regs used in _SYSTEM_Initialize: [wreg+status,2+status,0+pclath+cstack]
  4874                           ;SYSTEM_Initialize@slave_address stored from wreg
  4875  07C0  0140               	movlb	0	; select bank0
  4876  07C1  00A1               	movwf	SYSTEM_Initialize@slave_address
  4877  07C2                     l3322:
  4878                           
  4879                           ;system.c: 34: PMD_Initialize();
  4880  07C2  318F  27D7  3187   	fcall	_PMD_Initialize
  4881                           
  4882                           ;system.c: 35: OSCILLATOR_Initialize();
  4883  07C5  318F  2768  3187   	fcall	_OSCILLATOR_Initialize
  4884  07C8                     l3324:
  4885                           
  4886                           ;system.c: 37: VREGCONbits.VREGPM = 1;
  4887  07C8  0150               	movlb	16	; select bank16
  4888  07C9  1492               	bsf	18,1	;volatile
  4889  07CA                     l3326:
  4890                           
  4891                           ;system.c: 42: ANSELA = 0x00;
  4892  07CA  017E               	movlb	62	; select bank62
  4893  07CB  01B8               	clrf	56	;volatile
  4894  07CC                     l3328:
  4895                           
  4896                           ;system.c: 43: ANSELB = 0x00;
  4897  07CC  01C3               	clrf	67	;volatile
  4898  07CD                     l3330:
  4899                           
  4900                           ;system.c: 44: ANSELC = 0x00;
  4901  07CD  01CE               	clrf	78	;volatile
  4902  07CE                     l3332:
  4903                           
  4904                           ;system.c: 46: TRISA = 0x00;
  4905  07CE  0140               	movlb	0	; select bank0
  4906  07CF  0192               	clrf	18	;volatile
  4907  07D0                     l3334:
  4908                           
  4909                           ;system.c: 47: TRISB = 0x00;
  4910  07D0  0193               	clrf	19	;volatile
  4911  07D1                     l3336:
  4912                           
  4913                           ;system.c: 48: TRISC = 0x00;
  4914  07D1  0194               	clrf	20	;volatile
  4915  07D2                     l3338:
  4916                           
  4917                           ;system.c: 50: LATA = 0xFF;
  4918  07D2  30FF               	movlw	255
  4919  07D3  0098               	movwf	24	;volatile
  4920  07D4                     l3340:
  4921                           
  4922                           ;system.c: 51: LATB = 0xFF;
  4923  07D4  30FF               	movlw	255
  4924  07D5  0099               	movwf	25	;volatile
  4925  07D6                     l3342:
  4926                           
  4927                           ;system.c: 52: LATC = 0xFF;
  4928  07D6  30FF               	movlw	255
  4929  07D7  009A               	movwf	26	;volatile
  4930  07D8                     l3344:
  4931                           
  4932                           ;system.c: 54: I2C1_Initialize(slave_address);
  4933  07D8  0821               	movf	SYSTEM_Initialize@slave_address,w
  4934  07D9  3186  26DB  3187   	fcall	_I2C1_Initialize
  4935  07DC                     l3346:
  4936                           
  4937                           ;system.c: 56: (INTCONbits.GIE = 1);
  4938  07DC  178B               	bsf	11,7	;volatile
  4939  07DD                     l3348:
  4940                           
  4941                           ;system.c: 57: (INTCONbits.PEIE = 1);
  4942  07DD  170B               	bsf	11,6	;volatile
  4943  07DE                     l220:
  4944  07DE  0008               	return
  4945  07DF                     __end_of_SYSTEM_Initialize:
  4946                           
  4947                           	psect	text3
  4948  0FD7                     __ptext3:	
  4949 ;; *************** function _PMD_Initialize *****************
  4950 ;; Defined at:
  4951 ;;		line 75 in file "system/system.c"
  4952 ;; Parameters:    Size  Location     Type
  4953 ;;		None
  4954 ;; Auto vars:     Size  Location     Type
  4955 ;;		None
  4956 ;; Return value:  Size  Location     Type
  4957 ;;                  1    wreg      void 
  4958 ;; Registers used:
  4959 ;;		wreg
  4960 ;; Tracked objects:
  4961 ;;		On entry : 0/0
  4962 ;;		On exit  : 0/0
  4963 ;;		Unchanged: 0/0
  4964 ;; Data sizes:     COMMON   BANK0   BANK1   BANK2   BANK3   BANK4   BANK5   BANK6   BANK7   BANK8   BANK9  BANK10  BANK1
      +1  BANK12  BANK13  BANK14  BANK15  BANK16  BANK17  BANK18  BANK19  BANK20  BANK21  BANK22  BANK23  BANK24  BANK25
  4965 ;;      Params:         0       0       0       0       0       0       0       0       0       0       0       0       
      +0       0       0       0       0       0       0       0       0       0       0       0       0       0       0
  4966 ;;      Locals:         0       0       0       0       0       0       0       0       0       0       0       0       
      +0       0       0       0       0       0       0       0       0       0       0       0       0       0       0
  4967 ;;      Temps:          0       0       0       0       0       0       0       0       0       0       0       0       
      +0       0       0       0       0       0       0       0       0       0       0       0       0       0       0
  4968 ;;      Totals:         0       0       0       0       0       0       0       0       0       0       0       0       
      +0       0       0       0       0       0       0       0       0       0       0       0       0       0       0
  4969 ;;Total ram usage:        0 bytes
  4970 ;; Hardware stack levels used:    1
  4971 ;; Hardware stack levels required when called:    3
  4972 ;; This function calls:
  4973 ;;		Nothing
  4974 ;; This function is called by:
  4975 ;;		_SYSTEM_Initialize
  4976 ;; This function uses a non-reentrant model
  4977 ;;
  4978                           
  4979                           
  4980                           ;psect for function _PMD_Initialize
  4981  0FD7                     _PMD_Initialize:
  4982  0FD7                     l3156:	
  4983                           ;incstack = 0
  4984                           ; Regs used in _PMD_Initialize: [wreg]
  4985                           
  4986                           
  4987                           ;system.c: 77: PMD0 = 0xFF;
  4988  0FD7  30FF               	movlw	255
  4989  0FD8  014F               	movlb	15	; select bank15
  4990  0FD9  0096               	movwf	22	;volatile
  4991  0FDA                     l3158:
  4992                           
  4993                           ;system.c: 79: PMD0bits.SYSCMD = 0;
  4994  0FDA  1396               	bcf	22,7	;volatile
  4995                           
  4996                           ;system.c: 81: PMD1 = 0xFF;
  4997  0FDB  30FF               	movlw	255
  4998  0FDC  0097               	movwf	23	;volatile
  4999                           
  5000                           ;system.c: 82: PMD2 = 0xFF;
  5001  0FDD  30FF               	movlw	255
  5002  0FDE  0098               	movwf	24	;volatile
  5003                           
  5004                           ;system.c: 83: PMD3 = 0xFF;
  5005  0FDF  30FF               	movlw	255
  5006  0FE0  0099               	movwf	25	;volatile
  5007                           
  5008                           ;system.c: 84: PMD4 = 0xFF;
  5009  0FE1  30FF               	movlw	255
  5010  0FE2  009A               	movwf	26	;volatile
  5011                           
  5012                           ;system.c: 85: PMD5 = 0xFF;
  5013  0FE3  30FF               	movlw	255
  5014  0FE4  009B               	movwf	27	;volatile
  5015                           
  5016                           ;system.c: 86: PMD6 = 0xFF;
  5017  0FE5  30FF               	movlw	255
  5018  0FE6  009C               	movwf	28	;volatile
  5019                           
  5020                           ;system.c: 87: PMD7 = 0xFF;
  5021  0FE7  30FF               	movlw	255
  5022  0FE8  009D               	movwf	29	;volatile
  5023  0FE9                     l229:
  5024  0FE9  0008               	return
  5025  0FEA                     __end_of_PMD_Initialize:
  5026                           
  5027                           	psect	text4
  5028  0F68                     __ptext4:	
  5029 ;; *************** function _OSCILLATOR_Initialize *****************
  5030 ;; Defined at:
  5031 ;;		line 67 in file "system/system.c"
  5032 ;; Parameters:    Size  Location     Type
  5033 ;;		None
  5034 ;; Auto vars:     Size  Location     Type
  5035 ;;		None
  5036 ;; Return value:  Size  Location     Type
  5037 ;;                  1    wreg      void 
  5038 ;; Registers used:
  5039 ;;		wreg
  5040 ;; Tracked objects:
  5041 ;;		On entry : 0/0
  5042 ;;		On exit  : 0/0
  5043 ;;		Unchanged: 0/0
  5044 ;; Data sizes:     COMMON   BANK0   BANK1   BANK2   BANK3   BANK4   BANK5   BANK6   BANK7   BANK8   BANK9  BANK10  BANK1
      +1  BANK12  BANK13  BANK14  BANK15  BANK16  BANK17  BANK18  BANK19  BANK20  BANK21  BANK22  BANK23  BANK24  BANK25
  5045 ;;      Params:         0       0       0       0       0       0       0       0       0       0       0       0       
      +0       0       0       0       0       0       0       0       0       0       0       0       0       0       0
  5046 ;;      Locals:         0       0       0       0       0       0       0       0       0       0       0       0       
      +0       0       0       0       0       0       0       0       0       0       0       0       0       0       0
  5047 ;;      Temps:          0       0       0       0       0       0       0       0       0       0       0       0       
      +0       0       0       0       0       0       0       0       0       0       0       0       0       0       0
  5048 ;;      Totals:         0       0       0       0       0       0       0       0       0       0       0       0       
      +0       0       0       0       0       0       0       0       0       0       0       0       0       0       0
  5049 ;;Total ram usage:        0 bytes
  5050 ;; Hardware stack levels used:    1
  5051 ;; Hardware stack levels required when called:    3
  5052 ;; This function calls:
  5053 ;;		Nothing
  5054 ;; This function is called by:
  5055 ;;		_SYSTEM_Initialize
  5056 ;; This function uses a non-reentrant model
  5057 ;;
  5058                           
  5059                           
  5060                           ;psect for function _OSCILLATOR_Initialize
  5061  0F68                     _OSCILLATOR_Initialize:
  5062  0F68                     l3160:	
  5063                           ;incstack = 0
  5064                           ; Regs used in _OSCILLATOR_Initialize: [wreg]
  5065                           
  5066                           
  5067                           ;system.c: 69: OSCCON1 = 0x60;
  5068  0F68  3060               	movlw	96
  5069  0F69  0151               	movlb	17	; select bank17
  5070  0F6A  008D               	movwf	13	;volatile
  5071                           
  5072                           ;system.c: 71: OSCFRQ = 0x06;
  5073  0F6B  3006               	movlw	6
  5074  0F6C  0093               	movwf	19	;volatile
  5075  0F6D                     l226:
  5076  0F6D  0008               	return
  5077  0F6E                     __end_of_OSCILLATOR_Initialize:
  5078                           
  5079                           	psect	text5
  5080  06DB                     __ptext5:	
  5081 ;; *************** function _I2C1_Initialize *****************
  5082 ;; Defined at:
  5083 ;;		line 92 in file "system/i2c1.c"
  5084 ;; Parameters:    Size  Location     Type
  5085 ;;  slave_addres    1    wreg     unsigned char 
  5086 ;; Auto vars:     Size  Location     Type
  5087 ;;  slave_addres    1    0[BANK0 ] unsigned char 
  5088 ;; Return value:  Size  Location     Type
  5089 ;;                  1    wreg      void 
  5090 ;; Registers used:
  5091 ;;		wreg, status,2, status,0
  5092 ;; Tracked objects:
  5093 ;;		On entry : 0/0
  5094 ;;		On exit  : 0/0
  5095 ;;		Unchanged: 0/0
  5096 ;; Data sizes:     COMMON   BANK0   BANK1   BANK2   BANK3   BANK4   BANK5   BANK6   BANK7   BANK8   BANK9  BANK10  BANK1
      +1  BANK12  BANK13  BANK14  BANK15  BANK16  BANK17  BANK18  BANK19  BANK20  BANK21  BANK22  BANK23  BANK24  BANK25
  5097 ;;      Params:         0       0       0       0       0       0       0       0       0       0       0       0       
      +0       0       0       0       0       0       0       0       0       0       0       0       0       0       0
  5098 ;;      Locals:         0       1       0       0       0       0       0       0       0       0       0       0       
      +0       0       0       0       0       0       0       0       0       0       0       0       0       0       0
  5099 ;;      Temps:          0       0       0       0       0       0       0       0       0       0       0       0       
      +0       0       0       0       0       0       0       0       0       0       0       0       0       0       0
  5100 ;;      Totals:         0       1       0       0       0       0       0       0       0       0       0       0       
      +0       0       0       0       0       0       0       0       0       0       0       0       0       0       0
  5101 ;;Total ram usage:        1 bytes
  5102 ;; Hardware stack levels used:    1
  5103 ;; Hardware stack levels required when called:    3
  5104 ;; This function calls:
  5105 ;;		Nothing
  5106 ;; This function is called by:
  5107 ;;		_SYSTEM_Initialize
  5108 ;; This function uses a non-reentrant model
  5109 ;;
  5110                           
  5111                           
  5112                           ;psect for function _I2C1_Initialize
  5113  06DB                     _I2C1_Initialize:
  5114                           
  5115                           ;incstack = 0
  5116                           ; Regs used in _I2C1_Initialize: [wreg+status,2+status,0]
  5117                           ;I2C1_Initialize@slave_address stored from wreg
  5118  06DB  0140               	movlb	0	; select bank0
  5119  06DC  00A0               	movwf	I2C1_Initialize@slave_address
  5120  06DD                     l3130:
  5121                           
  5122                           ;i2c1.c: 94: PMD6bits.MSSP1MD = 0;
  5123  06DD  014F               	movlb	15	; select bank15
  5124  06DE  101C               	bcf	28,0	;volatile
  5125                           
  5126                           ;i2c1.c: 96: ANSELBbits.ANSB5 = 0;
  5127  06DF  017E               	movlb	62	; select bank62
  5128  06E0  12C3               	bcf	67,5	;volatile
  5129                           
  5130                           ;i2c1.c: 97: ANSELBbits.ANSB7 = 0;
  5131  06E1  13C3               	bcf	67,7	;volatile
  5132                           
  5133                           ;i2c1.c: 99: TRISBbits.TRISB5 = 1;
  5134  06E2  0140               	movlb	0	; select bank0
  5135  06E3  1693               	bsf	19,5	;volatile
  5136                           
  5137                           ;i2c1.c: 100: TRISBbits.TRISB7 = 1;
  5138  06E4  1793               	bsf	19,7	;volatile
  5139  06E5                     l3132:
  5140                           
  5141                           ;i2c1.c: 102: SSP1CLKPPS = 0x0F;
  5142  06E5  300F               	movlw	15
  5143  06E6  017D               	movlb	61	; select bank61
  5144  06E7  00C5               	movwf	69	;volatile
  5145                           
  5146                           ;i2c1.c: 103: RB7PPS = 0x13;
  5147  06E8  3013               	movlw	19
  5148  06E9  017E               	movlb	62	; select bank62
  5149  06EA  009F               	movwf	31	;volatile
  5150                           
  5151                           ;i2c1.c: 104: RB5PPS = 0x14;
  5152  06EB  3014               	movlw	20
  5153  06EC  009D               	movwf	29	;volatile
  5154                           
  5155                           ;i2c1.c: 105: SSP1DATPPS = 0x0D;
  5156  06ED  300D               	movlw	13
  5157  06EE  017D               	movlb	61	; select bank61
  5158  06EF  00C6               	movwf	70	;volatile
  5159  06F0                     l3134:
  5160                           
  5161                           ;i2c1.c: 108: SSP1STAT = 0x00;
  5162  06F0  0143               	movlb	3	; select bank3
  5163  06F1  018F               	clrf	15	;volatile
  5164  06F2                     l3136:
  5165                           
  5166                           ;i2c1.c: 110: SSP1CON1 = 0x26;
  5167  06F2  3026               	movlw	38
  5168  06F3  0090               	movwf	16	;volatile
  5169  06F4                     l3138:
  5170                           
  5171                           ;i2c1.c: 112: SSP1CON2 = 0x01;
  5172  06F4  3001               	movlw	1
  5173  06F5  0091               	movwf	17	;volatile
  5174  06F6                     l3140:
  5175                           
  5176                           ;i2c1.c: 114: SSP1CON3 = 0x00;
  5177  06F6  0192               	clrf	18	;volatile
  5178  06F7                     l3142:
  5179                           
  5180                           ;i2c1.c: 116: SSP1CON3bits.DHEN = 1;
  5181  06F7  1412               	bsf	18,0	;volatile
  5182                           
  5183                           ;i2c1.c: 118: SSP1MSK = (0x7F << 1);
  5184  06F8  30FE               	movlw	254
  5185  06F9  008E               	movwf	14	;volatile
  5186  06FA                     l3144:
  5187                           
  5188                           ;i2c1.c: 120: SSP1ADD = (slave_address << 1);
  5189  06FA  0140               	movlb	0	; select bank0
  5190  06FB  3520               	lslf	I2C1_Initialize@slave_address,w
  5191  06FC  0143               	movlb	3	; select bank3
  5192  06FD  008D               	movwf	13	;volatile
  5193  06FE                     l3146:
  5194                           
  5195                           ;i2c1.c: 124: PIR3bits.SSP1IF = 0;
  5196  06FE  014E               	movlb	14	; select bank14
  5197  06FF  100F               	bcf	15,0	;volatile
  5198  0700                     l3148:
  5199                           
  5200                           ;i2c1.c: 126: PIE3bits.SSP1IE = 1;
  5201  0700  1419               	bsf	25,0	;volatile
  5202  0701                     l3150:
  5203                           
  5204                           ;i2c1.c: 128: txCnt = 0;
  5205  0701  01F7               	clrf	_txCnt
  5206  0702                     l3152:
  5207                           
  5208                           ;i2c1.c: 129: rxLen = 0;
  5209  0702  01F8               	clrf	_rxLen
  5210  0703                     l3154:
  5211                           
  5212                           ;i2c1.c: 130: cmdReceived = 0;
  5213  0703  0140               	movlb	0	; select bank0
  5214  0704  01D4               	clrf	_cmdReceived
  5215  0705                     l65:
  5216  0705  0008               	return
  5217  0706                     __end_of_I2C1_Initialize:
  5218                           
  5219                           	psect	text6
  5220  01DE                     __ptext6:	
  5221 ;; *************** function _Power_SetThreshold *****************
  5222 ;; Defined at:
  5223 ;;		line 436 in file "sensor/power.c"
  5224 ;; Parameters:    Size  Location     Type
  5225 ;;  metric          1   28[BANK0 ] unsigned char 
  5226 ;;  thresholdDat    1   29[BANK0 ] PTR unsigned char 
  5227 ;;		 -> main@data(20), 
  5228 ;; Auto vars:     Size  Location     Type
  5229 ;;		None
  5230 ;; Return value:  Size  Location     Type
  5231 ;;                  1    wreg      void 
  5232 ;; Registers used:
  5233 ;;		wreg, fsr1l, fsr1h, status,2, status,0, pclath, cstack
  5234 ;; Tracked objects:
  5235 ;;		On entry : 0/0
  5236 ;;		On exit  : 0/0
  5237 ;;		Unchanged: 0/0
  5238 ;; Data sizes:     COMMON   BANK0   BANK1   BANK2   BANK3   BANK4   BANK5   BANK6   BANK7   BANK8   BANK9  BANK10  BANK1
      +1  BANK12  BANK13  BANK14  BANK15  BANK16  BANK17  BANK18  BANK19  BANK20  BANK21  BANK22  BANK23  BANK24  BANK25
  5239 ;;      Params:         0       2       0       0       0       0       0       0       0       0       0       0       
      +0       0       0       0       0       0       0       0       0       0       0       0       0       0       0
  5240 ;;      Locals:         0       0       0       0       0       0       0       0       0       0       0       0       
      +0       0       0       0       0       0       0       0       0       0       0       0       0       0       0
  5241 ;;      Temps:          0       5       0       0       0       0       0       0       0       0       0       0       
      +0       0       0       0       0       0       0       0       0       0       0       0       0       0       0
  5242 ;;      Totals:         0       7       0       0       0       0       0       0       0       0       0       0       
      +0       0       0       0       0       0       0       0       0       0       0       0       0       0       0
  5243 ;;Total ram usage:        7 bytes
  5244 ;; Hardware stack levels used:    1
  5245 ;; Hardware stack levels required when called:    5
  5246 ;; This function calls:
  5247 ;;		___ftdiv
  5248 ;;		___lwtoft
  5249 ;; This function is called by:
  5250 ;;		_main
  5251 ;; This function uses a non-reentrant model
  5252 ;;
  5253                           
  5254                           
  5255                           ;psect for function _Power_SetThreshold
  5256  01DE                     _Power_SetThreshold:
  5257  01DE                     l3432:	
  5258                           ;incstack = 0
  5259                           ; Regs used in _Power_SetThreshold: [wreg+fsr1l+fsr1h+status,2+status,0+pclath+cstack]
  5260                           
  5261                           
  5262                           ;power.c: 438: if(metric == 0)
  5263  01DE  0140               	movlb	0	; select bank0
  5264  01DF  083C               	movf	Power_SetThreshold@metric,w
  5265  01E0  1D03               	btfss	3,2
  5266  01E1  29E3               	goto	u2061
  5267  01E2  29E4               	goto	u2060
  5268  01E3                     u2061:
  5269  01E3  2A74               	goto	l3444
  5270  01E4                     u2060:
  5271  01E4                     l3434:
  5272                           
  5273                           ;power.c: 439: {;power.c: 440: batThresholdEnabled = thresholdData[0];
  5274  01E4  083D               	movf	Power_SetThreshold@thresholdData,w
  5275  01E5  0086               	movwf	6
  5276  01E6  3001               	movlw	1	; select bank2/3
  5277  01E7  0087               	movwf	7
  5278  01E8  0801               	movf	1,w
  5279  01E9  00BE               	movwf	??_Power_SetThreshold
  5280  01EA  083E               	movf	??_Power_SetThreshold,w
  5281  01EB  00CB               	movwf	_batThresholdEnabled
  5282  01EC                     l3436:
  5283                           
  5284                           ;power.c: 441: batThresholdLevelLow = (uint16_t)((thresholdData[1]<<8) | thresholdData[2
      +                          ]);
  5285  01EC  083D               	movf	Power_SetThreshold@thresholdData,w
  5286  01ED  3E02               	addlw	2
  5287  01EE  0086               	movwf	6
  5288  01EF  3001               	movlw	1	; select bank2/3
  5289  01F0  0087               	movwf	7
  5290  01F1  0801               	movf	1,w
  5291  01F2  00BE               	movwf	??_Power_SetThreshold
  5292  01F3  01BF               	clrf	??_Power_SetThreshold+1
  5293  01F4  0A3D               	incf	Power_SetThreshold@thresholdData,w
  5294  01F5  0086               	movwf	6
  5295  01F6  3001               	movlw	1	; select bank2/3
  5296  01F7  0087               	movwf	7
  5297  01F8  0801               	movf	1,w
  5298  01F9  00C0               	movwf	??_Power_SetThreshold+2
  5299  01FA  01C1               	clrf	??_Power_SetThreshold+3
  5300  01FB  0840               	movf	??_Power_SetThreshold+2,w
  5301  01FC  00C1               	movwf	??_Power_SetThreshold+3
  5302  01FD  01C0               	clrf	??_Power_SetThreshold+2
  5303  01FE  083E               	movf	??_Power_SetThreshold,w
  5304  01FF  0440               	iorwf	??_Power_SetThreshold+2,w
  5305  0200  0141               	movlb	1	; select bank1
  5306  0201  00C6               	movwf	_batThresholdLevelLow^(0+128)
  5307  0202  0140               	movlb	0	; select bank0
  5308  0203  083F               	movf	??_Power_SetThreshold+1,w
  5309  0204  0441               	iorwf	??_Power_SetThreshold+3,w
  5310  0205  0141               	movlb	1	; select bank1
  5311  0206  00C7               	movwf	(_batThresholdLevelLow+1)^(0+128)
  5312  0207                     l3438:
  5313                           
  5314                           ;power.c: 442: floatBatThresholdLevelLow = (float) batThresholdLevelLow / 10000;
  5315  0207  3040               	movlw	64
  5316  0208  0140               	movlb	0	; select bank0
  5317  0209  00AC               	movwf	___ftdiv@f2
  5318  020A  301C               	movlw	28
  5319  020B  00AD               	movwf	___ftdiv@f2+1
  5320  020C  3046               	movlw	70
  5321  020D  00AE               	movwf	___ftdiv@f2+2
  5322  020E  0141               	movlb	1	; select bank1
  5323  020F  0847               	movf	(_batThresholdLevelLow+1)^(0+128),w
  5324  0210  0140               	movlb	0	; select bank0
  5325  0211  00A9               	movwf	___lwtoft@c+1
  5326  0212  0141               	movlb	1	; select bank1
  5327  0213  0846               	movf	_batThresholdLevelLow^(0+128),w
  5328  0214  0140               	movlb	0	; select bank0
  5329  0215  00A8               	movwf	___lwtoft@c
  5330  0216  318F  27EA  3181   	fcall	___lwtoft
  5331  0219  0140               	movlb	0	; select bank0
  5332  021A  0828               	movf	?___lwtoft,w
  5333  021B  00AF               	movwf	___ftdiv@f1
  5334  021C  0829               	movf	?___lwtoft+1,w
  5335  021D  00B0               	movwf	___ftdiv@f1+1
  5336  021E  082A               	movf	?___lwtoft+2,w
  5337  021F  00B1               	movwf	___ftdiv@f1+2
  5338  0220  3183  23E1  3181   	fcall	___ftdiv
  5339  0223  0140               	movlb	0	; select bank0
  5340  0224  082C               	movf	?___ftdiv,w
  5341  0225  0141               	movlb	1	; select bank1
  5342  0226  00B6               	movwf	_floatBatThresholdLevelLow^(0+128)
  5343  0227  0140               	movlb	0	; select bank0
  5344  0228  082D               	movf	?___ftdiv+1,w
  5345  0229  0141               	movlb	1	; select bank1
  5346  022A  00B7               	movwf	(_floatBatThresholdLevelLow+1)^(0+128)
  5347  022B  0140               	movlb	0	; select bank0
  5348  022C  082E               	movf	?___ftdiv+2,w
  5349  022D  0141               	movlb	1	; select bank1
  5350  022E  00B8               	movwf	(_floatBatThresholdLevelLow+2)^(0+128)
  5351  022F                     l3440:
  5352                           
  5353                           ;power.c: 443: batThresholdLevelHigh = (uint16_t)((thresholdData[3]<<8) | thresholdData[
      +                          4]);
  5354  022F  0140               	movlb	0	; select bank0
  5355  0230  083D               	movf	Power_SetThreshold@thresholdData,w
  5356  0231  3E04               	addlw	4
  5357  0232  0086               	movwf	6
  5358  0233  3001               	movlw	1	; select bank2/3
  5359  0234  0087               	movwf	7
  5360  0235  0801               	movf	1,w
  5361  0236  00BE               	movwf	??_Power_SetThreshold
  5362  0237  01BF               	clrf	??_Power_SetThreshold+1
  5363  0238  083D               	movf	Power_SetThreshold@thresholdData,w
  5364  0239  3E03               	addlw	3
  5365  023A  0086               	movwf	6
  5366  023B  3001               	movlw	1	; select bank2/3
  5367  023C  0087               	movwf	7
  5368  023D  0801               	movf	1,w
  5369  023E  00C0               	movwf	??_Power_SetThreshold+2
  5370  023F  01C1               	clrf	??_Power_SetThreshold+3
  5371  0240  0840               	movf	??_Power_SetThreshold+2,w
  5372  0241  00C1               	movwf	??_Power_SetThreshold+3
  5373  0242  01C0               	clrf	??_Power_SetThreshold+2
  5374  0243  083E               	movf	??_Power_SetThreshold,w
  5375  0244  0440               	iorwf	??_Power_SetThreshold+2,w
  5376  0245  0141               	movlb	1	; select bank1
  5377  0246  00C8               	movwf	_batThresholdLevelHigh^(0+128)
  5378  0247  0140               	movlb	0	; select bank0
  5379  0248  083F               	movf	??_Power_SetThreshold+1,w
  5380  0249  0441               	iorwf	??_Power_SetThreshold+3,w
  5381  024A  0141               	movlb	1	; select bank1
  5382  024B  00C9               	movwf	(_batThresholdLevelHigh+1)^(0+128)
  5383  024C                     l3442:
  5384                           
  5385                           ;power.c: 444: floatBatThresholdLevelHigh = (float) batThresholdLevelHigh / 10000;
  5386  024C  3040               	movlw	64
  5387  024D  0140               	movlb	0	; select bank0
  5388  024E  00AC               	movwf	___ftdiv@f2
  5389  024F  301C               	movlw	28
  5390  0250  00AD               	movwf	___ftdiv@f2+1
  5391  0251  3046               	movlw	70
  5392  0252  00AE               	movwf	___ftdiv@f2+2
  5393  0253  0141               	movlb	1	; select bank1
  5394  0254  0849               	movf	(_batThresholdLevelHigh+1)^(0+128),w
  5395  0255  0140               	movlb	0	; select bank0
  5396  0256  00A9               	movwf	___lwtoft@c+1
  5397  0257  0141               	movlb	1	; select bank1
  5398  0258  0848               	movf	_batThresholdLevelHigh^(0+128),w
  5399  0259  0140               	movlb	0	; select bank0
  5400  025A  00A8               	movwf	___lwtoft@c
  5401  025B  318F  27EA  3181   	fcall	___lwtoft
  5402  025E  0140               	movlb	0	; select bank0
  5403  025F  0828               	movf	?___lwtoft,w
  5404  0260  00AF               	movwf	___ftdiv@f1
  5405  0261  0829               	movf	?___lwtoft+1,w
  5406  0262  00B0               	movwf	___ftdiv@f1+1
  5407  0263  082A               	movf	?___lwtoft+2,w
  5408  0264  00B1               	movwf	___ftdiv@f1+2
  5409  0265  3183  23E1  3181   	fcall	___ftdiv
  5410  0268  0140               	movlb	0	; select bank0
  5411  0269  082C               	movf	?___ftdiv,w
  5412  026A  0141               	movlb	1	; select bank1
  5413  026B  00B9               	movwf	_floatBatThresholdLevelHigh^(0+128)
  5414  026C  0140               	movlb	0	; select bank0
  5415  026D  082D               	movf	?___ftdiv+1,w
  5416  026E  0141               	movlb	1	; select bank1
  5417  026F  00BA               	movwf	(_floatBatThresholdLevelHigh+1)^(0+128)
  5418  0270  0140               	movlb	0	; select bank0
  5419  0271  082E               	movf	?___ftdiv+2,w
  5420  0272  0141               	movlb	1	; select bank1
  5421  0273  00BB               	movwf	(_floatBatThresholdLevelHigh+2)^(0+128)
  5422  0274                     l3444:
  5423                           
  5424                           ;power.c: 445: };power.c: 446: if(metric == 1)
  5425  0274  0140               	movlb	0	; select bank0
  5426  0275  033C               	decf	Power_SetThreshold@metric,w
  5427  0276  1D03               	btfss	3,2
  5428  0277  2A79               	goto	u2071
  5429  0278  2A7A               	goto	u2070
  5430  0279                     u2071:
  5431  0279  2AE6               	goto	l3456
  5432  027A                     u2070:
  5433  027A                     l3446:
  5434                           
  5435                           ;power.c: 447: {;power.c: 448: ldrThresholdEnabled = thresholdData[0];
  5436  027A  083D               	movf	Power_SetThreshold@thresholdData,w
  5437  027B  0086               	movwf	6
  5438  027C  3001               	movlw	1	; select bank2/3
  5439  027D  0087               	movwf	7
  5440  027E  0801               	movf	1,w
  5441  027F  00BE               	movwf	??_Power_SetThreshold
  5442  0280  083E               	movf	??_Power_SetThreshold,w
  5443  0281  00CA               	movwf	_ldrThresholdEnabled
  5444  0282                     l3448:
  5445                           
  5446                           ;power.c: 449: ldrThresholdLevelLow = (uint16_t)((thresholdData[1]<<8 | thresholdData[2]
      +                          ));
  5447  0282  083D               	movf	Power_SetThreshold@thresholdData,w
  5448  0283  3E02               	addlw	2
  5449  0284  0086               	movwf	6
  5450  0285  3001               	movlw	1	; select bank2/3
  5451  0286  0087               	movwf	7
  5452  0287  0801               	movf	1,w
  5453  0288  00BE               	movwf	??_Power_SetThreshold
  5454  0289  01BF               	clrf	??_Power_SetThreshold+1
  5455  028A  0A3D               	incf	Power_SetThreshold@thresholdData,w
  5456  028B  0086               	movwf	6
  5457  028C  3001               	movlw	1	; select bank2/3
  5458  028D  0087               	movwf	7
  5459  028E  0801               	movf	1,w
  5460  028F  00C0               	movwf	??_Power_SetThreshold+2
  5461  0290  01C1               	clrf	??_Power_SetThreshold+3
  5462  0291  0840               	movf	??_Power_SetThreshold+2,w
  5463  0292  00C1               	movwf	??_Power_SetThreshold+3
  5464  0293  01C0               	clrf	??_Power_SetThreshold+2
  5465  0294  083E               	movf	??_Power_SetThreshold,w
  5466  0295  0440               	iorwf	??_Power_SetThreshold+2,w
  5467  0296  0141               	movlb	1	; select bank1
  5468  0297  00C2               	movwf	_ldrThresholdLevelLow^(0+128)
  5469  0298  0140               	movlb	0	; select bank0
  5470  0299  083F               	movf	??_Power_SetThreshold+1,w
  5471  029A  0441               	iorwf	??_Power_SetThreshold+3,w
  5472  029B  0141               	movlb	1	; select bank1
  5473  029C  00C3               	movwf	(_ldrThresholdLevelLow+1)^(0+128)
  5474  029D                     l3450:
  5475                           
  5476                           ;power.c: 450: floatLDRThresholdLevelLow = (float) ldrThresholdLevelLow;
  5477  029D  0843               	movf	(_ldrThresholdLevelLow+1)^(0+128),w
  5478  029E  0140               	movlb	0	; select bank0
  5479  029F  00A9               	movwf	___lwtoft@c+1
  5480  02A0  0141               	movlb	1	; select bank1
  5481  02A1  0842               	movf	_ldrThresholdLevelLow^(0+128),w
  5482  02A2  0140               	movlb	0	; select bank0
  5483  02A3  00A8               	movwf	___lwtoft@c
  5484  02A4  318F  27EA  3181   	fcall	___lwtoft
  5485  02A7  0140               	movlb	0	; select bank0
  5486  02A8  0828               	movf	?___lwtoft,w
  5487  02A9  0141               	movlb	1	; select bank1
  5488  02AA  00B0               	movwf	_floatLDRThresholdLevelLow^(0+128)
  5489  02AB  0140               	movlb	0	; select bank0
  5490  02AC  0829               	movf	?___lwtoft+1,w
  5491  02AD  0141               	movlb	1	; select bank1
  5492  02AE  00B1               	movwf	(_floatLDRThresholdLevelLow+1)^(0+128)
  5493  02AF  0140               	movlb	0	; select bank0
  5494  02B0  082A               	movf	?___lwtoft+2,w
  5495  02B1  0141               	movlb	1	; select bank1
  5496  02B2  00B2               	movwf	(_floatLDRThresholdLevelLow+2)^(0+128)
  5497  02B3                     l3452:
  5498                           
  5499                           ;power.c: 451: ldrThresholdLevelHigh = (uint16_t)((thresholdData[3]<<8 | thresholdData[4
      +                          ]));
  5500  02B3  0140               	movlb	0	; select bank0
  5501  02B4  083D               	movf	Power_SetThreshold@thresholdData,w
  5502  02B5  3E04               	addlw	4
  5503  02B6  0086               	movwf	6
  5504  02B7  3001               	movlw	1	; select bank2/3
  5505  02B8  0087               	movwf	7
  5506  02B9  0801               	movf	1,w
  5507  02BA  00BE               	movwf	??_Power_SetThreshold
  5508  02BB  01BF               	clrf	??_Power_SetThreshold+1
  5509  02BC  083D               	movf	Power_SetThreshold@thresholdData,w
  5510  02BD  3E03               	addlw	3
  5511  02BE  0086               	movwf	6
  5512  02BF  3001               	movlw	1	; select bank2/3
  5513  02C0  0087               	movwf	7
  5514  02C1  0801               	movf	1,w
  5515  02C2  00C0               	movwf	??_Power_SetThreshold+2
  5516  02C3  01C1               	clrf	??_Power_SetThreshold+3
  5517  02C4  0840               	movf	??_Power_SetThreshold+2,w
  5518  02C5  00C1               	movwf	??_Power_SetThreshold+3
  5519  02C6  01C0               	clrf	??_Power_SetThreshold+2
  5520  02C7  083E               	movf	??_Power_SetThreshold,w
  5521  02C8  0440               	iorwf	??_Power_SetThreshold+2,w
  5522  02C9  0141               	movlb	1	; select bank1
  5523  02CA  00C4               	movwf	_ldrThresholdLevelHigh^(0+128)
  5524  02CB  0140               	movlb	0	; select bank0
  5525  02CC  083F               	movf	??_Power_SetThreshold+1,w
  5526  02CD  0441               	iorwf	??_Power_SetThreshold+3,w
  5527  02CE  0141               	movlb	1	; select bank1
  5528  02CF  00C5               	movwf	(_ldrThresholdLevelHigh+1)^(0+128)
  5529  02D0                     l3454:
  5530                           
  5531                           ;power.c: 452: floatLDRThresholdLevelHigh = (float) ldrThresholdLevelHigh;
  5532  02D0  0845               	movf	(_ldrThresholdLevelHigh+1)^(0+128),w
  5533  02D1  0140               	movlb	0	; select bank0
  5534  02D2  00A9               	movwf	___lwtoft@c+1
  5535  02D3  0141               	movlb	1	; select bank1
  5536  02D4  0844               	movf	_ldrThresholdLevelHigh^(0+128),w
  5537  02D5  0140               	movlb	0	; select bank0
  5538  02D6  00A8               	movwf	___lwtoft@c
  5539  02D7  318F  27EA  3181   	fcall	___lwtoft
  5540  02DA  0140               	movlb	0	; select bank0
  5541  02DB  0828               	movf	?___lwtoft,w
  5542  02DC  0141               	movlb	1	; select bank1
  5543  02DD  00B3               	movwf	_floatLDRThresholdLevelHigh^(0+128)
  5544  02DE  0140               	movlb	0	; select bank0
  5545  02DF  0829               	movf	?___lwtoft+1,w
  5546  02E0  0141               	movlb	1	; select bank1
  5547  02E1  00B4               	movwf	(_floatLDRThresholdLevelHigh+1)^(0+128)
  5548  02E2  0140               	movlb	0	; select bank0
  5549  02E3  082A               	movf	?___lwtoft+2,w
  5550  02E4  0141               	movlb	1	; select bank1
  5551  02E5  00B5               	movwf	(_floatLDRThresholdLevelHigh+2)^(0+128)
  5552  02E6                     l3456:
  5553                           
  5554                           ;power.c: 453: };power.c: 455: if(batThresholdEnabled || ldrThresholdEnabled)
  5555  02E6  0140               	movlb	0	; select bank0
  5556  02E7  084B               	movf	_batThresholdEnabled,w
  5557  02E8  1D03               	btfss	3,2
  5558  02E9  2AEB               	goto	u2081
  5559  02EA  2AEC               	goto	u2080
  5560  02EB                     u2081:
  5561  02EB  2AF1               	goto	l828
  5562  02EC                     u2080:
  5563  02EC                     l3458:
  5564  02EC  084A               	movf	_ldrThresholdEnabled,w
  5565  02ED  1903               	btfsc	3,2
  5566  02EE  2AF0               	goto	u2091
  5567  02EF  2AF1               	goto	u2090
  5568  02F0                     u2091:
  5569  02F0  2AF7               	goto	l826
  5570  02F1                     u2090:
  5571  02F1                     l828:
  5572                           
  5573                           ;power.c: 456: {;power.c: 457: WDTCON0bits.SEN = 0;
  5574  02F1  0150               	movlb	16	; select bank16
  5575  02F2  100C               	bcf	12,0	;volatile
  5576  02F3  0064               	clrwdt	;# 
  5577                           
  5578                           ;power.c: 459: WDTCON0bits.SEN = 1;
  5579  02F4  0150               	movlb	16	; select bank16
  5580  02F5  140C               	bsf	12,0	;volatile
  5581                           
  5582                           ;power.c: 460: }else{
  5583  02F6  2AF9               	goto	l830
  5584  02F7                     l826:
  5585                           
  5586                           ;power.c: 461: WDTCON0bits.SEN = 0;
  5587  02F7  0150               	movlb	16	; select bank16
  5588  02F8  100C               	bcf	12,0	;volatile
  5589  02F9                     l830:
  5590  02F9  0008               	return
  5591  02FA                     __end_of_Power_SetThreshold:
  5592                           
  5593                           	psect	text7
  5594  0FEA                     __ptext7:	
  5595 ;; *************** function ___lwtoft *****************
  5596 ;; Defined at:
  5597 ;;		line 28 in file "C:\Program Files\Microchip\xc8\v2.30\pic\sources\c90\common\lwtoft.c"
  5598 ;; Parameters:    Size  Location     Type
  5599 ;;  c               2    8[BANK0 ] unsigned int 
  5600 ;; Auto vars:     Size  Location     Type
  5601 ;;		None
  5602 ;; Return value:  Size  Location     Type
  5603 ;;                  3    8[BANK0 ] float 
  5604 ;; Registers used:
  5605 ;;		wreg, status,2, status,0, pclath, cstack
  5606 ;; Tracked objects:
  5607 ;;		On entry : 0/0
  5608 ;;		On exit  : 0/0
  5609 ;;		Unchanged: 0/0
  5610 ;; Data sizes:     COMMON   BANK0   BANK1   BANK2   BANK3   BANK4   BANK5   BANK6   BANK7   BANK8   BANK9  BANK10  BANK1
      +1  BANK12  BANK13  BANK14  BANK15  BANK16  BANK17  BANK18  BANK19  BANK20  BANK21  BANK22  BANK23  BANK24  BANK25
  5611 ;;      Params:         0       3       0       0       0       0       0       0       0       0       0       0       
      +0       0       0       0       0       0       0       0       0       0       0       0       0       0       0
  5612 ;;      Locals:         0       0       0       0       0       0       0       0       0       0       0       0       
      +0       0       0       0       0       0       0       0       0       0       0       0       0       0       0
  5613 ;;      Temps:          0       1       0       0       0       0       0       0       0       0       0       0       
      +0       0       0       0       0       0       0       0       0       0       0       0       0       0       0
  5614 ;;      Totals:         0       4       0       0       0       0       0       0       0       0       0       0       
      +0       0       0       0       0       0       0       0       0       0       0       0       0       0       0
  5615 ;;Total ram usage:        4 bytes
  5616 ;; Hardware stack levels used:    1
  5617 ;; Hardware stack levels required when called:    4
  5618 ;; This function calls:
  5619 ;;		___ftpack
  5620 ;; This function is called by:
  5621 ;;		_Power_SetThreshold
  5622 ;; This function uses a non-reentrant model
  5623 ;;
  5624                           
  5625                           
  5626                           ;psect for function ___lwtoft
  5627  0FEA                     ___lwtoft:
  5628  0FEA                     l3288:	
  5629                           ;incstack = 0
  5630                           ; Regs used in ___lwtoft: [wreg+status,2+status,0+pclath+cstack]
  5631                           
  5632  0FEA  0140               	movlb	0	; select bank0
  5633  0FEB  0828               	movf	___lwtoft@c,w
  5634  0FEC  00A0               	movwf	___ftpack@arg
  5635  0FED  0829               	movf	___lwtoft@c+1,w
  5636  0FEE  00A1               	movwf	___ftpack@arg+1
  5637  0FEF  01A2               	clrf	___ftpack@arg+2
  5638  0FF0  308E               	movlw	142
  5639  0FF1  00AB               	movwf	??___lwtoft
  5640  0FF2  082B               	movf	??___lwtoft,w
  5641  0FF3  00A3               	movwf	___ftpack@exp
  5642  0FF4  01A4               	clrf	___ftpack@sign
  5643  0FF5  3185  2531  318F   	fcall	___ftpack
  5644  0FF8  0140               	movlb	0	; select bank0
  5645  0FF9  0820               	movf	?___ftpack,w
  5646  0FFA  00A8               	movwf	?___lwtoft
  5647  0FFB  0821               	movf	?___ftpack+1,w
  5648  0FFC  00A9               	movwf	?___lwtoft+1
  5649  0FFD  0822               	movf	?___ftpack+2,w
  5650  0FFE  00AA               	movwf	?___lwtoft+2
  5651  0FFF                     l1476:
  5652  0FFF  0008               	return
  5653  1000                     __end_of___lwtoft:
  5654                           
  5655                           	psect	text8
  5656  03E1                     __ptext8:	
  5657 ;; *************** function ___ftdiv *****************
  5658 ;; Defined at:
  5659 ;;		line 56 in file "C:\Program Files\Microchip\xc8\v2.30\pic\sources\c90\common\ftdiv.c"
  5660 ;; Parameters:    Size  Location     Type
  5661 ;;  f2              3   12[BANK0 ] float 
  5662 ;;  f1              3   15[BANK0 ] float 
  5663 ;; Auto vars:     Size  Location     Type
  5664 ;;  f3              3   23[BANK0 ] float 
  5665 ;;  sign            1   27[BANK0 ] unsigned char 
  5666 ;;  exp             1   26[BANK0 ] unsigned char 
  5667 ;;  cntr            1   22[BANK0 ] unsigned char 
  5668 ;; Return value:  Size  Location     Type
  5669 ;;                  3   12[BANK0 ] float 
  5670 ;; Registers used:
  5671 ;;		wreg, status,2, status,0, pclath, cstack
  5672 ;; Tracked objects:
  5673 ;;		On entry : 0/0
  5674 ;;		On exit  : 0/0
  5675 ;;		Unchanged: 0/0
  5676 ;; Data sizes:     COMMON   BANK0   BANK1   BANK2   BANK3   BANK4   BANK5   BANK6   BANK7   BANK8   BANK9  BANK10  BANK1
      +1  BANK12  BANK13  BANK14  BANK15  BANK16  BANK17  BANK18  BANK19  BANK20  BANK21  BANK22  BANK23  BANK24  BANK25
  5677 ;;      Params:         0       6       0       0       0       0       0       0       0       0       0       0       
      +0       0       0       0       0       0       0       0       0       0       0       0       0       0       0
  5678 ;;      Locals:         0       6       0       0       0       0       0       0       0       0       0       0       
      +0       0       0       0       0       0       0       0       0       0       0       0       0       0       0
  5679 ;;      Temps:          0       4       0       0       0       0       0       0       0       0       0       0       
      +0       0       0       0       0       0       0       0       0       0       0       0       0       0       0
  5680 ;;      Totals:         0      16       0       0       0       0       0       0       0       0       0       0       
      +0       0       0       0       0       0       0       0       0       0       0       0       0       0       0
  5681 ;;Total ram usage:       16 bytes
  5682 ;; Hardware stack levels used:    1
  5683 ;; Hardware stack levels required when called:    4
  5684 ;; This function calls:
  5685 ;;		___ftpack
  5686 ;; This function is called by:
  5687 ;;		_Power_SetThreshold
  5688 ;; This function uses a non-reentrant model
  5689 ;;
  5690                           
  5691                           
  5692                           ;psect for function ___ftdiv
  5693  03E1                     ___ftdiv:
  5694  03E1                     l3246:	
  5695                           ;incstack = 0
  5696                           ; Regs used in ___ftdiv: [wreg+status,2+status,0+pclath+cstack]
  5697                           
  5698  03E1  0140               	movlb	0	; select bank0
  5699  03E2  082F               	movf	___ftdiv@f1,w
  5700  03E3  00B2               	movwf	??___ftdiv
  5701  03E4  0830               	movf	___ftdiv@f1+1,w
  5702  03E5  00B3               	movwf	??___ftdiv+1
  5703  03E6  0831               	movf	___ftdiv@f1+2,w
  5704  03E7  00B4               	movwf	??___ftdiv+2
  5705  03E8  1003               	clrc
  5706  03E9  0D33               	rlf	??___ftdiv+1,w
  5707  03EA  0D34               	rlf	??___ftdiv+2,w
  5708  03EB  00B5               	movwf	??___ftdiv+3
  5709  03EC  0835               	movf	??___ftdiv+3,w
  5710  03ED  00BA               	movwf	___ftdiv@exp
  5711  03EE  083A               	movf	___ftdiv@exp,w
  5712  03EF  1D03               	btfss	3,2
  5713  03F0  2BF2               	goto	u1841
  5714  03F1  2BF3               	goto	u1840
  5715  03F2                     u1841:
  5716  03F2  2BFA               	goto	l3252
  5717  03F3                     u1840:
  5718  03F3                     l3248:
  5719  03F3  3000               	movlw	0
  5720  03F4  00AC               	movwf	?___ftdiv
  5721  03F5  3000               	movlw	0
  5722  03F6  00AD               	movwf	?___ftdiv+1
  5723  03F7  3000               	movlw	0
  5724  03F8  00AE               	movwf	?___ftdiv+2
  5725  03F9  2C92               	goto	l1313
  5726  03FA                     l3252:
  5727  03FA  082C               	movf	___ftdiv@f2,w
  5728  03FB  00B2               	movwf	??___ftdiv
  5729  03FC  082D               	movf	___ftdiv@f2+1,w
  5730  03FD  00B3               	movwf	??___ftdiv+1
  5731  03FE  082E               	movf	___ftdiv@f2+2,w
  5732  03FF  00B4               	movwf	??___ftdiv+2
  5733  0400  1003               	clrc
  5734  0401  0D33               	rlf	??___ftdiv+1,w
  5735  0402  0D34               	rlf	??___ftdiv+2,w
  5736  0403  00B5               	movwf	??___ftdiv+3
  5737  0404  0835               	movf	??___ftdiv+3,w
  5738  0405  00BB               	movwf	___ftdiv@sign
  5739  0406  083B               	movf	___ftdiv@sign,w
  5740  0407  1D03               	btfss	3,2
  5741  0408  2C0A               	goto	u1851
  5742  0409  2C0B               	goto	u1850
  5743  040A                     u1851:
  5744  040A  2C12               	goto	l3258
  5745  040B                     u1850:
  5746  040B                     l3254:
  5747  040B  3000               	movlw	0
  5748  040C  00AC               	movwf	?___ftdiv
  5749  040D  3000               	movlw	0
  5750  040E  00AD               	movwf	?___ftdiv+1
  5751  040F  3000               	movlw	0
  5752  0410  00AE               	movwf	?___ftdiv+2
  5753  0411  2C92               	goto	l1313
  5754  0412                     l3258:
  5755  0412  3000               	movlw	0
  5756  0413  00B7               	movwf	___ftdiv@f3
  5757  0414  3000               	movlw	0
  5758  0415  00B8               	movwf	___ftdiv@f3+1
  5759  0416  3000               	movlw	0
  5760  0417  00B9               	movwf	___ftdiv@f3+2
  5761  0418                     l3260:
  5762  0418  3089               	movlw	137
  5763  0419  073B               	addwf	___ftdiv@sign,w
  5764  041A  00B2               	movwf	??___ftdiv
  5765  041B  0832               	movf	??___ftdiv,w
  5766  041C  02BA               	subwf	___ftdiv@exp,f
  5767  041D                     l3262:
  5768  041D  082F               	movf	___ftdiv@f1,w
  5769  041E  00B2               	movwf	??___ftdiv
  5770  041F  0830               	movf	___ftdiv@f1+1,w
  5771  0420  00B3               	movwf	??___ftdiv+1
  5772  0421  0831               	movf	___ftdiv@f1+2,w
  5773  0422  00B4               	movwf	??___ftdiv+2
  5774  0423  3010               	movlw	16
  5775  0424                     u1865:
  5776  0424  36B4               	lsrf	??___ftdiv+2,f
  5777  0425  0CB3               	rrf	??___ftdiv+1,f
  5778  0426  0CB2               	rrf	??___ftdiv,f
  5779  0427                     u1860:
  5780  0427  0B89               	decfsz	9,f
  5781  0428  2C24               	goto	u1865
  5782  0429  0832               	movf	??___ftdiv,w
  5783  042A  00B5               	movwf	??___ftdiv+3
  5784  042B  0835               	movf	??___ftdiv+3,w
  5785  042C  00BB               	movwf	___ftdiv@sign
  5786  042D                     l3264:
  5787  042D  082C               	movf	___ftdiv@f2,w
  5788  042E  00B2               	movwf	??___ftdiv
  5789  042F  082D               	movf	___ftdiv@f2+1,w
  5790  0430  00B3               	movwf	??___ftdiv+1
  5791  0431  082E               	movf	___ftdiv@f2+2,w
  5792  0432  00B4               	movwf	??___ftdiv+2
  5793  0433  3010               	movlw	16
  5794  0434                     u1875:
  5795  0434  36B4               	lsrf	??___ftdiv+2,f
  5796  0435  0CB3               	rrf	??___ftdiv+1,f
  5797  0436  0CB2               	rrf	??___ftdiv,f
  5798  0437                     u1870:
  5799  0437  0B89               	decfsz	9,f
  5800  0438  2C34               	goto	u1875
  5801  0439  0832               	movf	??___ftdiv,w
  5802  043A  00B5               	movwf	??___ftdiv+3
  5803  043B  0835               	movf	??___ftdiv+3,w
  5804  043C  06BB               	xorwf	___ftdiv@sign,f
  5805  043D                     l3266:
  5806  043D  3080               	movlw	128
  5807  043E  00B2               	movwf	??___ftdiv
  5808  043F  0832               	movf	??___ftdiv,w
  5809  0440  05BB               	andwf	___ftdiv@sign,f
  5810  0441                     l3268:
  5811  0441  17B0               	bsf	___ftdiv@f1+1,7
  5812  0442  30FF               	movlw	255
  5813  0443  05AF               	andwf	___ftdiv@f1,f
  5814  0444  30FF               	movlw	255
  5815  0445  05B0               	andwf	___ftdiv@f1+1,f
  5816  0446  3000               	movlw	0
  5817  0447  05B1               	andwf	___ftdiv@f1+2,f
  5818  0448                     l3270:
  5819  0448  17AD               	bsf	___ftdiv@f2+1,7
  5820  0449  30FF               	movlw	255
  5821  044A  05AC               	andwf	___ftdiv@f2,f
  5822  044B  30FF               	movlw	255
  5823  044C  05AD               	andwf	___ftdiv@f2+1,f
  5824  044D  3000               	movlw	0
  5825  044E  05AE               	andwf	___ftdiv@f2+2,f
  5826  044F  3018               	movlw	24
  5827  0450  00B2               	movwf	??___ftdiv
  5828  0451  0832               	movf	??___ftdiv,w
  5829  0452  00B6               	movwf	___ftdiv@cntr
  5830  0453                     l3272:
  5831  0453  3001               	movlw	1
  5832  0454                     u1885:
  5833  0454  35B7               	lslf	___ftdiv@f3,f
  5834  0455  0DB8               	rlf	___ftdiv@f3+1,f
  5835  0456  0DB9               	rlf	___ftdiv@f3+2,f
  5836  0457  0B89               	decfsz	9,f
  5837  0458  2C54               	goto	u1885
  5838  0459                     l3274:
  5839  0459  082E               	movf	___ftdiv@f2+2,w
  5840  045A  0231               	subwf	___ftdiv@f1+2,w
  5841  045B  1D03               	skipz
  5842  045C  2C63               	goto	u1895
  5843  045D  082D               	movf	___ftdiv@f2+1,w
  5844  045E  0230               	subwf	___ftdiv@f1+1,w
  5845  045F  1D03               	skipz
  5846  0460  2C63               	goto	u1895
  5847  0461  082C               	movf	___ftdiv@f2,w
  5848  0462  022F               	subwf	___ftdiv@f1,w
  5849  0463                     u1895:
  5850  0463  1C03               	skipc
  5851  0464  2C66               	goto	u1891
  5852  0465  2C67               	goto	u1890
  5853  0466                     u1891:
  5854  0466  2C6E               	goto	l3280
  5855  0467                     u1890:
  5856  0467                     l3276:
  5857  0467  082C               	movf	___ftdiv@f2,w
  5858  0468  02AF               	subwf	___ftdiv@f1,f
  5859  0469  082D               	movf	___ftdiv@f2+1,w
  5860  046A  3BB0               	subwfb	___ftdiv@f1+1,f
  5861  046B  082E               	movf	___ftdiv@f2+2,w
  5862  046C  3BB1               	subwfb	___ftdiv@f1+2,f
  5863  046D                     l3278:
  5864  046D  1437               	bsf	___ftdiv@f3,0
  5865  046E                     l3280:
  5866  046E  3001               	movlw	1
  5867  046F                     u1905:
  5868  046F  35AF               	lslf	___ftdiv@f1,f
  5869  0470  0DB0               	rlf	___ftdiv@f1+1,f
  5870  0471  0DB1               	rlf	___ftdiv@f1+2,f
  5871  0472  0B89               	decfsz	9,f
  5872  0473  2C6F               	goto	u1905
  5873  0474                     l3282:
  5874  0474  3001               	movlw	1
  5875  0475  02B6               	subwf	___ftdiv@cntr,f
  5876  0476  1D03               	btfss	3,2
  5877  0477  2C79               	goto	u1911
  5878  0478  2C7A               	goto	u1910
  5879  0479                     u1911:
  5880  0479  2C53               	goto	l3272
  5881  047A                     u1910:
  5882  047A                     l3284:
  5883  047A  0837               	movf	___ftdiv@f3,w
  5884  047B  00A0               	movwf	___ftpack@arg
  5885  047C  0838               	movf	___ftdiv@f3+1,w
  5886  047D  00A1               	movwf	___ftpack@arg+1
  5887  047E  0839               	movf	___ftdiv@f3+2,w
  5888  047F  00A2               	movwf	___ftpack@arg+2
  5889  0480  083A               	movf	___ftdiv@exp,w
  5890  0481  00B2               	movwf	??___ftdiv
  5891  0482  0832               	movf	??___ftdiv,w
  5892  0483  00A3               	movwf	___ftpack@exp
  5893  0484  083B               	movf	___ftdiv@sign,w
  5894  0485  00B3               	movwf	??___ftdiv+1
  5895  0486  0833               	movf	??___ftdiv+1,w
  5896  0487  00A4               	movwf	___ftpack@sign
  5897  0488  3185  2531  3183   	fcall	___ftpack
  5898  048B  0140               	movlb	0	; select bank0
  5899  048C  0820               	movf	?___ftpack,w
  5900  048D  00AC               	movwf	?___ftdiv
  5901  048E  0821               	movf	?___ftpack+1,w
  5902  048F  00AD               	movwf	?___ftdiv+1
  5903  0490  0822               	movf	?___ftpack+2,w
  5904  0491  00AE               	movwf	?___ftdiv+2
  5905  0492                     l1313:
  5906  0492  0008               	return
  5907  0493                     __end_of___ftdiv:
  5908                           
  5909                           	psect	text9
  5910  0531                     __ptext9:	
  5911 ;; *************** function ___ftpack *****************
  5912 ;; Defined at:
  5913 ;;		line 62 in file "C:\Program Files\Microchip\xc8\v2.30\pic\sources\c90\common\float.c"
  5914 ;; Parameters:    Size  Location     Type
  5915 ;;  arg             3    0[BANK0 ] unsigned um
  5916 ;;  exp             1    3[BANK0 ] unsigned char 
  5917 ;;  sign            1    4[BANK0 ] unsigned char 
  5918 ;; Auto vars:     Size  Location     Type
  5919 ;;		None
  5920 ;; Return value:  Size  Location     Type
  5921 ;;                  3    0[BANK0 ] float 
  5922 ;; Registers used:
  5923 ;;		wreg, status,2, status,0
  5924 ;; Tracked objects:
  5925 ;;		On entry : 0/0
  5926 ;;		On exit  : 0/0
  5927 ;;		Unchanged: 0/0
  5928 ;; Data sizes:     COMMON   BANK0   BANK1   BANK2   BANK3   BANK4   BANK5   BANK6   BANK7   BANK8   BANK9  BANK10  BANK1
      +1  BANK12  BANK13  BANK14  BANK15  BANK16  BANK17  BANK18  BANK19  BANK20  BANK21  BANK22  BANK23  BANK24  BANK25
  5929 ;;      Params:         0       5       0       0       0       0       0       0       0       0       0       0       
      +0       0       0       0       0       0       0       0       0       0       0       0       0       0       0
  5930 ;;      Locals:         0       0       0       0       0       0       0       0       0       0       0       0       
      +0       0       0       0       0       0       0       0       0       0       0       0       0       0       0
  5931 ;;      Temps:          0       3       0       0       0       0       0       0       0       0       0       0       
      +0       0       0       0       0       0       0       0       0       0       0       0       0       0       0
  5932 ;;      Totals:         0       8       0       0       0       0       0       0       0       0       0       0       
      +0       0       0       0       0       0       0       0       0       0       0       0       0       0       0
  5933 ;;Total ram usage:        8 bytes
  5934 ;; Hardware stack levels used:    1
  5935 ;; Hardware stack levels required when called:    3
  5936 ;; This function calls:
  5937 ;;		Nothing
  5938 ;; This function is called by:
  5939 ;;		___ftdiv
  5940 ;;		___lwtoft
  5941 ;; This function uses a non-reentrant model
  5942 ;;
  5943                           
  5944                           
  5945                           ;psect for function ___ftpack
  5946  0531                     ___ftpack:
  5947  0531                     l3098:	
  5948                           ;incstack = 0
  5949                           ; Regs used in ___ftpack: [wreg+status,2+status,0]
  5950                           
  5951  0531  0140               	movlb	0	; select bank0
  5952  0532  0823               	movf	___ftpack@exp,w
  5953  0533  1903               	btfsc	3,2
  5954  0534  2D36               	goto	u1721
  5955  0535  2D37               	goto	u1720
  5956  0536                     u1721:
  5957  0536  2D3E               	goto	l3102
  5958  0537                     u1720:
  5959  0537                     l3100:
  5960  0537  0822               	movf	___ftpack@arg+2,w
  5961  0538  0421               	iorwf	___ftpack@arg+1,w
  5962  0539  0420               	iorwf	___ftpack@arg,w
  5963  053A  1D03               	skipz
  5964  053B  2D3D               	goto	u1731
  5965  053C  2D3E               	goto	u1730
  5966  053D                     u1731:
  5967  053D  2D4F               	goto	l3108
  5968  053E                     u1730:
  5969  053E                     l3102:
  5970  053E  3000               	movlw	0
  5971  053F  00A0               	movwf	?___ftpack
  5972  0540  3000               	movlw	0
  5973  0541  00A1               	movwf	?___ftpack+1
  5974  0542  3000               	movlw	0
  5975  0543  00A2               	movwf	?___ftpack+2
  5976  0544  2DA5               	goto	l1261
  5977  0545                     l3106:
  5978  0545  3001               	movlw	1
  5979  0546  00A5               	movwf	??___ftpack
  5980  0547  0825               	movf	??___ftpack,w
  5981  0548  07A3               	addwf	___ftpack@exp,f
  5982  0549  3001               	movlw	1
  5983  054A                     u1745:
  5984  054A  36A2               	lsrf	___ftpack@arg+2,f
  5985  054B  0CA1               	rrf	___ftpack@arg+1,f
  5986  054C  0CA0               	rrf	___ftpack@arg,f
  5987  054D  0B89               	decfsz	9,f
  5988  054E  2D4A               	goto	u1745
  5989  054F                     l3108:
  5990  054F  30FE               	movlw	254
  5991  0550  0522               	andwf	___ftpack@arg+2,w
  5992  0551  1D03               	btfss	3,2
  5993  0552  2D54               	goto	u1751
  5994  0553  2D55               	goto	u1750
  5995  0554                     u1751:
  5996  0554  2D45               	goto	l3106
  5997  0555                     u1750:
  5998  0555  2D6A               	goto	l1265
  5999  0556                     l3110:
  6000  0556  3001               	movlw	1
  6001  0557  00A5               	movwf	??___ftpack
  6002  0558  0825               	movf	??___ftpack,w
  6003  0559  07A3               	addwf	___ftpack@exp,f
  6004  055A                     l3112:
  6005  055A  3001               	movlw	1
  6006  055B  07A0               	addwf	___ftpack@arg,f
  6007  055C  3000               	movlw	0
  6008  055D  1803               	skipnc
  6009  055E  3001               	movlw	1
  6010  055F  07A1               	addwf	___ftpack@arg+1,f
  6011  0560  3000               	movlw	0
  6012  0561  1803               	skipnc
  6013  0562  3001               	movlw	1
  6014  0563  07A2               	addwf	___ftpack@arg+2,f
  6015  0564                     l3114:
  6016  0564  3001               	movlw	1
  6017  0565                     u1765:
  6018  0565  36A2               	lsrf	___ftpack@arg+2,f
  6019  0566  0CA1               	rrf	___ftpack@arg+1,f
  6020  0567  0CA0               	rrf	___ftpack@arg,f
  6021  0568  0B89               	decfsz	9,f
  6022  0569  2D65               	goto	u1765
  6023  056A                     l1265:
  6024  056A  30FF               	movlw	255
  6025  056B  0522               	andwf	___ftpack@arg+2,w
  6026  056C  1D03               	btfss	3,2
  6027  056D  2D6F               	goto	u1771
  6028  056E  2D70               	goto	u1770
  6029  056F                     u1771:
  6030  056F  2D56               	goto	l3110
  6031  0570                     u1770:
  6032  0570  2D79               	goto	l3118
  6033  0571                     l3116:
  6034  0571  3001               	movlw	1
  6035  0572  02A3               	subwf	___ftpack@exp,f
  6036  0573  3001               	movlw	1
  6037  0574                     u1785:
  6038  0574  35A0               	lslf	___ftpack@arg,f
  6039  0575  0DA1               	rlf	___ftpack@arg+1,f
  6040  0576  0DA2               	rlf	___ftpack@arg+2,f
  6041  0577  0B89               	decfsz	9,f
  6042  0578  2D74               	goto	u1785
  6043  0579                     l3118:
  6044  0579  1BA1               	btfsc	___ftpack@arg+1,7
  6045  057A  2D7C               	goto	u1791
  6046  057B  2D7D               	goto	u1790
  6047  057C                     u1791:
  6048  057C  2D83               	goto	l1272
  6049  057D                     u1790:
  6050  057D                     l3120:
  6051  057D  3002               	movlw	2
  6052  057E  0223               	subwf	___ftpack@exp,w
  6053  057F  1803               	skipnc
  6054  0580  2D82               	goto	u1801
  6055  0581  2D83               	goto	u1800
  6056  0582                     u1801:
  6057  0582  2D71               	goto	l3116
  6058  0583                     u1800:
  6059  0583                     l1272:
  6060  0583  1823               	btfsc	___ftpack@exp,0
  6061  0584  2D86               	goto	u1811
  6062  0585  2D87               	goto	u1810
  6063  0586                     u1811:
  6064  0586  2D8D               	goto	l1273
  6065  0587                     u1810:
  6066  0587                     l3122:
  6067  0587  30FF               	movlw	255
  6068  0588  05A0               	andwf	___ftpack@arg,f
  6069  0589  307F               	movlw	127
  6070  058A  05A1               	andwf	___ftpack@arg+1,f
  6071  058B  30FF               	movlw	255
  6072  058C  05A2               	andwf	___ftpack@arg+2,f
  6073  058D                     l1273:
  6074  058D  1003               	clrc
  6075  058E  0CA3               	rrf	___ftpack@exp,f
  6076  058F                     l3124:
  6077  058F  0823               	movf	___ftpack@exp,w
  6078  0590  00A5               	movwf	??___ftpack
  6079  0591  01A6               	clrf	??___ftpack+1
  6080  0592  01A7               	clrf	??___ftpack+2
  6081  0593  3010               	movlw	16
  6082  0594                     u1825:
  6083  0594  35A5               	lslf	??___ftpack,f
  6084  0595  0DA6               	rlf	??___ftpack+1,f
  6085  0596  0DA7               	rlf	??___ftpack+2,f
  6086  0597                     u1820:
  6087  0597  0B89               	decfsz	9,f
  6088  0598  2D94               	goto	u1825
  6089  0599  0825               	movf	??___ftpack,w
  6090  059A  04A0               	iorwf	___ftpack@arg,f
  6091  059B  0826               	movf	??___ftpack+1,w
  6092  059C  04A1               	iorwf	___ftpack@arg+1,f
  6093  059D  0827               	movf	??___ftpack+2,w
  6094  059E  04A2               	iorwf	___ftpack@arg+2,f
  6095  059F                     l3126:
  6096  059F  0824               	movf	___ftpack@sign,w
  6097  05A0  1903               	btfsc	3,2
  6098  05A1  2DA3               	goto	u1831
  6099  05A2  2DA4               	goto	u1830
  6100  05A3                     u1831:
  6101  05A3  2DA5               	goto	l1274
  6102  05A4                     u1830:
  6103  05A4                     l3128:
  6104  05A4  17A2               	bsf	___ftpack@arg+2,7
  6105  05A5                     l1274:
  6106  05A5                     l1261:
  6107  05A5  0008               	return
  6108  05A6                     __end_of___ftpack:
  6109                           
  6110                           	psect	text10
  6111  0F5E                     __ptext10:	
  6112 ;; *************** function _Power_Measure *****************
  6113 ;; Defined at:
  6114 ;;		line 271 in file "sensor/power.c"
  6115 ;; Parameters:    Size  Location     Type
  6116 ;;		None
  6117 ;; Auto vars:     Size  Location     Type
  6118 ;;		None
  6119 ;; Return value:  Size  Location     Type
  6120 ;;                  1    wreg      void 
  6121 ;; Registers used:
  6122 ;;		None
  6123 ;; Tracked objects:
  6124 ;;		On entry : 0/0
  6125 ;;		On exit  : 0/0
  6126 ;;		Unchanged: 0/0
  6127 ;; Data sizes:     COMMON   BANK0   BANK1   BANK2   BANK3   BANK4   BANK5   BANK6   BANK7   BANK8   BANK9  BANK10  BANK1
      +1  BANK12  BANK13  BANK14  BANK15  BANK16  BANK17  BANK18  BANK19  BANK20  BANK21  BANK22  BANK23  BANK24  BANK25
  6128 ;;      Params:         0       0       0       0       0       0       0       0       0       0       0       0       
      +0       0       0       0       0       0       0       0       0       0       0       0       0       0       0
  6129 ;;      Locals:         0       0       0       0       0       0       0       0       0       0       0       0       
      +0       0       0       0       0       0       0       0       0       0       0       0       0       0       0
  6130 ;;      Temps:          0       0       0       0       0       0       0       0       0       0       0       0       
      +0       0       0       0       0       0       0       0       0       0       0       0       0       0       0
  6131 ;;      Totals:         0       0       0       0       0       0       0       0       0       0       0       0       
      +0       0       0       0       0       0       0       0       0       0       0       0       0       0       0
  6132 ;;Total ram usage:        0 bytes
  6133 ;; Hardware stack levels used:    1
  6134 ;; Hardware stack levels required when called:    3
  6135 ;; This function calls:
  6136 ;;		Nothing
  6137 ;; This function is called by:
  6138 ;;		_main
  6139 ;; This function uses a non-reentrant model
  6140 ;;
  6141                           
  6142                           
  6143                           ;psect for function _Power_Measure
  6144  0F5E                     _Power_Measure:
  6145  0F5E                     l3376:	
  6146                           ;incstack = 0
  6147                           ; Regs used in _Power_Measure: []
  6148                           
  6149                           
  6150                           ;power.c: 272: startMeasurement = 1;
  6151  0F5E  0141               	movlb	1	; select bank1
  6152  0F5F  01CE               	clrf	_startMeasurement^(0+128)
  6153  0F60  0ACE               	incf	_startMeasurement^(0+128),f
  6154  0F61                     l793:
  6155  0F61  0008               	return
  6156  0F62                     __end_of_Power_Measure:
  6157                           
  6158                           	psect	text11
  6159  05A6                     __ptext11:	
  6160 ;; *************** function _Power_Loop *****************
  6161 ;; Defined at:
  6162 ;;		line 372 in file "sensor/power.c"
  6163 ;; Parameters:    Size  Location     Type
  6164 ;;		None
  6165 ;; Auto vars:     Size  Location     Type
  6166 ;;		None
  6167 ;; Return value:  Size  Location     Type
  6168 ;;                  1    wreg      void 
  6169 ;; Registers used:
  6170 ;;		wreg, status,2, status,0, pclath, cstack
  6171 ;; Tracked objects:
  6172 ;;		On entry : 0/0
  6173 ;;		On exit  : 0/0
  6174 ;;		Unchanged: 0/0
  6175 ;; Data sizes:     COMMON   BANK0   BANK1   BANK2   BANK3   BANK4   BANK5   BANK6   BANK7   BANK8   BANK9  BANK10  BANK1
      +1  BANK12  BANK13  BANK14  BANK15  BANK16  BANK17  BANK18  BANK19  BANK20  BANK21  BANK22  BANK23  BANK24  BANK25
  6176 ;;      Params:         0       0       0       0       0       0       0       0       0       0       0       0       
      +0       0       0       0       0       0       0       0       0       0       0       0       0       0       0
  6177 ;;      Locals:         0       0       0       0       0       0       0       0       0       0       0       0       
      +0       0       0       0       0       0       0       0       0       0       0       0       0       0       0
  6178 ;;      Temps:          0       0       0       0       0       0       0       0       0       0       0       0       
      +0       0       0       0       0       0       0       0       0       0       0       0       0       0       0
  6179 ;;      Totals:         0       0       0       0       0       0       0       0       0       0       0       0       
      +0       0       0       0       0       0       0       0       0       0       0       0       0       0       0
  6180 ;;Total ram usage:        0 bytes
  6181 ;; Hardware stack levels used:    1
  6182 ;; Hardware stack levels required when called:    4
  6183 ;; This function calls:
  6184 ;;		_Enter_sleep
  6185 ;;		_Measure
  6186 ;;		_generateIntPower
  6187 ;; This function is called by:
  6188 ;;		_main
  6189 ;; This function uses a non-reentrant model
  6190 ;;
  6191                           
  6192                           
  6193                           ;psect for function _Power_Loop
  6194  05A6                     _Power_Loop:
  6195  05A6                     l3378:	
  6196                           ;incstack = 0
  6197                           ; Regs used in _Power_Loop: [wreg+status,2+status,0+pclath+cstack]
  6198                           
  6199                           
  6200                           ;power.c: 374: if(!measurementRunning)
  6201  05A6  0141               	movlb	1	; select bank1
  6202  05A7  084D               	movf	_measurementRunning^(0+128),w
  6203  05A8  1D03               	btfss	3,2
  6204  05A9  2DAB               	goto	u1971
  6205  05AA  2DAC               	goto	u1970
  6206  05AB                     u1971:
  6207  05AB  2E09               	goto	l818
  6208  05AC                     u1970:
  6209  05AC                     l3380:
  6210                           
  6211                           ;power.c: 375: {;power.c: 376: if(startMeasurement)
  6212  05AC  084E               	movf	_startMeasurement^(0+128),w
  6213  05AD  1903               	btfsc	3,2
  6214  05AE  2DB0               	goto	u1981
  6215  05AF  2DB1               	goto	u1980
  6216  05B0                     u1981:
  6217  05B0  2DD7               	goto	l808
  6218  05B1                     u1980:
  6219  05B1                     l3382:
  6220                           
  6221                           ;power.c: 377: {;power.c: 378: startMeasurement = 0;
  6222  05B1  01CE               	clrf	_startMeasurement^(0+128)
  6223  05B2                     l3384:
  6224                           
  6225                           ;power.c: 380: if(WDTCON0bits.SEN == 1)
  6226  05B2  0150               	movlb	16	; select bank16
  6227  05B3  1C0C               	btfss	12,0	;volatile
  6228  05B4  2DB6               	goto	u1991
  6229  05B5  2DB7               	goto	u1990
  6230  05B6                     u1991:
  6231  05B6  2DC7               	goto	l809
  6232  05B7                     u1990:
  6233  05B7                     l3386:
  6234                           
  6235                           ;power.c: 381: {;power.c: 382: WDTCON0bits.SEN = 0;
  6236  05B7  100C               	bcf	12,0	;volatile
  6237                           
  6238                           ;power.c: 384: measurementRunning = 1;
  6239  05B8  0141               	movlb	1	; select bank1
  6240  05B9  01CD               	clrf	_measurementRunning^(0+128)
  6241  05BA  0ACD               	incf	_measurementRunning^(0+128),f
  6242  05BB                     l3388:
  6243                           
  6244                           ;power.c: 385: Measure();
  6245  05BB  3187  2706  3185   	fcall	_Measure
  6246  05BE                     l3390:
  6247                           
  6248                           ;power.c: 386: measurementRunning = 0;
  6249  05BE  0141               	movlb	1	; select bank1
  6250  05BF  01CD               	clrf	_measurementRunning^(0+128)
  6251  05C0                     l3392:
  6252                           
  6253                           ;power.c: 388: generateIntPower();
  6254  05C0  318F  27A7  3185   	fcall	_generateIntPower
  6255  05C3  0064               	clrwdt	;# 
  6256  05C4                     l3394:
  6257                           
  6258                           ;power.c: 390: WDTCON0bits.SEN = 1;
  6259  05C4  0150               	movlb	16	; select bank16
  6260  05C5  140C               	bsf	12,0	;volatile
  6261                           
  6262                           ;power.c: 391: }else if(WDTCON0bits.SEN == 0)
  6263  05C6  2E09               	goto	l818
  6264  05C7                     l809:
  6265  05C7  180C               	btfsc	12,0	;volatile
  6266  05C8  2DCA               	goto	u2001
  6267  05C9  2DCB               	goto	u2000
  6268  05CA                     u2001:
  6269  05CA  2E09               	goto	l812
  6270  05CB                     u2000:
  6271  05CB                     l3396:
  6272                           
  6273                           ;power.c: 392: {;power.c: 393: measurementRunning = 1;
  6274  05CB  0141               	movlb	1	; select bank1
  6275  05CC  01CD               	clrf	_measurementRunning^(0+128)
  6276  05CD  0ACD               	incf	_measurementRunning^(0+128),f
  6277  05CE                     l3398:
  6278                           
  6279                           ;power.c: 394: Measure();
  6280  05CE  3187  2706  3185   	fcall	_Measure
  6281  05D1                     l3400:
  6282                           
  6283                           ;power.c: 395: measurementRunning = 0;
  6284  05D1  0141               	movlb	1	; select bank1
  6285  05D2  01CD               	clrf	_measurementRunning^(0+128)
  6286  05D3                     l3402:
  6287                           
  6288                           ;power.c: 397: generateIntPower();
  6289  05D3  318F  27A7  3185   	fcall	_generateIntPower
  6290  05D6  2E09               	goto	l818
  6291  05D7                     l808:
  6292  05D7  0140               	movlb	0	; select bank0
  6293  05D8  1A03               	btfsc	3,4	;volatile
  6294  05D9  2DDB               	goto	u2011
  6295  05DA  2DDC               	goto	u2010
  6296  05DB                     u2011:
  6297  05DB  2E05               	goto	l3424
  6298  05DC                     u2010:
  6299  05DC                     l3404:
  6300                           
  6301                           ;power.c: 400: {;power.c: 401: WDTCON0bits.SEN = 0;
  6302  05DC  0150               	movlb	16	; select bank16
  6303  05DD  100C               	bcf	12,0	;volatile
  6304                           
  6305                           ;power.c: 403: measurementRunning = 1;
  6306  05DE  0141               	movlb	1	; select bank1
  6307  05DF  01CD               	clrf	_measurementRunning^(0+128)
  6308  05E0  0ACD               	incf	_measurementRunning^(0+128),f
  6309  05E1                     l3406:
  6310                           
  6311                           ;power.c: 404: Measure();
  6312  05E1  3187  2706  3185   	fcall	_Measure
  6313  05E4                     l3408:
  6314                           
  6315                           ;power.c: 405: measurementRunning = 0;
  6316  05E4  0141               	movlb	1	; select bank1
  6317  05E5  01CD               	clrf	_measurementRunning^(0+128)
  6318  05E6                     l3410:
  6319                           
  6320                           ;power.c: 407: if(underThresholdBatt || underThresholdLDR || overThresholdBatt || overTh
      +                          resholdLDR)
  6321  05E6  0851               	movf	_underThresholdBatt^(0+128),w
  6322  05E7  1D03               	btfss	3,2
  6323  05E8  2DEA               	goto	u2021
  6324  05E9  2DEB               	goto	u2020
  6325  05EA                     u2021:
  6326  05EA  2DFA               	goto	l3418
  6327  05EB                     u2020:
  6328  05EB                     l3412:
  6329  05EB  084F               	movf	_underThresholdLDR^(0+128),w
  6330  05EC  1D03               	btfss	3,2
  6331  05ED  2DEF               	goto	u2031
  6332  05EE  2DF0               	goto	u2030
  6333  05EF                     u2031:
  6334  05EF  2DFA               	goto	l3418
  6335  05F0                     u2030:
  6336  05F0                     l3414:
  6337  05F0  0852               	movf	_overThresholdBatt^(0+128),w
  6338  05F1  1D03               	btfss	3,2
  6339  05F2  2DF4               	goto	u2041
  6340  05F3  2DF5               	goto	u2040
  6341  05F4                     u2041:
  6342  05F4  2DFA               	goto	l3418
  6343  05F5                     u2040:
  6344  05F5                     l3416:
  6345  05F5  0850               	movf	_overThresholdLDR^(0+128),w
  6346  05F6  1903               	btfsc	3,2
  6347  05F7  2DF9               	goto	u2051
  6348  05F8  2DFA               	goto	u2050
  6349  05F9                     u2051:
  6350  05F9  2E01               	goto	l814
  6351  05FA                     u2050:
  6352  05FA                     l3418:
  6353                           
  6354                           ;power.c: 408: {;power.c: 409: underThresholdBatt = 0;
  6355  05FA  01D1               	clrf	_underThresholdBatt^(0+128)
  6356                           
  6357                           ;power.c: 410: underThresholdLDR = 0;
  6358  05FB  01CF               	clrf	_underThresholdLDR^(0+128)
  6359                           
  6360                           ;power.c: 411: overThresholdBatt = 0;
  6361  05FC  01D2               	clrf	_overThresholdBatt^(0+128)
  6362                           
  6363                           ;power.c: 412: overThresholdLDR = 0;
  6364  05FD  01D0               	clrf	_overThresholdLDR^(0+128)
  6365  05FE                     l3420:
  6366                           
  6367                           ;power.c: 414: generateIntPower();
  6368  05FE  318F  27A7  3185   	fcall	_generateIntPower
  6369  0601                     l814:
  6370  0601  0064               	clrwdt	;# 
  6371  0602                     l3422:
  6372                           
  6373                           ;power.c: 417: WDTCON0bits.SEN = 1;
  6374  0602  0150               	movlb	16	; select bank16
  6375  0603  140C               	bsf	12,0	;volatile
  6376                           
  6377                           ;power.c: 418: }else
  6378  0604  2E09               	goto	l818
  6379  0605                     l3424:
  6380                           
  6381                           ;power.c: 419: {;power.c: 420: Enter_sleep();
  6382  0605  3187  27F9  3185   	fcall	_Enter_sleep
  6383  0608  2E09               	goto	l818
  6384  0609                     l812:
  6385  0609                     l818:
  6386  0609  0008               	return
  6387  060A                     __end_of_Power_Loop:
  6388                           
  6389                           	psect	text12
  6390  0FA7                     __ptext12:	
  6391 ;; *************** function _generateIntPower *****************
  6392 ;; Defined at:
  6393 ;;		line 465 in file "sensor/power.c"
  6394 ;; Parameters:    Size  Location     Type
  6395 ;;		None
  6396 ;; Auto vars:     Size  Location     Type
  6397 ;;		None
  6398 ;; Return value:  Size  Location     Type
  6399 ;;                  1    wreg      void 
  6400 ;; Registers used:
  6401 ;;		wreg
  6402 ;; Tracked objects:
  6403 ;;		On entry : 0/0
  6404 ;;		On exit  : 0/0
  6405 ;;		Unchanged: 0/0
  6406 ;; Data sizes:     COMMON   BANK0   BANK1   BANK2   BANK3   BANK4   BANK5   BANK6   BANK7   BANK8   BANK9  BANK10  BANK1
      +1  BANK12  BANK13  BANK14  BANK15  BANK16  BANK17  BANK18  BANK19  BANK20  BANK21  BANK22  BANK23  BANK24  BANK25
  6407 ;;      Params:         0       0       0       0       0       0       0       0       0       0       0       0       
      +0       0       0       0       0       0       0       0       0       0       0       0       0       0       0
  6408 ;;      Locals:         0       0       0       0       0       0       0       0       0       0       0       0       
      +0       0       0       0       0       0       0       0       0       0       0       0       0       0       0
  6409 ;;      Temps:          0       1       0       0       0       0       0       0       0       0       0       0       
      +0       0       0       0       0       0       0       0       0       0       0       0       0       0       0
  6410 ;;      Totals:         0       1       0       0       0       0       0       0       0       0       0       0       
      +0       0       0       0       0       0       0       0       0       0       0       0       0       0       0
  6411 ;;Total ram usage:        1 bytes
  6412 ;; Hardware stack levels used:    1
  6413 ;; Hardware stack levels required when called:    3
  6414 ;; This function calls:
  6415 ;;		Nothing
  6416 ;; This function is called by:
  6417 ;;		_Power_Loop
  6418 ;; This function uses a non-reentrant model
  6419 ;;
  6420                           
  6421                           
  6422                           ;psect for function _generateIntPower
  6423  0FA7                     _generateIntPower:
  6424  0FA7                     l833:	
  6425                           ;incstack = 0
  6426                           ; Regs used in _generateIntPower: [wreg]
  6427                           ;power.c: 466: do { LATCbits.LATC0 = 0; } while(0);
  6428                           
  6429  0FA7  0140               	movlb	0	; select bank0
  6430  0FA8  101A               	bcf	26,0	;volatile
  6431  0FA9                     l3242:
  6432                           
  6433                           ;power.c: 467: _delay((unsigned long)((1)*(32000000/4000.0)));
  6434  0FA9  300B               	movlw	11
  6435  0FAA  0140               	movlb	0	; select bank0
  6436  0FAB  00A0               	movwf	??_generateIntPower
  6437  0FAC  3062               	movlw	98
  6438  0FAD                     u2247:
  6439  0FAD  0B89               	decfsz	9,f
  6440  0FAE  2FAD               	goto	u2247
  6441  0FAF  0BA0               	decfsz	??_generateIntPower,f
  6442  0FB0  2FAD               	goto	u2247
  6443  0FB1  0000               	nop
  6444  0FB2                     l3244:
  6445  0FB2  0140               	movlb	0	; select bank0
  6446  0FB3  141A               	bsf	26,0	;volatile
  6447  0FB4                     l837:
  6448  0FB4  0008               	return
  6449  0FB5                     __end_of_generateIntPower:
  6450                           
  6451                           	psect	text13
  6452  0706                     __ptext13:	
  6453 ;; *************** function _Measure *****************
  6454 ;; Defined at:
  6455 ;;		line 275 in file "sensor/power.c"
  6456 ;; Parameters:    Size  Location     Type
  6457 ;;		None
  6458 ;; Auto vars:     Size  Location     Type
  6459 ;;		None
  6460 ;; Return value:  Size  Location     Type
  6461 ;;                  1    wreg      void 
  6462 ;; Registers used:
  6463 ;;		wreg
  6464 ;; Tracked objects:
  6465 ;;		On entry : 0/0
  6466 ;;		On exit  : 0/0
  6467 ;;		Unchanged: 0/0
  6468 ;; Data sizes:     COMMON   BANK0   BANK1   BANK2   BANK3   BANK4   BANK5   BANK6   BANK7   BANK8   BANK9  BANK10  BANK1
      +1  BANK12  BANK13  BANK14  BANK15  BANK16  BANK17  BANK18  BANK19  BANK20  BANK21  BANK22  BANK23  BANK24  BANK25
  6469 ;;      Params:         0       0       0       0       0       0       0       0       0       0       0       0       
      +0       0       0       0       0       0       0       0       0       0       0       0       0       0       0
  6470 ;;      Locals:         0       0       0       0       0       0       0       0       0       0       0       0       
      +0       0       0       0       0       0       0       0       0       0       0       0       0       0       0
  6471 ;;      Temps:          0       2       0       0       0       0       0       0       0       0       0       0       
      +0       0       0       0       0       0       0       0       0       0       0       0       0       0       0
  6472 ;;      Totals:         0       2       0       0       0       0       0       0       0       0       0       0       
      +0       0       0       0       0       0       0       0       0       0       0       0       0       0       0
  6473 ;;Total ram usage:        2 bytes
  6474 ;; Hardware stack levels used:    1
  6475 ;; Hardware stack levels required when called:    3
  6476 ;; This function calls:
  6477 ;;		Nothing
  6478 ;; This function is called by:
  6479 ;;		_Power_Loop
  6480 ;; This function uses a non-reentrant model
  6481 ;;
  6482                           
  6483                           
  6484                           ;psect for function _Measure
  6485  0706                     _Measure:
  6486  0706                     l796:	
  6487                           ;incstack = 0
  6488                           ; Regs used in _Measure: [wreg]
  6489                           ;power.c: 282: do { LATCbits.LATC6 = 1; } while(0);
  6490                           
  6491  0706  0140               	movlb	0	; select bank0
  6492  0707  171A               	bsf	26,6	;volatile
  6493  0708                     l798:	
  6494                           ;power.c: 283: do { LATCbits.LATC7 = 1; } while(0);
  6495                           
  6496  0708  179A               	bsf	26,7	;volatile
  6497  0709                     l3236:
  6498                           
  6499                           ;power.c: 285: _delay((unsigned long)((200)*(32000000/4000.0)));
  6500  0709  3009               	movlw	9
  6501  070A  0140               	movlb	0	; select bank0
  6502  070B  00A1               	movwf	??_Measure+1
  6503  070C  301E               	movlw	30
  6504  070D  00A0               	movwf	??_Measure
  6505  070E  30E4               	movlw	228
  6506  070F                     u2257:
  6507  070F  0B89               	decfsz	9,f
  6508  0710  2F0F               	goto	u2257
  6509  0711  0BA0               	decfsz	??_Measure,f
  6510  0712  2F0F               	goto	u2257
  6511  0713  0BA1               	decfsz	??_Measure+1,f
  6512  0714  2F0F               	goto	u2257
  6513  0715  0000               	nop
  6514  0716                     l3238:
  6515  0716  0140               	movlb	0	; select bank0
  6516  0717  139A               	bcf	26,7	;volatile
  6517  0718                     l3240:
  6518  0718  131A               	bcf	26,6	;volatile
  6519  0719                     l803:
  6520                           
  6521                           ;power.c: 358: measurementData[0] = 0x01;
  6522  0719  3001               	movlw	1
  6523  071A  00A0               	movwf	??_Measure
  6524  071B  0820               	movf	??_Measure,w
  6525  071C  0141               	movlb	1	; select bank1
  6526  071D  00A0               	movwf	_measurementData^(0+128)	;volatile
  6527                           
  6528                           ;power.c: 359: measurementData[1] = 0x02;
  6529  071E  3002               	movlw	2
  6530  071F  0140               	movlb	0	; select bank0
  6531  0720  00A0               	movwf	??_Measure
  6532  0721  0820               	movf	??_Measure,w
  6533  0722  0141               	movlb	1	; select bank1
  6534  0723  00A1               	movwf	(_measurementData^(0+128)+1)	;volatile
  6535                           
  6536                           ;power.c: 361: measurementData[2] = 0x03;
  6537  0724  3003               	movlw	3
  6538  0725  0140               	movlb	0	; select bank0
  6539  0726  00A0               	movwf	??_Measure
  6540  0727  0820               	movf	??_Measure,w
  6541  0728  0141               	movlb	1	; select bank1
  6542  0729  00A2               	movwf	(_measurementData^(0+128)+2)	;volatile
  6543                           
  6544                           ;power.c: 362: measurementData[3] = 0x04;
  6545  072A  3004               	movlw	4
  6546  072B  0140               	movlb	0	; select bank0
  6547  072C  00A0               	movwf	??_Measure
  6548  072D  0820               	movf	??_Measure,w
  6549  072E  0141               	movlb	1	; select bank1
  6550  072F  00A3               	movwf	(_measurementData^(0+128)+3)	;volatile
  6551  0730                     l804:
  6552  0730  0008               	return
  6553  0731                     __end_of_Measure:
  6554                           
  6555                           	psect	text14
  6556  07F9                     __ptext14:	
  6557 ;; *************** function _Enter_sleep *****************
  6558 ;; Defined at:
  6559 ;;		line 216 in file "sensor/power.c"
  6560 ;; Parameters:    Size  Location     Type
  6561 ;;		None
  6562 ;; Auto vars:     Size  Location     Type
  6563 ;;		None
  6564 ;; Return value:  Size  Location     Type
  6565 ;;                  1    wreg      void 
  6566 ;; Registers used:
  6567 ;;		None
  6568 ;; Tracked objects:
  6569 ;;		On entry : 0/0
  6570 ;;		On exit  : 0/0
  6571 ;;		Unchanged: 0/0
  6572 ;; Data sizes:     COMMON   BANK0   BANK1   BANK2   BANK3   BANK4   BANK5   BANK6   BANK7   BANK8   BANK9  BANK10  BANK1
      +1  BANK12  BANK13  BANK14  BANK15  BANK16  BANK17  BANK18  BANK19  BANK20  BANK21  BANK22  BANK23  BANK24  BANK25
  6573 ;;      Params:         0       0       0       0       0       0       0       0       0       0       0       0       
      +0       0       0       0       0       0       0       0       0       0       0       0       0       0       0
  6574 ;;      Locals:         0       0       0       0       0       0       0       0       0       0       0       0       
      +0       0       0       0       0       0       0       0       0       0       0       0       0       0       0
  6575 ;;      Temps:          0       0       0       0       0       0       0       0       0       0       0       0       
      +0       0       0       0       0       0       0       0       0       0       0       0       0       0       0
  6576 ;;      Totals:         0       0       0       0       0       0       0       0       0       0       0       0       
      +0       0       0       0       0       0       0       0       0       0       0       0       0       0       0
  6577 ;;Total ram usage:        0 bytes
  6578 ;; Hardware stack levels used:    1
  6579 ;; Hardware stack levels required when called:    3
  6580 ;; This function calls:
  6581 ;;		Nothing
  6582 ;; This function is called by:
  6583 ;;		_Power_Loop
  6584 ;; This function uses a non-reentrant model
  6585 ;;
  6586                           
  6587                           
  6588                           ;psect for function _Enter_sleep
  6589  07F9                     _Enter_sleep:
  6590  07F9                     l3234:	
  6591                           ;incstack = 0
  6592                           ; Regs used in _Enter_sleep: []
  6593                           
  6594                           
  6595                           ;power.c: 218: CPUDOZEbits.IDLEN = 0;
  6596  07F9  0151               	movlb	17	; select bank17
  6597  07FA  138C               	bcf	12,7	;volatile
  6598                           
  6599                           ;power.c: 219: __nop();
  6600  07FB  0000               	nop
  6601  07FC  0063               	sleep	;# 
  6602                           
  6603                           ;power.c: 221: __nop();
  6604  07FD  0000               	nop
  6605                           
  6606                           ;power.c: 222: __nop();
  6607  07FE  0000               	nop
  6608  07FF                     l759:
  6609  07FF  0008               	return
  6610  0800                     __end_of_Enter_sleep:
  6611                           
  6612                           	psect	text15
  6613  077E                     __ptext15:	
  6614 ;; *************** function _Power_Init *****************
  6615 ;; Defined at:
  6616 ;;		line 226 in file "sensor/power.c"
  6617 ;; Parameters:    Size  Location     Type
  6618 ;;		None
  6619 ;; Auto vars:     Size  Location     Type
  6620 ;;		None
  6621 ;; Return value:  Size  Location     Type
  6622 ;;                  1    wreg      void 
  6623 ;; Registers used:
  6624 ;;		wreg, status,2, status,0, pclath, cstack
  6625 ;; Tracked objects:
  6626 ;;		On entry : 0/0
  6627 ;;		On exit  : 0/0
  6628 ;;		Unchanged: 0/0
  6629 ;; Data sizes:     COMMON   BANK0   BANK1   BANK2   BANK3   BANK4   BANK5   BANK6   BANK7   BANK8   BANK9  BANK10  BANK1
      +1  BANK12  BANK13  BANK14  BANK15  BANK16  BANK17  BANK18  BANK19  BANK20  BANK21  BANK22  BANK23  BANK24  BANK25
  6630 ;;      Params:         0       0       0       0       0       0       0       0       0       0       0       0       
      +0       0       0       0       0       0       0       0       0       0       0       0       0       0       0
  6631 ;;      Locals:         0       0       0       0       0       0       0       0       0       0       0       0       
      +0       0       0       0       0       0       0       0       0       0       0       0       0       0       0
  6632 ;;      Temps:          0       0       0       0       0       0       0       0       0       0       0       0       
      +0       0       0       0       0       0       0       0       0       0       0       0       0       0       0
  6633 ;;      Totals:         0       0       0       0       0       0       0       0       0       0       0       0       
      +0       0       0       0       0       0       0       0       0       0       0       0       0       0       0
  6634 ;;Total ram usage:        0 bytes
  6635 ;; Hardware stack levels used:    1
  6636 ;; Hardware stack levels required when called:    4
  6637 ;; This function calls:
  6638 ;;		_ADC_Init
  6639 ;;		_LED_Blink
  6640 ;;		_WDT_Init
  6641 ;; This function is called by:
  6642 ;;		_main
  6643 ;; This function uses a non-reentrant model
  6644 ;;
  6645                           
  6646                           
  6647                           ;psect for function _Power_Init
  6648  077E                     _Power_Init:
  6649  077E                     l3350:	
  6650                           ;incstack = 0
  6651                           ; Regs used in _Power_Init: [wreg+status,2+status,0+pclath+cstack]
  6652                           
  6653                           
  6654                           ;power.c: 228: PMD0bits.IOCMD = 0;
  6655  077E  014F               	movlb	15	; select bank15
  6656  077F  1016               	bcf	22,0	;volatile
  6657  0780                     l762:	
  6658                           ;power.c: 230: do { ANSELCbits.ANSC0 = 0; } while(0);
  6659                           
  6660  0780  017E               	movlb	62	; select bank62
  6661  0781  104E               	bcf	78,0	;volatile
  6662  0782                     l764:	
  6663                           ;power.c: 231: do { TRISCbits.TRISC0 = 0; } while(0);
  6664                           
  6665  0782  0140               	movlb	0	; select bank0
  6666  0783  1014               	bcf	20,0	;volatile
  6667  0784                     l766:	
  6668                           ;power.c: 232: do { LATCbits.LATC0 = 1; } while(0);
  6669                           
  6670  0784  141A               	bsf	26,0	;volatile
  6671  0785                     l3352:
  6672                           
  6673                           ;power.c: 234: ADC_Init();
  6674  0785  3187  275B  3187   	fcall	_ADC_Init
  6675  0788                     l3354:
  6676  0788  017E               	movlb	62	; select bank62
  6677  0789  1138               	bcf	56,2	;volatile
  6678  078A                     l3356:
  6679  078A  0140               	movlb	0	; select bank0
  6680  078B  1112               	bcf	18,2	;volatile
  6681  078C                     l3358:
  6682  078C  017E               	movlb	62	; select bank62
  6683  078D  13CE               	bcf	78,7	;volatile
  6684  078E                     l3360:
  6685  078E  134E               	bcf	78,6	;volatile
  6686  078F                     l3362:
  6687  078F  0140               	movlb	0	; select bank0
  6688  0790  1394               	bcf	20,7	;volatile
  6689  0791                     l3364:
  6690  0791  1314               	bcf	20,6	;volatile
  6691  0792                     l3366:
  6692  0792  139A               	bcf	26,7	;volatile
  6693  0793                     l3368:
  6694  0793  131A               	bcf	26,6	;volatile
  6695  0794                     l3370:
  6696  0794  1118               	bcf	24,2	;volatile
  6697  0795                     l3372:
  6698  0795  1614               	bsf	20,4	;volatile
  6699  0796                     l3374:
  6700  0796  017E               	movlb	62	; select bank62
  6701  0797  164E               	bsf	78,4	;volatile
  6702  0798                     l789:
  6703                           
  6704                           ;power.c: 265: WDT_Init();
  6705  0798  318F  2762  3187   	fcall	_WDT_Init
  6706                           
  6707                           ;power.c: 268: LED_Blink();
  6708  079B  3184  2493  3187   	fcall	_LED_Blink
  6709  079E                     l790:
  6710  079E  0008               	return
  6711  079F                     __end_of_Power_Init:
  6712                           
  6713                           	psect	text16
  6714  0F62                     __ptext16:	
  6715 ;; *************** function _WDT_Init *****************
  6716 ;; Defined at:
  6717 ;;		line 128 in file "sensor/power.c"
  6718 ;; Parameters:    Size  Location     Type
  6719 ;;		None
  6720 ;; Auto vars:     Size  Location     Type
  6721 ;;		None
  6722 ;; Return value:  Size  Location     Type
  6723 ;;                  1    wreg      void 
  6724 ;; Registers used:
  6725 ;;		wreg
  6726 ;; Tracked objects:
  6727 ;;		On entry : 0/0
  6728 ;;		On exit  : 0/0
  6729 ;;		Unchanged: 0/0
  6730 ;; Data sizes:     COMMON   BANK0   BANK1   BANK2   BANK3   BANK4   BANK5   BANK6   BANK7   BANK8   BANK9  BANK10  BANK1
      +1  BANK12  BANK13  BANK14  BANK15  BANK16  BANK17  BANK18  BANK19  BANK20  BANK21  BANK22  BANK23  BANK24  BANK25
  6731 ;;      Params:         0       0       0       0       0       0       0       0       0       0       0       0       
      +0       0       0       0       0       0       0       0       0       0       0       0       0       0       0
  6732 ;;      Locals:         0       0       0       0       0       0       0       0       0       0       0       0       
      +0       0       0       0       0       0       0       0       0       0       0       0       0       0       0
  6733 ;;      Temps:          0       0       0       0       0       0       0       0       0       0       0       0       
      +0       0       0       0       0       0       0       0       0       0       0       0       0       0       0
  6734 ;;      Totals:         0       0       0       0       0       0       0       0       0       0       0       0       
      +0       0       0       0       0       0       0       0       0       0       0       0       0       0       0
  6735 ;;Total ram usage:        0 bytes
  6736 ;; Hardware stack levels used:    1
  6737 ;; Hardware stack levels required when called:    3
  6738 ;; This function calls:
  6739 ;;		Nothing
  6740 ;; This function is called by:
  6741 ;;		_Power_Init
  6742 ;; This function uses a non-reentrant model
  6743 ;;
  6744                           
  6745                           
  6746                           ;psect for function _WDT_Init
  6747  0F62                     _WDT_Init:
  6748  0F62                     l3186:	
  6749                           ;incstack = 0
  6750                           ; Regs used in _WDT_Init: [wreg]
  6751                           
  6752                           
  6753                           ;power.c: 132: WDTCON0 = 0x20;
  6754  0F62  3020               	movlw	32
  6755  0F63  0150               	movlb	16	; select bank16
  6756  0F64  008C               	movwf	12	;volatile
  6757                           
  6758                           ;power.c: 133: WDTCON1 = 0x07;
  6759  0F65  3007               	movlw	7
  6760  0F66  008D               	movwf	13	;volatile
  6761  0F67                     l745:
  6762  0F67  0008               	return
  6763  0F68                     __end_of_WDT_Init:
  6764                           
  6765                           	psect	text17
  6766  0493                     __ptext17:	
  6767 ;; *************** function _LED_Blink *****************
  6768 ;; Defined at:
  6769 ;;		line 99 in file "sensor/power.c"
  6770 ;; Parameters:    Size  Location     Type
  6771 ;;		None
  6772 ;; Auto vars:     Size  Location     Type
  6773 ;;		None
  6774 ;; Return value:  Size  Location     Type
  6775 ;;                  1    wreg      void 
  6776 ;; Registers used:
  6777 ;;		wreg
  6778 ;; Tracked objects:
  6779 ;;		On entry : 0/0
  6780 ;;		On exit  : 0/0
  6781 ;;		Unchanged: 0/0
  6782 ;; Data sizes:     COMMON   BANK0   BANK1   BANK2   BANK3   BANK4   BANK5   BANK6   BANK7   BANK8   BANK9  BANK10  BANK1
      +1  BANK12  BANK13  BANK14  BANK15  BANK16  BANK17  BANK18  BANK19  BANK20  BANK21  BANK22  BANK23  BANK24  BANK25
  6783 ;;      Params:         0       0       0       0       0       0       0       0       0       0       0       0       
      +0       0       0       0       0       0       0       0       0       0       0       0       0       0       0
  6784 ;;      Locals:         0       0       0       0       0       0       0       0       0       0       0       0       
      +0       0       0       0       0       0       0       0       0       0       0       0       0       0       0
  6785 ;;      Temps:          0       2       0       0       0       0       0       0       0       0       0       0       
      +0       0       0       0       0       0       0       0       0       0       0       0       0       0       0
  6786 ;;      Totals:         0       2       0       0       0       0       0       0       0       0       0       0       
      +0       0       0       0       0       0       0       0       0       0       0       0       0       0       0
  6787 ;;Total ram usage:        2 bytes
  6788 ;; Hardware stack levels used:    1
  6789 ;; Hardware stack levels required when called:    3
  6790 ;; This function calls:
  6791 ;;		Nothing
  6792 ;; This function is called by:
  6793 ;;		_Power_Init
  6794 ;; This function uses a non-reentrant model
  6795 ;;
  6796                           
  6797                           
  6798                           ;psect for function _LED_Blink
  6799  0493                     _LED_Blink:
  6800  0493                     l718:	
  6801                           ;incstack = 0
  6802                           ; Regs used in _LED_Blink: [wreg]
  6803                           ;power.c: 102: do { LATCbits.LATC7 = 1; } while(0);
  6804                           
  6805  0493  0140               	movlb	0	; select bank0
  6806  0494  179A               	bsf	26,7	;volatile
  6807  0495                     l3162:
  6808                           
  6809                           ;power.c: 103: _delay((unsigned long)((100)*(32000000/4000.0)));
  6810  0495  3005               	movlw	5
  6811  0496  0140               	movlb	0	; select bank0
  6812  0497  00A1               	movwf	??_LED_Blink+1
  6813  0498  300F               	movlw	15
  6814  0499  00A0               	movwf	??_LED_Blink
  6815  049A  30F1               	movlw	241
  6816  049B                     u2267:
  6817  049B  0B89               	decfsz	9,f
  6818  049C  2C9B               	goto	u2267
  6819  049D  0BA0               	decfsz	??_LED_Blink,f
  6820  049E  2C9B               	goto	u2267
  6821  049F  0BA1               	decfsz	??_LED_Blink+1,f
  6822  04A0  2C9B               	goto	u2267
  6823  04A1                     l3164:
  6824  04A1  0140               	movlb	0	; select bank0
  6825  04A2  139A               	bcf	26,7	;volatile
  6826  04A3                     l721:
  6827                           
  6828                           ;power.c: 105: _delay((unsigned long)((100)*(32000000/4000.0)));
  6829  04A3  3005               	movlw	5
  6830  04A4  0140               	movlb	0	; select bank0
  6831  04A5  00A1               	movwf	??_LED_Blink+1
  6832  04A6  300F               	movlw	15
  6833  04A7  00A0               	movwf	??_LED_Blink
  6834  04A8  30F1               	movlw	241
  6835  04A9                     u2277:
  6836  04A9  0B89               	decfsz	9,f
  6837  04AA  2CA9               	goto	u2277
  6838  04AB  0BA0               	decfsz	??_LED_Blink,f
  6839  04AC  2CA9               	goto	u2277
  6840  04AD  0BA1               	decfsz	??_LED_Blink+1,f
  6841  04AE  2CA9               	goto	u2277
  6842  04AF                     l3166:
  6843  04AF  0140               	movlb	0	; select bank0
  6844  04B0  179A               	bsf	26,7	;volatile
  6845  04B1                     l723:
  6846                           
  6847                           ;power.c: 107: _delay((unsigned long)((100)*(32000000/4000.0)));
  6848  04B1  3005               	movlw	5
  6849  04B2  0140               	movlb	0	; select bank0
  6850  04B3  00A1               	movwf	??_LED_Blink+1
  6851  04B4  300F               	movlw	15
  6852  04B5  00A0               	movwf	??_LED_Blink
  6853  04B6  30F1               	movlw	241
  6854  04B7                     u2287:
  6855  04B7  0B89               	decfsz	9,f
  6856  04B8  2CB7               	goto	u2287
  6857  04B9  0BA0               	decfsz	??_LED_Blink,f
  6858  04BA  2CB7               	goto	u2287
  6859  04BB  0BA1               	decfsz	??_LED_Blink+1,f
  6860  04BC  2CB7               	goto	u2287
  6861  04BD                     l3168:
  6862  04BD  0140               	movlb	0	; select bank0
  6863  04BE  139A               	bcf	26,7	;volatile
  6864  04BF                     l725:
  6865                           
  6866                           ;power.c: 109: _delay((unsigned long)((100)*(32000000/4000.0)));
  6867  04BF  3005               	movlw	5
  6868  04C0  0140               	movlb	0	; select bank0
  6869  04C1  00A1               	movwf	??_LED_Blink+1
  6870  04C2  300F               	movlw	15
  6871  04C3  00A0               	movwf	??_LED_Blink
  6872  04C4  30F1               	movlw	241
  6873  04C5                     u2297:
  6874  04C5  0B89               	decfsz	9,f
  6875  04C6  2CC5               	goto	u2297
  6876  04C7  0BA0               	decfsz	??_LED_Blink,f
  6877  04C8  2CC5               	goto	u2297
  6878  04C9  0BA1               	decfsz	??_LED_Blink+1,f
  6879  04CA  2CC5               	goto	u2297
  6880  04CB                     l3170:
  6881  04CB  0140               	movlb	0	; select bank0
  6882  04CC  179A               	bsf	26,7	;volatile
  6883  04CD                     l727:
  6884                           
  6885                           ;power.c: 111: _delay((unsigned long)((100)*(32000000/4000.0)));
  6886  04CD  3005               	movlw	5
  6887  04CE  0140               	movlb	0	; select bank0
  6888  04CF  00A1               	movwf	??_LED_Blink+1
  6889  04D0  300F               	movlw	15
  6890  04D1  00A0               	movwf	??_LED_Blink
  6891  04D2  30F1               	movlw	241
  6892  04D3                     u2307:
  6893  04D3  0B89               	decfsz	9,f
  6894  04D4  2CD3               	goto	u2307
  6895  04D5  0BA0               	decfsz	??_LED_Blink,f
  6896  04D6  2CD3               	goto	u2307
  6897  04D7  0BA1               	decfsz	??_LED_Blink+1,f
  6898  04D8  2CD3               	goto	u2307
  6899  04D9                     l3172:
  6900  04D9  0140               	movlb	0	; select bank0
  6901  04DA  139A               	bcf	26,7	;volatile
  6902  04DB                     l729:
  6903                           
  6904                           ;power.c: 113: _delay((unsigned long)((500)*(32000000/4000.0)));
  6905  04DB  3015               	movlw	21
  6906  04DC  0140               	movlb	0	; select bank0
  6907  04DD  00A1               	movwf	??_LED_Blink+1
  6908  04DE  304B               	movlw	75
  6909  04DF  00A0               	movwf	??_LED_Blink
  6910  04E0  30BE               	movlw	190
  6911  04E1                     u2317:
  6912  04E1  0B89               	decfsz	9,f
  6913  04E2  2CE1               	goto	u2317
  6914  04E3  0BA0               	decfsz	??_LED_Blink,f
  6915  04E4  2CE1               	goto	u2317
  6916  04E5  0BA1               	decfsz	??_LED_Blink+1,f
  6917  04E6  2CE1               	goto	u2317
  6918  04E7  0000               	nop
  6919  04E8                     l3174:
  6920  04E8  0140               	movlb	0	; select bank0
  6921  04E9  171A               	bsf	26,6	;volatile
  6922  04EA                     l731:
  6923                           
  6924                           ;power.c: 116: _delay((unsigned long)((100)*(32000000/4000.0)));
  6925  04EA  3005               	movlw	5
  6926  04EB  0140               	movlb	0	; select bank0
  6927  04EC  00A1               	movwf	??_LED_Blink+1
  6928  04ED  300F               	movlw	15
  6929  04EE  00A0               	movwf	??_LED_Blink
  6930  04EF  30F1               	movlw	241
  6931  04F0                     u2327:
  6932  04F0  0B89               	decfsz	9,f
  6933  04F1  2CF0               	goto	u2327
  6934  04F2  0BA0               	decfsz	??_LED_Blink,f
  6935  04F3  2CF0               	goto	u2327
  6936  04F4  0BA1               	decfsz	??_LED_Blink+1,f
  6937  04F5  2CF0               	goto	u2327
  6938  04F6                     l3176:
  6939  04F6  0140               	movlb	0	; select bank0
  6940  04F7  131A               	bcf	26,6	;volatile
  6941  04F8                     l733:
  6942                           
  6943                           ;power.c: 118: _delay((unsigned long)((100)*(32000000/4000.0)));
  6944  04F8  3005               	movlw	5
  6945  04F9  0140               	movlb	0	; select bank0
  6946  04FA  00A1               	movwf	??_LED_Blink+1
  6947  04FB  300F               	movlw	15
  6948  04FC  00A0               	movwf	??_LED_Blink
  6949  04FD  30F1               	movlw	241
  6950  04FE                     u2337:
  6951  04FE  0B89               	decfsz	9,f
  6952  04FF  2CFE               	goto	u2337
  6953  0500  0BA0               	decfsz	??_LED_Blink,f
  6954  0501  2CFE               	goto	u2337
  6955  0502  0BA1               	decfsz	??_LED_Blink+1,f
  6956  0503  2CFE               	goto	u2337
  6957  0504                     l3178:
  6958  0504  0140               	movlb	0	; select bank0
  6959  0505  171A               	bsf	26,6	;volatile
  6960  0506                     l735:
  6961                           
  6962                           ;power.c: 120: _delay((unsigned long)((100)*(32000000/4000.0)));
  6963  0506  3005               	movlw	5
  6964  0507  0140               	movlb	0	; select bank0
  6965  0508  00A1               	movwf	??_LED_Blink+1
  6966  0509  300F               	movlw	15
  6967  050A  00A0               	movwf	??_LED_Blink
  6968  050B  30F1               	movlw	241
  6969  050C                     u2347:
  6970  050C  0B89               	decfsz	9,f
  6971  050D  2D0C               	goto	u2347
  6972  050E  0BA0               	decfsz	??_LED_Blink,f
  6973  050F  2D0C               	goto	u2347
  6974  0510  0BA1               	decfsz	??_LED_Blink+1,f
  6975  0511  2D0C               	goto	u2347
  6976  0512                     l3180:
  6977  0512  0140               	movlb	0	; select bank0
  6978  0513  131A               	bcf	26,6	;volatile
  6979  0514                     l737:
  6980                           
  6981                           ;power.c: 122: _delay((unsigned long)((100)*(32000000/4000.0)));
  6982  0514  3005               	movlw	5
  6983  0515  0140               	movlb	0	; select bank0
  6984  0516  00A1               	movwf	??_LED_Blink+1
  6985  0517  300F               	movlw	15
  6986  0518  00A0               	movwf	??_LED_Blink
  6987  0519  30F1               	movlw	241
  6988  051A                     u2357:
  6989  051A  0B89               	decfsz	9,f
  6990  051B  2D1A               	goto	u2357
  6991  051C  0BA0               	decfsz	??_LED_Blink,f
  6992  051D  2D1A               	goto	u2357
  6993  051E  0BA1               	decfsz	??_LED_Blink+1,f
  6994  051F  2D1A               	goto	u2357
  6995  0520                     l3182:
  6996  0520  0140               	movlb	0	; select bank0
  6997  0521  171A               	bsf	26,6	;volatile
  6998  0522                     l739:
  6999                           
  7000                           ;power.c: 124: _delay((unsigned long)((100)*(32000000/4000.0)));
  7001  0522  3005               	movlw	5
  7002  0523  0140               	movlb	0	; select bank0
  7003  0524  00A1               	movwf	??_LED_Blink+1
  7004  0525  300F               	movlw	15
  7005  0526  00A0               	movwf	??_LED_Blink
  7006  0527  30F1               	movlw	241
  7007  0528                     u2367:
  7008  0528  0B89               	decfsz	9,f
  7009  0529  2D28               	goto	u2367
  7010  052A  0BA0               	decfsz	??_LED_Blink,f
  7011  052B  2D28               	goto	u2367
  7012  052C  0BA1               	decfsz	??_LED_Blink+1,f
  7013  052D  2D28               	goto	u2367
  7014  052E                     l3184:
  7015  052E  0140               	movlb	0	; select bank0
  7016  052F  131A               	bcf	26,6	;volatile
  7017  0530                     l742:
  7018  0530  0008               	return
  7019  0531                     __end_of_LED_Blink:
  7020                           
  7021                           	psect	text18
  7022  075B                     __ptext18:	
  7023 ;; *************** function _ADC_Init *****************
  7024 ;; Defined at:
  7025 ;;		line 136 in file "sensor/power.c"
  7026 ;; Parameters:    Size  Location     Type
  7027 ;;		None
  7028 ;; Auto vars:     Size  Location     Type
  7029 ;;		None
  7030 ;; Return value:  Size  Location     Type
  7031 ;;                  1    wreg      void 
  7032 ;; Registers used:
  7033 ;;		wreg, status,2
  7034 ;; Tracked objects:
  7035 ;;		On entry : 0/0
  7036 ;;		On exit  : 0/0
  7037 ;;		Unchanged: 0/0
  7038 ;; Data sizes:     COMMON   BANK0   BANK1   BANK2   BANK3   BANK4   BANK5   BANK6   BANK7   BANK8   BANK9  BANK10  BANK1
      +1  BANK12  BANK13  BANK14  BANK15  BANK16  BANK17  BANK18  BANK19  BANK20  BANK21  BANK22  BANK23  BANK24  BANK25
  7039 ;;      Params:         0       0       0       0       0       0       0       0       0       0       0       0       
      +0       0       0       0       0       0       0       0       0       0       0       0       0       0       0
  7040 ;;      Locals:         0       0       0       0       0       0       0       0       0       0       0       0       
      +0       0       0       0       0       0       0       0       0       0       0       0       0       0       0
  7041 ;;      Temps:          0       0       0       0       0       0       0       0       0       0       0       0       
      +0       0       0       0       0       0       0       0       0       0       0       0       0       0       0
  7042 ;;      Totals:         0       0       0       0       0       0       0       0       0       0       0       0       
      +0       0       0       0       0       0       0       0       0       0       0       0       0       0       0
  7043 ;;Total ram usage:        0 bytes
  7044 ;; Hardware stack levels used:    1
  7045 ;; Hardware stack levels required when called:    3
  7046 ;; This function calls:
  7047 ;;		Nothing
  7048 ;; This function is called by:
  7049 ;;		_Power_Init
  7050 ;; This function uses a non-reentrant model
  7051 ;;
  7052                           
  7053                           
  7054                           ;psect for function _ADC_Init
  7055  075B                     _ADC_Init:
  7056  075B                     l3188:	
  7057                           ;incstack = 0
  7058                           ; Regs used in _ADC_Init: [wreg+status,2]
  7059                           
  7060                           
  7061                           ;power.c: 139: PMD3bits.ADCMD = 0;
  7062  075B  014F               	movlb	15	; select bank15
  7063  075C  1299               	bcf	25,5	;volatile
  7064                           
  7065                           ;power.c: 142: PMD0bits.FVRMD = 0;
  7066  075D  1316               	bcf	22,6	;volatile
  7067  075E                     l3190:
  7068                           
  7069                           ;power.c: 145: FVRCON = 0x82;
  7070  075E  3082               	movlw	130
  7071  075F  0152               	movlb	18	; select bank18
  7072  0760  008C               	movwf	12	;volatile
  7073  0761                     l3192:
  7074                           
  7075                           ;power.c: 148: ADLTHL = 0x00;
  7076  0761  0141               	movlb	1	; select bank1
  7077  0762  018C               	clrf	12	;volatile
  7078  0763                     l3194:
  7079                           
  7080                           ;power.c: 150: ADLTHH = 0x00;
  7081  0763  018D               	clrf	13	;volatile
  7082  0764                     l3196:
  7083                           
  7084                           ;power.c: 152: ADUTHL = 0x00;
  7085  0764  018E               	clrf	14	;volatile
  7086  0765                     l3198:
  7087                           
  7088                           ;power.c: 154: ADUTHH = 0x00;
  7089  0765  018F               	clrf	15	;volatile
  7090  0766                     l3200:
  7091                           
  7092                           ;power.c: 156: ADSTPTL = 0x00;
  7093  0766  0192               	clrf	18	;volatile
  7094  0767                     l3202:
  7095                           
  7096                           ;power.c: 158: ADSTPTH = 0x00;
  7097  0767  0193               	clrf	19	;volatile
  7098  0768                     l3204:
  7099                           
  7100                           ;power.c: 160: ADACCU = 0x00;
  7101  0768  0198               	clrf	24	;volatile
  7102  0769                     l3206:
  7103                           
  7104                           ;power.c: 162: ADRPT = 0x00;
  7105  0769  019A               	clrf	26	;volatile
  7106  076A                     l3208:
  7107                           
  7108                           ;power.c: 164: ADPCH = 0x00;
  7109  076A  019F               	clrf	31	;volatile
  7110  076B                     l3210:
  7111                           
  7112                           ;power.c: 166: ADACQL = 0x00;
  7113  076B  0142               	movlb	2	; select bank2
  7114  076C  018C               	clrf	12	;volatile
  7115  076D                     l3212:
  7116                           
  7117                           ;power.c: 168: ADACQH = 0x00;
  7118  076D  018D               	clrf	13	;volatile
  7119  076E                     l3214:
  7120                           
  7121                           ;power.c: 170: ADCAP = 0x00;
  7122  076E  018E               	clrf	14	;volatile
  7123  076F                     l3216:
  7124                           
  7125                           ;power.c: 172: ADPREL = 0x00;
  7126  076F  018F               	clrf	15	;volatile
  7127  0770                     l3218:
  7128                           
  7129                           ;power.c: 174: ADPREH = 0x00;
  7130  0770  0190               	clrf	16	;volatile
  7131  0771                     l3220:
  7132                           
  7133                           ;power.c: 176: ADCON1 = 0x00;
  7134  0771  0192               	clrf	18	;volatile
  7135  0772                     l3222:
  7136                           
  7137                           ;power.c: 178: ADCON2 = 0x00;
  7138  0772  0193               	clrf	19	;volatile
  7139  0773                     l3224:
  7140                           
  7141                           ;power.c: 180: ADCON3 = 0x00;
  7142  0773  0194               	clrf	20	;volatile
  7143  0774                     l3226:
  7144                           
  7145                           ;power.c: 182: ADSTAT = 0x00;
  7146  0774  0195               	clrf	21	;volatile
  7147                           
  7148                           ;power.c: 184: ADREF = 0x03;
  7149  0775  3003               	movlw	3
  7150  0776  0096               	movwf	22	;volatile
  7151  0777                     l3228:
  7152                           
  7153                           ;power.c: 186: ADACT = 0x00;
  7154  0777  0197               	clrf	23	;volatile
  7155  0778                     l3230:
  7156                           
  7157                           ;power.c: 188: ADCLK = 0x00;
  7158  0778  0198               	clrf	24	;volatile
  7159                           
  7160                           ;power.c: 195: ADCON0 = 0x84;
  7161  0779  3084               	movlw	132
  7162  077A  0091               	movwf	17	;volatile
  7163  077B                     l3232:
  7164                           
  7165                           ;power.c: 197: FVRCON = 0x00;
  7166  077B  0152               	movlb	18	; select bank18
  7167  077C  018C               	clrf	12	;volatile
  7168  077D                     l748:
  7169  077D  0008               	return
  7170  077E                     __end_of_ADC_Init:
  7171                           
  7172                           	psect	text19
  7173  06AC                     __ptext19:	
  7174 ;; *************** function _Power_GetData *****************
  7175 ;; Defined at:
  7176 ;;		line 425 in file "sensor/power.c"
  7177 ;; Parameters:    Size  Location     Type
  7178 ;;  data            1    0[BANK0 ] PTR unsigned char 
  7179 ;;		 -> mData(4), 
  7180 ;;  length          1    1[BANK0 ] PTR unsigned char 
  7181 ;;		 -> mDataLength(1), 
  7182 ;; Auto vars:     Size  Location     Type
  7183 ;;		None
  7184 ;; Return value:  Size  Location     Type
  7185 ;;                  1    wreg      void 
  7186 ;; Registers used:
  7187 ;;		wreg, fsr1l, fsr1h, status,2, status,0
  7188 ;; Tracked objects:
  7189 ;;		On entry : 0/0
  7190 ;;		On exit  : 0/0
  7191 ;;		Unchanged: 0/0
  7192 ;; Data sizes:     COMMON   BANK0   BANK1   BANK2   BANK3   BANK4   BANK5   BANK6   BANK7   BANK8   BANK9  BANK10  BANK1
      +1  BANK12  BANK13  BANK14  BANK15  BANK16  BANK17  BANK18  BANK19  BANK20  BANK21  BANK22  BANK23  BANK24  BANK25
  7193 ;;      Params:         0       2       0       0       0       0       0       0       0       0       0       0       
      +0       0       0       0       0       0       0       0       0       0       0       0       0       0       0
  7194 ;;      Locals:         0       0       0       0       0       0       0       0       0       0       0       0       
      +0       0       0       0       0       0       0       0       0       0       0       0       0       0       0
  7195 ;;      Temps:          0       1       0       0       0       0       0       0       0       0       0       0       
      +0       0       0       0       0       0       0       0       0       0       0       0       0       0       0
  7196 ;;      Totals:         0       3       0       0       0       0       0       0       0       0       0       0       
      +0       0       0       0       0       0       0       0       0       0       0       0       0       0       0
  7197 ;;Total ram usage:        3 bytes
  7198 ;; Hardware stack levels used:    1
  7199 ;; Hardware stack levels required when called:    3
  7200 ;; This function calls:
  7201 ;;		Nothing
  7202 ;; This function is called by:
  7203 ;;		_main
  7204 ;; This function uses a non-reentrant model
  7205 ;;
  7206                           
  7207                           
  7208                           ;psect for function _Power_GetData
  7209  06AC                     _Power_GetData:
  7210  06AC                     l3426:	
  7211                           ;incstack = 0
  7212                           ; Regs used in _Power_GetData: [wreg+fsr1l+fsr1h+status,2+status,0]
  7213                           
  7214                           
  7215                           ;power.c: 427: *length = 4;
  7216  06AC  3004               	movlw	4
  7217  06AD  0140               	movlb	0	; select bank0
  7218  06AE  00A2               	movwf	??_Power_GetData
  7219  06AF  0821               	movf	Power_GetData@length,w
  7220  06B0  0086               	movwf	6
  7221  06B1  0187               	clrf	7
  7222  06B2  0822               	movf	??_Power_GetData,w
  7223  06B3  0081               	movwf	1
  7224                           
  7225                           ;power.c: 428: data[0] = measurementData[0];
  7226  06B4  0141               	movlb	1	; select bank1
  7227  06B5  0820               	movf	_measurementData^(0+128),w	;volatile
  7228  06B6  0140               	movlb	0	; select bank0
  7229  06B7  00A2               	movwf	??_Power_GetData
  7230  06B8  0820               	movf	Power_GetData@data,w
  7231  06B9  0086               	movwf	6
  7232  06BA  0187               	clrf	7
  7233  06BB  0822               	movf	??_Power_GetData,w
  7234  06BC  0081               	movwf	1
  7235                           
  7236                           ;power.c: 429: data[1] = measurementData[1];
  7237  06BD  0141               	movlb	1	; select bank1
  7238  06BE  0821               	movf	(_measurementData^(0+128)+1),w	;volatile
  7239  06BF  0140               	movlb	0	; select bank0
  7240  06C0  00A2               	movwf	??_Power_GetData
  7241  06C1  0A20               	incf	Power_GetData@data,w
  7242  06C2  0086               	movwf	6
  7243  06C3  0187               	clrf	7
  7244  06C4  0822               	movf	??_Power_GetData,w
  7245  06C5  0081               	movwf	1
  7246  06C6                     l3428:
  7247                           
  7248                           ;power.c: 430: data[2] = measurementData[2];
  7249  06C6  0141               	movlb	1	; select bank1
  7250  06C7  0822               	movf	(_measurementData^(0+128)+2),w	;volatile
  7251  06C8  0140               	movlb	0	; select bank0
  7252  06C9  00A2               	movwf	??_Power_GetData
  7253  06CA  0820               	movf	Power_GetData@data,w
  7254  06CB  3E02               	addlw	2
  7255  06CC  0086               	movwf	6
  7256  06CD  0187               	clrf	7
  7257  06CE  0822               	movf	??_Power_GetData,w
  7258  06CF  0081               	movwf	1
  7259  06D0                     l3430:
  7260                           
  7261                           ;power.c: 431: data[3] = measurementData[3];
  7262  06D0  0141               	movlb	1	; select bank1
  7263  06D1  0823               	movf	(_measurementData^(0+128)+3),w	;volatile
  7264  06D2  0140               	movlb	0	; select bank0
  7265  06D3  00A2               	movwf	??_Power_GetData
  7266  06D4  0820               	movf	Power_GetData@data,w
  7267  06D5  3E03               	addlw	3
  7268  06D6  0086               	movwf	6
  7269  06D7  0187               	clrf	7
  7270  06D8  0822               	movf	??_Power_GetData,w
  7271  06D9  0081               	movwf	1
  7272  06DA                     l821:
  7273  06DA  0008               	return
  7274  06DB                     __end_of_Power_GetData:
  7275                           
  7276                           	psect	text20
  7277  0F7A                     __ptext20:	
  7278 ;; *************** function _I2C1_TxBufferEmpty *****************
  7279 ;; Defined at:
  7280 ;;		line 183 in file "system/i2c1.c"
  7281 ;; Parameters:    Size  Location     Type
  7282 ;;		None
  7283 ;; Auto vars:     Size  Location     Type
  7284 ;;		None
  7285 ;; Return value:  Size  Location     Type
  7286 ;;                  1    wreg      unsigned char 
  7287 ;; Registers used:
  7288 ;;		wreg, status,2, status,0
  7289 ;; Tracked objects:
  7290 ;;		On entry : 0/0
  7291 ;;		On exit  : 0/0
  7292 ;;		Unchanged: 0/0
  7293 ;; Data sizes:     COMMON   BANK0   BANK1   BANK2   BANK3   BANK4   BANK5   BANK6   BANK7   BANK8   BANK9  BANK10  BANK1
      +1  BANK12  BANK13  BANK14  BANK15  BANK16  BANK17  BANK18  BANK19  BANK20  BANK21  BANK22  BANK23  BANK24  BANK25
  7294 ;;      Params:         0       0       0       0       0       0       0       0       0       0       0       0       
      +0       0       0       0       0       0       0       0       0       0       0       0       0       0       0
  7295 ;;      Locals:         0       0       0       0       0       0       0       0       0       0       0       0       
      +0       0       0       0       0       0       0       0       0       0       0       0       0       0       0
  7296 ;;      Temps:          0       0       0       0       0       0       0       0       0       0       0       0       
      +0       0       0       0       0       0       0       0       0       0       0       0       0       0       0
  7297 ;;      Totals:         0       0       0       0       0       0       0       0       0       0       0       0       
      +0       0       0       0       0       0       0       0       0       0       0       0       0       0       0
  7298 ;;Total ram usage:        0 bytes
  7299 ;; Hardware stack levels used:    1
  7300 ;; Hardware stack levels required when called:    3
  7301 ;; This function calls:
  7302 ;;		Nothing
  7303 ;; This function is called by:
  7304 ;;		_main
  7305 ;; This function uses a non-reentrant model
  7306 ;;
  7307                           
  7308                           
  7309                           ;psect for function _I2C1_TxBufferEmpty
  7310  0F7A                     _I2C1_TxBufferEmpty:
  7311  0F7A                     l3296:	
  7312                           ;incstack = 0
  7313                           ; Regs used in _I2C1_TxBufferEmpty: [wreg+status,2+status,0]
  7314                           
  7315                           
  7316                           ;i2c1.c: 184: return (txCnt != 0);
  7317  0F7A  0877               	movf	_txCnt,w
  7318  0F7B  1D03               	btfss	3,2
  7319  0F7C  2F7E               	goto	u1921
  7320  0F7D  2F80               	goto	u1920
  7321  0F7E                     u1921:
  7322  0F7E  3001               	movlw	1
  7323  0F7F  2F81               	goto	u1930
  7324  0F80                     u1920:
  7325  0F80  3000               	movlw	0
  7326  0F81                     u1930:
  7327  0F81                     l85:
  7328  0F81  0008               	return
  7329  0F82                     __end_of_I2C1_TxBufferEmpty:
  7330                           
  7331                           	psect	text21
  7332  0731                     __ptext21:	
  7333 ;; *************** function _I2C1_SetTransmitData *****************
  7334 ;; Defined at:
  7335 ;;		line 197 in file "system/i2c1.c"
  7336 ;; Parameters:    Size  Location     Type
  7337 ;;  data            2    0[BANK0 ] PTR unsigned char 
  7338 ;;		 -> main@mnr(1), main@type(1), main@ack(1), mData(4), 
  7339 ;;  len             1    2[BANK0 ] unsigned char 
  7340 ;; Auto vars:     Size  Location     Type
  7341 ;;		None
  7342 ;; Return value:  Size  Location     Type
  7343 ;;                  1    wreg      void 
  7344 ;; Registers used:
  7345 ;;		wreg, fsr1l, fsr1h, status,2, status,0
  7346 ;; Tracked objects:
  7347 ;;		On entry : 0/0
  7348 ;;		On exit  : 0/0
  7349 ;;		Unchanged: 0/0
  7350 ;; Data sizes:     COMMON   BANK0   BANK1   BANK2   BANK3   BANK4   BANK5   BANK6   BANK7   BANK8   BANK9  BANK10  BANK1
      +1  BANK12  BANK13  BANK14  BANK15  BANK16  BANK17  BANK18  BANK19  BANK20  BANK21  BANK22  BANK23  BANK24  BANK25
  7351 ;;      Params:         0       3       0       0       0       0       0       0       0       0       0       0       
      +0       0       0       0       0       0       0       0       0       0       0       0       0       0       0
  7352 ;;      Locals:         0       0       0       0       0       0       0       0       0       0       0       0       
      +0       0       0       0       0       0       0       0       0       0       0       0       0       0       0
  7353 ;;      Temps:          0       3       0       0       0       0       0       0       0       0       0       0       
      +0       0       0       0       0       0       0       0       0       0       0       0       0       0       0
  7354 ;;      Totals:         0       6       0       0       0       0       0       0       0       0       0       0       
      +0       0       0       0       0       0       0       0       0       0       0       0       0       0       0
  7355 ;;Total ram usage:        6 bytes
  7356 ;; Hardware stack levels used:    1
  7357 ;; Hardware stack levels required when called:    3
  7358 ;; This function calls:
  7359 ;;		Nothing
  7360 ;; This function is called by:
  7361 ;;		_main
  7362 ;; This function uses a non-reentrant model
  7363 ;;
  7364                           
  7365                           
  7366                           ;psect for function _I2C1_SetTransmitData
  7367  0731                     _I2C1_SetTransmitData:
  7368  0731                     l3510:	
  7369                           ;incstack = 0
  7370                           ; Regs used in _I2C1_SetTransmitData: [wreg+fsr1l+fsr1h+status,2+status,0]
  7371                           
  7372                           
  7373                           ;i2c1.c: 199: while((txCnt < len) && (txCnt < 32)){
  7374  0731  2F48               	goto	l3516
  7375  0732                     l3512:
  7376                           
  7377                           ;i2c1.c: 200: i2c1_tx_buffer[txCnt] = data[txCnt];
  7378  0732  0877               	movf	_txCnt,w
  7379  0733  00A3               	movwf	??_I2C1_SetTransmitData
  7380  0734  01A4               	clrf	??_I2C1_SetTransmitData+1
  7381  0735  0823               	movf	??_I2C1_SetTransmitData,w
  7382  0736  0720               	addwf	I2C1_SetTransmitData@data,w
  7383  0737  0086               	movwf	6
  7384  0738  0824               	movf	??_I2C1_SetTransmitData+1,w
  7385  0739  3D21               	addwfc	I2C1_SetTransmitData@data+1,w
  7386  073A  0087               	movwf	7
  7387  073B  0801               	movf	1,w
  7388  073C  00A5               	movwf	??_I2C1_SetTransmitData+2
  7389  073D  0877               	movf	_txCnt,w
  7390  073E  3E20               	addlw	(low (_i2c1_tx_buffer| (0+256)))& (0+255)
  7391  073F  0086               	movwf	6
  7392  0740  3001               	movlw	1	; select bank2/3
  7393  0741  0087               	movwf	7
  7394  0742  0825               	movf	??_I2C1_SetTransmitData+2,w
  7395  0743  0081               	movwf	1
  7396  0744                     l3514:
  7397                           
  7398                           ;i2c1.c: 201: txCnt++;
  7399  0744  3001               	movlw	1
  7400  0745  00A3               	movwf	??_I2C1_SetTransmitData
  7401  0746  0823               	movf	??_I2C1_SetTransmitData,w
  7402  0747  07F7               	addwf	_txCnt,f
  7403  0748                     l3516:
  7404  0748  0140               	movlb	0	; select bank0
  7405  0749  0822               	movf	I2C1_SetTransmitData@len,w
  7406  074A  0277               	subwf	_txCnt,w
  7407  074B  1803               	skipnc
  7408  074C  2F4E               	goto	u2161
  7409  074D  2F4F               	goto	u2160
  7410  074E                     u2161:
  7411  074E  2F55               	goto	l3520
  7412  074F                     u2160:
  7413  074F                     l3518:
  7414  074F  3020               	movlw	32
  7415  0750  0277               	subwf	_txCnt,w
  7416  0751  1C03               	skipc
  7417  0752  2F54               	goto	u2171
  7418  0753  2F55               	goto	u2170
  7419  0754                     u2171:
  7420  0754  2F32               	goto	l3512
  7421  0755                     u2170:
  7422  0755                     l3520:
  7423                           
  7424                           ;i2c1.c: 202: };i2c1.c: 203: txLen = txCnt;
  7425  0755  0877               	movf	_txCnt,w
  7426  0756  00A3               	movwf	??_I2C1_SetTransmitData
  7427  0757  0823               	movf	??_I2C1_SetTransmitData,w
  7428  0758  00D3               	movwf	_txLen
  7429  0759                     l3522:
  7430                           
  7431                           ;i2c1.c: 204: txCnt = 0;
  7432  0759  01F7               	clrf	_txCnt
  7433  075A                     l99:
  7434  075A  0008               	return
  7435  075B                     __end_of_I2C1_SetTransmitData:
  7436                           
  7437                           	psect	text22
  7438  079F                     __ptext22:	
  7439 ;; *************** function _I2C1_GetCommandData *****************
  7440 ;; Defined at:
  7441 ;;		line 192 in file "system/i2c1.c"
  7442 ;; Parameters:    Size  Location     Type
  7443 ;;  data            1    wreg     PTR unsigned char 
  7444 ;;		 -> main@data(20), 
  7445 ;;  len             1    0[BANK0 ] PTR unsigned char 
  7446 ;;		 -> main@len(1), 
  7447 ;; Auto vars:     Size  Location     Type
  7448 ;;  data            1    2[BANK0 ] PTR unsigned char 
  7449 ;;		 -> main@data(20), 
  7450 ;; Return value:  Size  Location     Type
  7451 ;;                  1    wreg      void 
  7452 ;; Registers used:
  7453 ;;		wreg, fsr0l, fsr0h, fsr1l, fsr1h
  7454 ;; Tracked objects:
  7455 ;;		On entry : 0/0
  7456 ;;		On exit  : 0/0
  7457 ;;		Unchanged: 0/0
  7458 ;; Data sizes:     COMMON   BANK0   BANK1   BANK2   BANK3   BANK4   BANK5   BANK6   BANK7   BANK8   BANK9  BANK10  BANK1
      +1  BANK12  BANK13  BANK14  BANK15  BANK16  BANK17  BANK18  BANK19  BANK20  BANK21  BANK22  BANK23  BANK24  BANK25
  7459 ;;      Params:         0       1       0       0       0       0       0       0       0       0       0       0       
      +0       0       0       0       0       0       0       0       0       0       0       0       0       0       0
  7460 ;;      Locals:         0       1       0       0       0       0       0       0       0       0       0       0       
      +0       0       0       0       0       0       0       0       0       0       0       0       0       0       0
  7461 ;;      Temps:          0       1       0       0       0       0       0       0       0       0       0       0       
      +0       0       0       0       0       0       0       0       0       0       0       0       0       0       0
  7462 ;;      Totals:         0       3       0       0       0       0       0       0       0       0       0       0       
      +0       0       0       0       0       0       0       0       0       0       0       0       0       0       0
  7463 ;;Total ram usage:        3 bytes
  7464 ;; Hardware stack levels used:    1
  7465 ;; Hardware stack levels required when called:    3
  7466 ;; This function calls:
  7467 ;;		Nothing
  7468 ;; This function is called by:
  7469 ;;		_main
  7470 ;; This function uses a non-reentrant model
  7471 ;;
  7472                           
  7473                           
  7474                           ;psect for function _I2C1_GetCommandData
  7475  079F                     _I2C1_GetCommandData:
  7476                           
  7477                           ;incstack = 0
  7478                           ; Regs used in _I2C1_GetCommandData: [wreg-fsr1h]
  7479                           ;I2C1_GetCommandData@data stored from wreg
  7480  079F  0140               	movlb	0	; select bank0
  7481  07A0  00A2               	movwf	I2C1_GetCommandData@data
  7482  07A1                     l3304:
  7483                           
  7484                           ;i2c1.c: 193: __builtin_memcpy(data,i2c1_rx_buffer,rxLen);
  7485  07A1  0822               	movf	I2C1_GetCommandData@data,w
  7486  07A2  0086               	movwf	6
  7487  07A3  3001               	movlw	1	; select bank2/3
  7488  07A4  0087               	movwf	7
  7489  07A5  2FB5               	goto	mcp0
  7490  07A6                     mcp0b:
  7491  07A6  3040               	movlw	low (_i2c1_rx_buffer| (0+256))
  7492  07A7  0084               	movwf	4
  7493  07A8  3001               	movlw	1	; select bank2/3
  7494  07A9  0085               	movwf	5
  7495  07AA  0878               	movf	_rxLen,w
  7496  07AB  0140               	movlb	0	; select bank0
  7497  07AC  00A1               	movwf	??_I2C1_GetCommandData
  7498  07AD  0821               	movf	??_I2C1_GetCommandData,w
  7499  07AE  1903               	skipnz
  7500  07AF  2FB6               	goto	mcp0z
  7501  07B0                     u194m0:
  7502  07B0  0012               	moviw fsr0++
  7503  07B1  001E               	movwi fsr1++
  7504  07B2  0BA1               	decfsz	??_I2C1_GetCommandData,f
  7505  07B3  2FB0               	goto	u194m0
  7506  07B4  2FB6               	goto	u194m1
  7507  07B5                     mcp0:
  7508  07B5  2FA6               	goto	mcp0b
  7509  07B6                     u194m1:
  7510  07B6                     mcp0z:
  7511  07B6                     l3306:
  7512                           
  7513                           ;i2c1.c: 194: *len = rxLen;
  7514  07B6  0878               	movf	_rxLen,w
  7515  07B7  0140               	movlb	0	; select bank0
  7516  07B8  00A1               	movwf	??_I2C1_GetCommandData
  7517  07B9  0820               	movf	I2C1_GetCommandData@len,w
  7518  07BA  0086               	movwf	6
  7519  07BB  3001               	movlw	1	; select bank2/3
  7520  07BC  0087               	movwf	7
  7521  07BD  0821               	movf	??_I2C1_GetCommandData,w
  7522  07BE  0081               	movwf	1
  7523  07BF                     l91:
  7524  07BF  0008               	return
  7525  07C0                     __end_of_I2C1_GetCommandData:
  7526                           
  7527                           	psect	text23
  7528  0F82                     __ptext23:	
  7529 ;; *************** function _I2C1_GetCommand *****************
  7530 ;; Defined at:
  7531 ;;		line 187 in file "system/i2c1.c"
  7532 ;; Parameters:    Size  Location     Type
  7533 ;;  cmd             1    wreg     PTR unsigned char 
  7534 ;;		 -> main@cmd(1), 
  7535 ;; Auto vars:     Size  Location     Type
  7536 ;;  cmd             1    1[BANK0 ] PTR unsigned char 
  7537 ;;		 -> main@cmd(1), 
  7538 ;; Return value:  Size  Location     Type
  7539 ;;                  1    wreg      void 
  7540 ;; Registers used:
  7541 ;;		wreg, fsr1l, fsr1h, status,2
  7542 ;; Tracked objects:
  7543 ;;		On entry : 0/0
  7544 ;;		On exit  : 0/0
  7545 ;;		Unchanged: 0/0
  7546 ;; Data sizes:     COMMON   BANK0   BANK1   BANK2   BANK3   BANK4   BANK5   BANK6   BANK7   BANK8   BANK9  BANK10  BANK1
      +1  BANK12  BANK13  BANK14  BANK15  BANK16  BANK17  BANK18  BANK19  BANK20  BANK21  BANK22  BANK23  BANK24  BANK25
  7547 ;;      Params:         0       0       0       0       0       0       0       0       0       0       0       0       
      +0       0       0       0       0       0       0       0       0       0       0       0       0       0       0
  7548 ;;      Locals:         0       1       0       0       0       0       0       0       0       0       0       0       
      +0       0       0       0       0       0       0       0       0       0       0       0       0       0       0
  7549 ;;      Temps:          0       1       0       0       0       0       0       0       0       0       0       0       
      +0       0       0       0       0       0       0       0       0       0       0       0       0       0       0
  7550 ;;      Totals:         0       2       0       0       0       0       0       0       0       0       0       0       
      +0       0       0       0       0       0       0       0       0       0       0       0       0       0       0
  7551 ;;Total ram usage:        2 bytes
  7552 ;; Hardware stack levels used:    1
  7553 ;; Hardware stack levels required when called:    3
  7554 ;; This function calls:
  7555 ;;		Nothing
  7556 ;; This function is called by:
  7557 ;;		_main
  7558 ;; This function uses a non-reentrant model
  7559 ;;
  7560                           
  7561                           
  7562                           ;psect for function _I2C1_GetCommand
  7563  0F82                     _I2C1_GetCommand:
  7564                           
  7565                           ;incstack = 0
  7566                           ; Regs used in _I2C1_GetCommand: [wreg+fsr1l+fsr1h+status,2]
  7567                           ;I2C1_GetCommand@cmd stored from wreg
  7568  0F82  0140               	movlb	0	; select bank0
  7569  0F83  00A1               	movwf	I2C1_GetCommand@cmd
  7570  0F84                     l3300:
  7571                           
  7572                           ;i2c1.c: 188: *cmd = cmdByte;
  7573  0F84  0855               	movf	_cmdByte,w
  7574  0F85  00A0               	movwf	??_I2C1_GetCommand
  7575  0F86  0821               	movf	I2C1_GetCommand@cmd,w
  7576  0F87  0086               	movwf	6
  7577  0F88  3001               	movlw	1	; select bank2/3
  7578  0F89  0087               	movwf	7
  7579  0F8A  0820               	movf	??_I2C1_GetCommand,w
  7580  0F8B  0081               	movwf	1
  7581  0F8C                     l3302:
  7582                           
  7583                           ;i2c1.c: 189: cmdReceived = 0;
  7584  0F8C  01D4               	clrf	_cmdReceived
  7585  0F8D                     l88:
  7586  0F8D  0008               	return
  7587  0F8E                     __end_of_I2C1_GetCommand:
  7588                           
  7589                           	psect	text24
  7590  0F5B                     __ptext24:	
  7591 ;; *************** function _I2C1_CommandReceived *****************
  7592 ;; Defined at:
  7593 ;;		line 179 in file "system/i2c1.c"
  7594 ;; Parameters:    Size  Location     Type
  7595 ;;		None
  7596 ;; Auto vars:     Size  Location     Type
  7597 ;;		None
  7598 ;; Return value:  Size  Location     Type
  7599 ;;                  1    wreg      unsigned char 
  7600 ;; Registers used:
  7601 ;;		wreg
  7602 ;; Tracked objects:
  7603 ;;		On entry : 0/0
  7604 ;;		On exit  : 0/0
  7605 ;;		Unchanged: 0/0
  7606 ;; Data sizes:     COMMON   BANK0   BANK1   BANK2   BANK3   BANK4   BANK5   BANK6   BANK7   BANK8   BANK9  BANK10  BANK1
      +1  BANK12  BANK13  BANK14  BANK15  BANK16  BANK17  BANK18  BANK19  BANK20  BANK21  BANK22  BANK23  BANK24  BANK25
  7607 ;;      Params:         0       0       0       0       0       0       0       0       0       0       0       0       
      +0       0       0       0       0       0       0       0       0       0       0       0       0       0       0
  7608 ;;      Locals:         0       0       0       0       0       0       0       0       0       0       0       0       
      +0       0       0       0       0       0       0       0       0       0       0       0       0       0       0
  7609 ;;      Temps:          0       0       0       0       0       0       0       0       0       0       0       0       
      +0       0       0       0       0       0       0       0       0       0       0       0       0       0       0
  7610 ;;      Totals:         0       0       0       0       0       0       0       0       0       0       0       0       
      +0       0       0       0       0       0       0       0       0       0       0       0       0       0       0
  7611 ;;Total ram usage:        0 bytes
  7612 ;; Hardware stack levels used:    1
  7613 ;; Hardware stack levels required when called:    3
  7614 ;; This function calls:
  7615 ;;		Nothing
  7616 ;; This function is called by:
  7617 ;;		_main
  7618 ;; This function uses a non-reentrant model
  7619 ;;
  7620                           
  7621                           
  7622                           ;psect for function _I2C1_CommandReceived
  7623  0F5B                     _I2C1_CommandReceived:
  7624  0F5B                     l3292:	
  7625                           ;incstack = 0
  7626                           ; Regs used in _I2C1_CommandReceived: [wreg]
  7627                           
  7628                           
  7629                           ;i2c1.c: 180: return cmdReceived;
  7630  0F5B  0140               	movlb	0	; select bank0
  7631  0F5C  0854               	movf	_cmdReceived,w
  7632  0F5D                     l82:
  7633  0F5D  0008               	return
  7634  0F5E                     __end_of_I2C1_CommandReceived:
  7635                           
  7636                           	psect	intentry
  7637  0004                     __pintentry:	
  7638 ;; *************** function _Interrupt_Handler *****************
  7639 ;; Defined at:
  7640 ;;		line 11 in file "system/interrupt.c"
  7641 ;; Parameters:    Size  Location     Type
  7642 ;;		None
  7643 ;; Auto vars:     Size  Location     Type
  7644 ;;		None
  7645 ;; Return value:  Size  Location     Type
  7646 ;;                  1    wreg      void 
  7647 ;; Registers used:
  7648 ;;		wreg, fsr0l, fsr0h, fsr1l, fsr1h, status,2, status,0, pclath, cstack
  7649 ;; Tracked objects:
  7650 ;;		On entry : 0/0
  7651 ;;		On exit  : 0/0
  7652 ;;		Unchanged: 0/0
  7653 ;; Data sizes:     COMMON   BANK0   BANK1   BANK2   BANK3   BANK4   BANK5   BANK6   BANK7   BANK8   BANK9  BANK10  BANK1
      +1  BANK12  BANK13  BANK14  BANK15  BANK16  BANK17  BANK18  BANK19  BANK20  BANK21  BANK22  BANK23  BANK24  BANK25
  7654 ;;      Params:         0       0       0       0       0       0       0       0       0       0       0       0       
      +0       0       0       0       0       0       0       0       0       0       0       0       0       0       0
  7655 ;;      Locals:         0       0       0       0       0       0       0       0       0       0       0       0       
      +0       0       0       0       0       0       0       0       0       0       0       0       0       0       0
  7656 ;;      Temps:          0       0       0       0       0       0       0       0       0       0       0       0       
      +0       0       0       0       0       0       0       0       0       0       0       0       0       0       0
  7657 ;;      Totals:         0       0       0       0       0       0       0       0       0       0       0       0       
      +0       0       0       0       0       0       0       0       0       0       0       0       0       0       0
  7658 ;;Total ram usage:        0 bytes
  7659 ;; Hardware stack levels used:    1
  7660 ;; Hardware stack levels required when called:    2
  7661 ;; This function calls:
  7662 ;;		_ADCC_ISR
  7663 ;;		_DefaultSensorInterruptHandler
  7664 ;;		_I2C1_ISR
  7665 ;;		_I2C2_BusCollisionISR
  7666 ;;		_I2C2_ISR
  7667 ;; This function is called by:
  7668 ;;		Interrupt level 1
  7669 ;; This function uses a non-reentrant model
  7670 ;;
  7671                           
  7672  0004                     _Interrupt_Handler:
  7673                           
  7674                           ;incstack = 0
  7675  0004  147E               	bsf	int$flags,0	;set compiler interrupt flag (level 1)
  7676                           
  7677                           ; Regs used in _Interrupt_Handler: [wreg-fsr1h+status,2+status,0+pclath+cstack]
  7678  0005  3180               	pagesel	$
  7679  0006                     i1l2948:
  7680                           
  7681                           ;interrupt.c: 15: SensorInterruptHandler();
  7682  0006  0141               	movlb	1	; select bank1
  7683  0007  086D               	movf	(_SensorInterruptHandler+1)^(0+128),w
  7684  0008  008A               	movwf	10
  7685  0009  086C               	movf	_SensorInterruptHandler^(0+128),w
  7686  000A  000A               	callw
  7687  000B  3180               	pagesel	$
  7688  000C                     i1l2950:
  7689                           
  7690                           ;interrupt.c: 23: if(INTCONbits.PEIE == 1)
  7691  000C  1F0B               	btfss	11,6	;volatile
  7692  000D  280F               	goto	u153_21
  7693  000E  2810               	goto	u153_20
  7694  000F                     u153_21:
  7695  000F  2841               	goto	i1l159
  7696  0010                     u153_20:
  7697  0010                     i1l2952:
  7698                           
  7699                           ;interrupt.c: 24: {;interrupt.c: 25: if(PIE3bits.SSP1IE == 1 && PIR3bits.SSP1IF == 1)
  7700  0010  014E               	movlb	14	; select bank14
  7701  0011  1C19               	btfss	25,0	;volatile
  7702  0012  2814               	goto	u154_21
  7703  0013  2815               	goto	u154_20
  7704  0014                     u154_21:
  7705  0014  281D               	goto	i1l150
  7706  0015                     u154_20:
  7707  0015                     i1l2954:
  7708  0015  1C0F               	btfss	15,0	;volatile
  7709  0016  2818               	goto	u155_21
  7710  0017  2819               	goto	u155_20
  7711  0018                     u155_21:
  7712  0018  281D               	goto	i1l150
  7713  0019                     u155_20:
  7714  0019                     i1l2956:
  7715                           
  7716                           ;interrupt.c: 26: {;interrupt.c: 27: I2C1_ISR();
  7717  0019  3186  265D  3180   	fcall	_I2C1_ISR
  7718                           
  7719                           ;interrupt.c: 28: }
  7720  001C  2841               	goto	i1l159
  7721  001D                     i1l150:
  7722                           
  7723                           ;interrupt.c: 29: else if(PIE1bits.ADIE == 1 && PIR1bits.ADIF == 1)
  7724  001D  1C17               	btfss	23,0	;volatile
  7725  001E  2820               	goto	u156_21
  7726  001F  2821               	goto	u156_20
  7727  0020                     u156_21:
  7728  0020  2829               	goto	i1l152
  7729  0021                     u156_20:
  7730  0021                     i1l2958:
  7731  0021  1C0D               	btfss	13,0	;volatile
  7732  0022  2824               	goto	u157_21
  7733  0023  2825               	goto	u157_20
  7734  0024                     u157_21:
  7735  0024  2829               	goto	i1l152
  7736  0025                     u157_20:
  7737  0025                     i1l2960:
  7738                           
  7739                           ;interrupt.c: 30: {;interrupt.c: 31: ADCC_ISR();
  7740  0025  318F  27B5  3180   	fcall	_ADCC_ISR
  7741                           
  7742                           ;interrupt.c: 32: }
  7743  0028  2841               	goto	i1l159
  7744  0029                     i1l152:
  7745                           
  7746                           ;interrupt.c: 33: else if(PIE3bits.BCL2IE == 1 && PIR3bits.BCL2IF == 1)
  7747  0029  1D99               	btfss	25,3	;volatile
  7748  002A  282C               	goto	u158_21
  7749  002B  282D               	goto	u158_20
  7750  002C                     u158_21:
  7751  002C  2835               	goto	i1l154
  7752  002D                     u158_20:
  7753  002D                     i1l2962:
  7754  002D  1D8F               	btfss	15,3	;volatile
  7755  002E  2830               	goto	u159_21
  7756  002F  2831               	goto	u159_20
  7757  0030                     u159_21:
  7758  0030  2835               	goto	i1l154
  7759  0031                     u159_20:
  7760  0031                     i1l2964:
  7761                           
  7762                           ;interrupt.c: 34: {;interrupt.c: 35: I2C2_BusCollisionISR();
  7763  0031  318F  2758  3180   	fcall	_I2C2_BusCollisionISR
  7764                           
  7765                           ;interrupt.c: 36: }
  7766  0034  2841               	goto	i1l159
  7767  0035                     i1l154:
  7768                           
  7769                           ;interrupt.c: 37: else if(PIE3bits.SSP2IE == 1 && PIR3bits.SSP2IF == 1)
  7770  0035  1D19               	btfss	25,2	;volatile
  7771  0036  2838               	goto	u160_21
  7772  0037  2839               	goto	u160_20
  7773  0038                     u160_21:
  7774  0038  2841               	goto	i1l153
  7775  0039                     u160_20:
  7776  0039                     i1l2966:
  7777  0039  1D0F               	btfss	15,2	;volatile
  7778  003A  283C               	goto	u161_21
  7779  003B  283D               	goto	u161_20
  7780  003C                     u161_21:
  7781  003C  2841               	goto	i1l153
  7782  003D                     u161_20:
  7783  003D                     i1l2968:
  7784                           
  7785                           ;interrupt.c: 38: {;interrupt.c: 39: I2C2_ISR();
  7786  003D  3180  2076  3180   	fcall	_I2C2_ISR
  7787                           
  7788                           ;interrupt.c: 40: }
  7789  0040  2841               	goto	i1l159
  7790  0041                     i1l153:
  7791  0041                     i1l159:
  7792  0041  107E               	bcf	int$flags,0	;clear compiler interrupt flag (level 1)
  7793  0042  0009               	retfie
  7794  0043                     __end_of_Interrupt_Handler:
  7795                           
  7796                           	psect	text26
  7797  0076                     __ptext26:	
  7798 ;; *************** function _I2C2_ISR *****************
  7799 ;; Defined at:
  7800 ;;		line 252 in file "system/i2c2.c"
  7801 ;; Parameters:    Size  Location     Type
  7802 ;;		None
  7803 ;; Auto vars:     Size  Location     Type
  7804 ;;		None
  7805 ;; Return value:  Size  Location     Type
  7806 ;;                  1    wreg      void 
  7807 ;; Registers used:
  7808 ;;		wreg, fsr0l, fsr0h, fsr1l, fsr1h, status,2, status,0, pclath, cstack
  7809 ;; Tracked objects:
  7810 ;;		On entry : 0/0
  7811 ;;		On exit  : 0/0
  7812 ;;		Unchanged: 0/0
  7813 ;; Data sizes:     COMMON   BANK0   BANK1   BANK2   BANK3   BANK4   BANK5   BANK6   BANK7   BANK8   BANK9  BANK10  BANK1
      +1  BANK12  BANK13  BANK14  BANK15  BANK16  BANK17  BANK18  BANK19  BANK20  BANK21  BANK22  BANK23  BANK24  BANK25
  7814 ;;      Params:         0       0       0       0       0       0       0       0       0       0       0       0       
      +0       0       0       0       0       0       0       0       0       0       0       0       0       0       0
  7815 ;;      Locals:         0       0       0       0       0       0       0       0       0       0       0       0       
      +0       0       0       0       0       0       0       0       0       0       0       0       0       0       0
  7816 ;;      Temps:          4       0       0       0       0       0       0       0       0       0       0       0       
      +0       0       0       0       0       0       0       0       0       0       0       0       0       0       0
  7817 ;;      Totals:         4       0       0       0       0       0       0       0       0       0       0       0       
      +0       0       0       0       0       0       0       0       0       0       0       0       0       0       0
  7818 ;;Total ram usage:        4 bytes
  7819 ;; Hardware stack levels used:    1
  7820 ;; Hardware stack levels required when called:    1
  7821 ;; This function calls:
  7822 ;;		_I2C2_FunctionComplete
  7823 ;;		_I2C2_Stop
  7824 ;; This function is called by:
  7825 ;;		_Interrupt_Handler
  7826 ;; This function uses a non-reentrant model
  7827 ;;
  7828                           
  7829                           
  7830                           ;psect for function _I2C2_ISR
  7831  0076                     _I2C2_ISR:
  7832  0076                     i1l2662:	
  7833                           ;incstack = 0
  7834                           ; Regs used in _I2C2_ISR: [wreg-fsr1h+status,2+status,0+pclath+cstack]
  7835                           
  7836                           
  7837                           ;i2c2.c: 255: static uint8_t *pi2c_buf_ptr;;i2c2.c: 256: static uint16_t i2c_address = 0
      +                          ;;i2c2.c: 257: static uint8_t i2c_bytes_left = 0;;i2c2.c: 258: static uint8_t i2c_10bit_
      +                          address_restart = 0;;i2c2.c: 260: PIR3bits.SSP2IF = 0;
  7838  0076  014E               	movlb	14	; select bank14
  7839  0077  110F               	bcf	15,2	;volatile
  7840                           
  7841                           ;i2c2.c: 264: if(SSP2CON1bits.WCOL)
  7842  0078  0143               	movlb	3	; select bank3
  7843  0079  1F9A               	btfss	26,7	;volatile
  7844  007A  287C               	goto	u123_21
  7845  007B  287D               	goto	u123_20
  7846  007C                     u123_21:
  7847  007C  29B9               	goto	i1l2798
  7848  007D                     u123_20:
  7849  007D                     i1l2664:
  7850                           
  7851                           ;i2c2.c: 265: {;i2c2.c: 267: SSP2CON1bits.WCOL = 0;
  7852  007D  139A               	bcf	26,7	;volatile
  7853  007E                     i1l2666:
  7854                           
  7855                           ;i2c2.c: 268: i2c2_state = S_MASTER_IDLE;
  7856  007E  0140               	movlb	0	; select bank0
  7857  007F  01D1               	clrf	_i2c2_state
  7858  0080                     i1l2668:
  7859                           
  7860                           ;i2c2.c: 269: *(p_i2c2_current->pTrFlag) = I2C2_MESSAGE_FAIL;
  7861  0080  084F               	movf	_p_i2c2_current,w
  7862  0081  3E02               	addlw	2
  7863  0082  0086               	movwf	6
  7864  0083  0187               	clrf	7
  7865  0084  0801               	movf	1,w
  7866  0085  0086               	movwf	6
  7867  0086  0187               	clrf	7
  7868  0087  0181               	clrf	1
  7869  0088  0A81               	incf	1,f
  7870  0089                     i1l2670:
  7871                           
  7872                           ;i2c2.c: 272: p_i2c2_current = (0);
  7873  0089  01CF               	clrf	_p_i2c2_current
  7874  008A  29DD               	goto	i1l495
  7875  008B                     i1l497:	
  7876                           ;i2c2.c: 279: {;i2c2.c: 280: case S_MASTER_IDLE:
  7877                           
  7878                           
  7879                           ;i2c2.c: 282: if(i2c2_object.trStatus.s.empty != 1)
  7880  008B  18C7               	btfsc	_i2c2_object+2,1
  7881  008C  288E               	goto	u124_21
  7882  008D  288F               	goto	u124_20
  7883  008E                     u124_21:
  7884  008E  29DD               	goto	i1l495
  7885  008F                     u124_20:
  7886  008F                     i1l2674:
  7887                           
  7888                           ;i2c2.c: 283: {;i2c2.c: 285: p_i2c2_current = i2c2_object.pTrHead;
  7889  008F  0846               	movf	low ((_i2c2_object| 0+1)),w
  7890  0090  00F2               	movwf	??_I2C2_ISR
  7891  0091  0872               	movf	??_I2C2_ISR,w
  7892  0092  00CF               	movwf	_p_i2c2_current
  7893  0093                     i1l2676:
  7894                           
  7895                           ;i2c2.c: 286: i2c2_trb_count = i2c2_object.pTrHead->count;
  7896  0093  0846               	movf	low ((_i2c2_object| 0+1)),w
  7897  0094  0086               	movwf	6
  7898  0095  0187               	clrf	7
  7899  0096  0801               	movf	1,w
  7900  0097  00F2               	movwf	??_I2C2_ISR
  7901  0098  0872               	movf	??_I2C2_ISR,w
  7902  0099  00D0               	movwf	_i2c2_trb_count
  7903  009A                     i1l2678:
  7904                           
  7905                           ;i2c2.c: 287: p_i2c2_trb_current = i2c2_object.pTrHead->ptrb_list;
  7906  009A  0846               	movf	low ((_i2c2_object| 0+1)),w
  7907  009B  0086               	movwf	6
  7908  009C  0187               	clrf	7
  7909  009D  3F41               	moviw [1]fsr1
  7910  009E  00F6               	movwf	_p_i2c2_trb_current
  7911  009F                     i1l2680:
  7912                           
  7913                           ;i2c2.c: 289: i2c2_object.pTrHead++;
  7914  009F  3003               	movlw	3
  7915  00A0  00F2               	movwf	??_I2C2_ISR
  7916  00A1  0872               	movf	??_I2C2_ISR,w
  7917  00A2  07C6               	addwf	low ((_i2c2_object| 0+1)),f
  7918  00A3                     i1l2682:
  7919                           
  7920                           ;i2c2.c: 292: if(i2c2_object.pTrHead == (i2c2_tr_queue + 1))
  7921  00A3  0846               	movf	low ((_i2c2_object| 0+1)),w
  7922  00A4  3AE2               	xorlw	(low ((_i2c2_tr_queue| 0+3)))& (0+255)
  7923  00A5  1D03               	skipz
  7924  00A6  28A8               	goto	u125_21
  7925  00A7  28A9               	goto	u125_20
  7926  00A8                     u125_21:
  7927  00A8  28AD               	goto	i1l2686
  7928  00A9                     u125_20:
  7929  00A9                     i1l2684:
  7930                           
  7931                           ;i2c2.c: 293: {;i2c2.c: 295: i2c2_object.pTrHead = i2c2_tr_queue;
  7932  00A9  30DF               	movlw	(low (_i2c2_tr_queue| 0))& (0+255)
  7933  00AA  00F2               	movwf	??_I2C2_ISR
  7934  00AB  0872               	movf	??_I2C2_ISR,w
  7935  00AC  00C6               	movwf	low ((_i2c2_object| 0+1))
  7936  00AD                     i1l2686:
  7937                           
  7938                           ;i2c2.c: 296: };i2c2.c: 300: i2c2_object.trStatus.s.full = 0;
  7939  00AD  1047               	bcf	_i2c2_object+2,0
  7940                           
  7941                           ;i2c2.c: 303: if(i2c2_object.pTrHead == i2c2_object.pTrTail)
  7942  00AE  0846               	movf	low ((_i2c2_object| 0+1)),w
  7943  00AF  0645               	xorwf	_i2c2_object,w
  7944  00B0  1D03               	skipz
  7945  00B1  28B3               	goto	u126_21
  7946  00B2  28B4               	goto	u126_20
  7947  00B3                     u126_21:
  7948  00B3  28B5               	goto	i1l500
  7949  00B4                     u126_20:
  7950  00B4                     i1l2688:
  7951                           
  7952                           ;i2c2.c: 304: {;i2c2.c: 306: i2c2_object.trStatus.s.empty = 1;
  7953  00B4  14C7               	bsf	_i2c2_object+2,1
  7954  00B5                     i1l500:
  7955                           
  7956                           ;i2c2.c: 307: };i2c2.c: 310: SSP2CON2bits.SEN = 1;
  7957  00B5  0143               	movlb	3	; select bank3
  7958  00B6  141B               	bsf	27,0	;volatile
  7959  00B7                     i1l2690:
  7960                           
  7961                           ;i2c2.c: 313: i2c2_state = S_MASTER_SEND_ADDR;
  7962  00B7  3002               	movlw	2
  7963  00B8  00F2               	movwf	??_I2C2_ISR
  7964  00B9  0872               	movf	??_I2C2_ISR,w
  7965  00BA  0140               	movlb	0	; select bank0
  7966  00BB  00D1               	movwf	_i2c2_state
  7967  00BC  29DD               	goto	i1l495
  7968  00BD                     i1l502:	
  7969                           ;i2c2.c: 318: case S_MASTER_RESTART:
  7970                           
  7971                           
  7972                           ;i2c2.c: 323: SSP2CON2bits.RSEN = 1;
  7973  00BD  0143               	movlb	3	; select bank3
  7974  00BE  149B               	bsf	27,1	;volatile
  7975  00BF  28B7               	goto	i1l2690
  7976  00C0                     i1l503:	
  7977                           ;i2c2.c: 330: case S_MASTER_SEND_ADDR_10BIT_LSB:
  7978                           
  7979                           
  7980                           ;i2c2.c: 332: if(SSP2CON2bits.ACKSTAT)
  7981  00C0  0143               	movlb	3	; select bank3
  7982  00C1  1F1B               	btfss	27,6	;volatile
  7983  00C2  28C4               	goto	u127_21
  7984  00C3  28C5               	goto	u127_20
  7985  00C4                     u127_21:
  7986  00C4  28CF               	goto	i1l2698
  7987  00C5                     u127_20:
  7988  00C5                     i1l2694:
  7989                           
  7990                           ;i2c2.c: 333: {;i2c2.c: 334: i2c2_object.i2cErrors++;
  7991  00C5  3001               	movlw	1
  7992  00C6  00F2               	movwf	??_I2C2_ISR
  7993  00C7  0872               	movf	??_I2C2_ISR,w
  7994  00C8  0140               	movlb	0	; select bank0
  7995  00C9  07C9               	addwf	_i2c2_object+4,f
  7996  00CA                     i1l2696:
  7997                           
  7998                           ;i2c2.c: 335: I2C2_Stop(I2C2_MESSAGE_ADDRESS_NO_ACK);
  7999  00CA  3004               	movlw	4
  8000  00CB  3187  27DF  3180   	fcall	_I2C2_Stop
  8001                           
  8002                           ;i2c2.c: 336: }
  8003  00CE  29DD               	goto	i1l495
  8004  00CF                     i1l2698:
  8005                           
  8006                           ;i2c2.c: 337: else;i2c2.c: 338: {;i2c2.c: 340: SSP2BUF = (i2c_address >> 1) & 0x00FF;
  8007  00CF  087A               	movf	I2C2_ISR@i2c_address+1,w
  8008  00D0  00F3               	movwf	??_I2C2_ISR+1
  8009  00D1  0879               	movf	I2C2_ISR@i2c_address,w
  8010  00D2  00F2               	movwf	??_I2C2_ISR
  8011  00D3  36F3               	lsrf	??_I2C2_ISR+1,f
  8012  00D4  0CF2               	rrf	??_I2C2_ISR,f
  8013  00D5  0872               	movf	??_I2C2_ISR,w
  8014  00D6  0096               	movwf	22	;volatile
  8015  00D7                     i1l2700:
  8016                           
  8017                           ;i2c2.c: 343: if(i2c_address & 0x01)
  8018  00D7  1C79               	btfss	I2C2_ISR@i2c_address,0
  8019  00D8  28DA               	goto	u128_21
  8020  00D9  28DB               	goto	u128_20
  8021  00DA                     u128_21:
  8022  00DA  28E1               	goto	i1l2704
  8023  00DB                     u128_20:
  8024  00DB                     i1l2702:
  8025                           
  8026                           ;i2c2.c: 344: {;i2c2.c: 347: i2c2_state = S_MASTER_10BIT_RESTART;
  8027  00DB  300B               	movlw	11
  8028  00DC  00F2               	movwf	??_I2C2_ISR
  8029  00DD  0872               	movf	??_I2C2_ISR,w
  8030  00DE  0140               	movlb	0	; select bank0
  8031  00DF  00D1               	movwf	_i2c2_state
  8032                           
  8033                           ;i2c2.c: 348: }
  8034  00E0  29DD               	goto	i1l495
  8035  00E1                     i1l2704:
  8036                           
  8037                           ;i2c2.c: 349: else;i2c2.c: 350: {;i2c2.c: 352: i2c2_state = S_MASTER_SEND_DATA;
  8038  00E1  3003               	movlw	3
  8039  00E2  00F2               	movwf	??_I2C2_ISR
  8040  00E3  0872               	movf	??_I2C2_ISR,w
  8041  00E4  0140               	movlb	0	; select bank0
  8042  00E5  00D1               	movwf	_i2c2_state
  8043  00E6  29DD               	goto	i1l495
  8044  00E7                     i1l508:	
  8045                           ;i2c2.c: 358: case S_MASTER_10BIT_RESTART:
  8046                           
  8047                           
  8048                           ;i2c2.c: 360: if(SSP2CON2bits.ACKSTAT)
  8049  00E7  0143               	movlb	3	; select bank3
  8050  00E8  1F1B               	btfss	27,6	;volatile
  8051  00E9  28EB               	goto	u129_21
  8052  00EA  28EC               	goto	u129_20
  8053  00EB                     u129_21:
  8054  00EB  28F6               	goto	i1l509
  8055  00EC                     u129_20:
  8056  00EC                     i1l2706:
  8057                           
  8058                           ;i2c2.c: 361: {;i2c2.c: 362: i2c2_object.i2cErrors++;
  8059  00EC  3001               	movlw	1
  8060  00ED  00F2               	movwf	??_I2C2_ISR
  8061  00EE  0872               	movf	??_I2C2_ISR,w
  8062  00EF  0140               	movlb	0	; select bank0
  8063  00F0  07C9               	addwf	_i2c2_object+4,f
  8064  00F1                     i1l2708:
  8065                           
  8066                           ;i2c2.c: 363: I2C2_Stop(I2C2_MESSAGE_ADDRESS_NO_ACK);
  8067  00F1  3004               	movlw	4
  8068  00F2  3187  27DF  3180   	fcall	_I2C2_Stop
  8069                           
  8070                           ;i2c2.c: 364: }
  8071  00F5  29DD               	goto	i1l495
  8072  00F6                     i1l509:
  8073                           
  8074                           ;i2c2.c: 365: else;i2c2.c: 366: {;i2c2.c: 369: SSP2CON2bits.RSEN = 1;
  8075  00F6  149B               	bsf	27,1	;volatile
  8076  00F7                     i1l2710:
  8077                           
  8078                           ;i2c2.c: 373: i2c_address = 0x00F0 | ((i2c_address >> 8) & 0x0006);
  8079  00F7  087A               	movf	I2C2_ISR@i2c_address+1,w
  8080  00F8  00F3               	movwf	??_I2C2_ISR+1
  8081  00F9  0879               	movf	I2C2_ISR@i2c_address,w
  8082  00FA  00F2               	movwf	??_I2C2_ISR
  8083  00FB  0873               	movf	??_I2C2_ISR+1,w
  8084  00FC  00F2               	movwf	??_I2C2_ISR
  8085  00FD  01F3               	clrf	??_I2C2_ISR+1
  8086  00FE  3006               	movlw	6
  8087  00FF  0572               	andwf	??_I2C2_ISR,w
  8088  0100  00F4               	movwf	??_I2C2_ISR+2
  8089  0101  3000               	movlw	0
  8090  0102  0573               	andwf	??_I2C2_ISR+1,w
  8091  0103  00F5               	movwf	??_I2C2_ISR+3
  8092  0104  30F0               	movlw	240
  8093  0105  0474               	iorwf	??_I2C2_ISR+2,w
  8094  0106  00F9               	movwf	I2C2_ISR@i2c_address
  8095  0107  3000               	movlw	0
  8096  0108  0475               	iorwf	??_I2C2_ISR+3,w
  8097  0109  00FA               	movwf	I2C2_ISR@i2c_address+1
  8098  010A                     i1l2712:
  8099                           
  8100                           ;i2c2.c: 376: i2c_address |= 0x0001;
  8101  010A  1479               	bsf	I2C2_ISR@i2c_address,0
  8102  010B                     i1l2714:
  8103                           
  8104                           ;i2c2.c: 379: i2c_10bit_address_restart = 1;
  8105  010B  0140               	movlb	0	; select bank0
  8106  010C  01CC               	clrf	I2C2_ISR@i2c_10bit_address_restart
  8107  010D  0ACC               	incf	I2C2_ISR@i2c_10bit_address_restart,f
  8108  010E  28B7               	goto	i1l2690
  8109  010F                     i1l2718:
  8110                           
  8111                           ;i2c2.c: 400: if(i2c_10bit_address_restart != 1)
  8112  010F  034C               	decf	I2C2_ISR@i2c_10bit_address_restart,w
  8113  0110  1903               	btfsc	3,2
  8114  0111  2913               	goto	u130_21
  8115  0112  2914               	goto	u130_20
  8116  0113                     u130_21:
  8117  0113  2925               	goto	i1l2738
  8118  0114                     u130_20:
  8119  0114                     i1l2720:
  8120                           
  8121                           ;i2c2.c: 401: {;i2c2.c: 403: i2c_address = p_i2c2_trb_current->address;
  8122  0114  0876               	movf	_p_i2c2_trb_current,w
  8123  0115  0086               	movwf	6
  8124  0116  0187               	clrf	7
  8125  0117  3F40               	moviw [0]fsr1
  8126  0118  00F9               	movwf	I2C2_ISR@i2c_address
  8127  0119  3F41               	moviw [1]fsr1
  8128  011A  00FA               	movwf	I2C2_ISR@i2c_address+1
  8129  011B                     i1l2722:
  8130                           
  8131                           ;i2c2.c: 404: pi2c_buf_ptr = p_i2c2_trb_current->pbuffer;
  8132  011B  0876               	movf	_p_i2c2_trb_current,w
  8133  011C  0086               	movwf	6
  8134  011D  0187               	clrf	7
  8135  011E  3F43               	moviw [3]fsr1
  8136  011F  00CE               	movwf	I2C2_ISR@pi2c_buf_ptr
  8137  0120                     i1l2724:
  8138                           
  8139                           ;i2c2.c: 405: i2c_bytes_left = p_i2c2_trb_current->length;
  8140  0120  0876               	movf	_p_i2c2_trb_current,w
  8141  0121  0086               	movwf	6
  8142  0122  0187               	clrf	7
  8143  0123  3F42               	moviw [2]fsr1
  8144  0124  00CD               	movwf	I2C2_ISR@i2c_bytes_left
  8145  0125                     i1l2738:
  8146                           
  8147                           ;i2c2.c: 428: else;i2c2.c: 429: {;i2c2.c: 431: SSP2BUF = i2c_address;
  8148  0125  0879               	movf	I2C2_ISR@i2c_address,w
  8149  0126  0143               	movlb	3	; select bank3
  8150  0127  0096               	movwf	22	;volatile
  8151  0128                     i1l2740:
  8152                           
  8153                           ;i2c2.c: 432: if(i2c_address & 0x01)
  8154  0128  1C79               	btfss	I2C2_ISR@i2c_address,0
  8155  0129  292B               	goto	u131_21
  8156  012A  292C               	goto	u131_20
  8157  012B                     u131_21:
  8158  012B  28E1               	goto	i1l2704
  8159  012C                     u131_20:
  8160  012C                     i1l2742:
  8161                           
  8162                           ;i2c2.c: 433: {;i2c2.c: 435: i2c2_state = S_MASTER_ACK_ADDR;
  8163  012C  3005               	movlw	5
  8164  012D  00F2               	movwf	??_I2C2_ISR
  8165  012E  0872               	movf	??_I2C2_ISR,w
  8166  012F  0140               	movlb	0	; select bank0
  8167  0130  00D1               	movwf	_i2c2_state
  8168                           
  8169                           ;i2c2.c: 436: }
  8170  0131  29DD               	goto	i1l495
  8171  0132                     i1l519:	
  8172                           ;i2c2.c: 445: case S_MASTER_SEND_DATA:
  8173                           
  8174                           
  8175                           ;i2c2.c: 448: if(SSP2CON2bits.ACKSTAT)
  8176  0132  0143               	movlb	3	; select bank3
  8177  0133  1F1B               	btfss	27,6	;volatile
  8178  0134  2936               	goto	u132_21
  8179  0135  2937               	goto	u132_20
  8180  0136                     u132_21:
  8181  0136  2943               	goto	i1l2752
  8182  0137                     u132_20:
  8183  0137                     i1l2746:
  8184                           
  8185                           ;i2c2.c: 449: {;i2c2.c: 451: i2c2_object.i2cErrors++;
  8186  0137  3001               	movlw	1
  8187  0138  00F2               	movwf	??_I2C2_ISR
  8188  0139  0872               	movf	??_I2C2_ISR,w
  8189  013A  0140               	movlb	0	; select bank0
  8190  013B  07C9               	addwf	_i2c2_object+4,f
  8191  013C                     i1l2748:
  8192                           
  8193                           ;i2c2.c: 454: SSP2CON2bits.ACKSTAT = 0;
  8194  013C  0143               	movlb	3	; select bank3
  8195  013D  131B               	bcf	27,6	;volatile
  8196  013E                     i1l2750:
  8197                           
  8198                           ;i2c2.c: 457: I2C2_Stop(I2C2_DATA_NO_ACK);
  8199  013E  3005               	movlw	5
  8200  013F  3187  27DF  3180   	fcall	_I2C2_Stop
  8201                           
  8202                           ;i2c2.c: 459: }
  8203  0142  29DD               	goto	i1l495
  8204  0143                     i1l2752:
  8205                           
  8206                           ;i2c2.c: 460: else;i2c2.c: 461: {;i2c2.c: 463: if(i2c_bytes_left-- == 0U)
  8207  0143  3001               	movlw	1
  8208  0144  0140               	movlb	0	; select bank0
  8209  0145  02CD               	subwf	I2C2_ISR@i2c_bytes_left,f
  8210  0146  0A4D               	incf	I2C2_ISR@i2c_bytes_left,w
  8211  0147  1D03               	btfss	3,2
  8212  0148  294A               	goto	u133_21
  8213  0149  294B               	goto	u133_20
  8214  014A                     u133_21:
  8215  014A  295D               	goto	i1l2760
  8216  014B                     u133_20:
  8217  014B                     i1l2754:
  8218                           
  8219                           ;i2c2.c: 464: {;i2c2.c: 468: p_i2c2_trb_current++;
  8220  014B  3004               	movlw	4
  8221  014C  00F2               	movwf	??_I2C2_ISR
  8222  014D  0872               	movf	??_I2C2_ISR,w
  8223  014E  07F6               	addwf	_p_i2c2_trb_current,f
  8224                           
  8225                           ;i2c2.c: 471: if(--i2c2_trb_count == 0)
  8226  014F  3001               	movlw	1
  8227  0150  02D0               	subwf	_i2c2_trb_count,f
  8228  0151  1D03               	btfss	3,2
  8229  0152  2954               	goto	u134_21
  8230  0153  2955               	goto	u134_20
  8231  0154                     u134_21:
  8232  0154  295A               	goto	i1l523
  8233  0155                     u134_20:
  8234  0155                     i1l2756:
  8235                           
  8236                           ;i2c2.c: 472: {;i2c2.c: 473: I2C2_Stop(I2C2_MESSAGE_COMPLETE);
  8237  0155  3000               	movlw	0
  8238  0156  3187  27DF  3180   	fcall	_I2C2_Stop
  8239                           
  8240                           ;i2c2.c: 474: }
  8241  0159  29DD               	goto	i1l495
  8242  015A                     i1l523:
  8243                           
  8244                           ;i2c2.c: 475: else;i2c2.c: 476: {;i2c2.c: 483: SSP2CON2bits.RSEN = 1;
  8245  015A  0143               	movlb	3	; select bank3
  8246  015B  149B               	bsf	27,1	;volatile
  8247  015C  28B7               	goto	i1l2690
  8248  015D                     i1l2760:
  8249                           
  8250                           ;i2c2.c: 490: else;i2c2.c: 491: {;i2c2.c: 493: SSP2BUF = *pi2c_buf_ptr++;
  8251  015D  084E               	movf	I2C2_ISR@pi2c_buf_ptr,w
  8252  015E  0086               	movwf	6
  8253  015F  0187               	clrf	7
  8254  0160  0801               	movf	1,w
  8255  0161  0143               	movlb	3	; select bank3
  8256  0162  0096               	movwf	22	;volatile
  8257  0163                     i1l2762:
  8258  0163  3001               	movlw	1
  8259  0164  00F2               	movwf	??_I2C2_ISR
  8260  0165  0872               	movf	??_I2C2_ISR,w
  8261  0166  0140               	movlb	0	; select bank0
  8262  0167  07CE               	addwf	I2C2_ISR@pi2c_buf_ptr,f
  8263  0168  29DD               	goto	i1l495
  8264  0169                     i1l526:	
  8265                           ;i2c2.c: 498: case S_MASTER_ACK_ADDR:
  8266                           
  8267                           
  8268                           ;i2c2.c: 501: if(SSP2CON2bits.ACKSTAT)
  8269  0169  0143               	movlb	3	; select bank3
  8270  016A  1F1B               	btfss	27,6	;volatile
  8271  016B  296D               	goto	u135_21
  8272  016C  296E               	goto	u135_20
  8273  016D                     u135_21:
  8274  016D  297A               	goto	i1l527
  8275  016E                     u135_20:
  8276  016E                     i1l2764:
  8277                           
  8278                           ;i2c2.c: 502: {;i2c2.c: 505: i2c2_object.i2cErrors++;
  8279  016E  3001               	movlw	1
  8280  016F  00F2               	movwf	??_I2C2_ISR
  8281  0170  0872               	movf	??_I2C2_ISR,w
  8282  0171  0140               	movlb	0	; select bank0
  8283  0172  07C9               	addwf	_i2c2_object+4,f
  8284  0173                     i1l2766:
  8285                           
  8286                           ;i2c2.c: 508: I2C2_Stop(I2C2_MESSAGE_ADDRESS_NO_ACK);
  8287  0173  3004               	movlw	4
  8288  0174  3187  27DF  3180   	fcall	_I2C2_Stop
  8289  0177                     i1l2768:
  8290                           
  8291                           ;i2c2.c: 511: SSP2CON2bits.ACKSTAT = 0;
  8292  0177  0143               	movlb	3	; select bank3
  8293  0178  131B               	bcf	27,6	;volatile
  8294                           
  8295                           ;i2c2.c: 512: }
  8296  0179  29DD               	goto	i1l495
  8297  017A                     i1l527:
  8298                           
  8299                           ;i2c2.c: 513: else;i2c2.c: 514: {;i2c2.c: 515: SSP2CON2bits.RCEN = 1;
  8300  017A  159B               	bsf	27,3	;volatile
  8301  017B                     i1l2770:
  8302                           
  8303                           ;i2c2.c: 516: i2c2_state = S_MASTER_ACK_RCV_DATA;
  8304  017B  3008               	movlw	8
  8305  017C  00F2               	movwf	??_I2C2_ISR
  8306  017D  0872               	movf	??_I2C2_ISR,w
  8307  017E  0140               	movlb	0	; select bank0
  8308  017F  00D1               	movwf	_i2c2_state
  8309  0180  29DD               	goto	i1l495
  8310  0181                     i1l2772:
  8311                           
  8312                           ;i2c2.c: 525: i2c2_state = S_MASTER_ACK_RCV_DATA;
  8313  0181  3008               	movlw	8
  8314  0182  00F2               	movwf	??_I2C2_ISR
  8315  0183  0872               	movf	??_I2C2_ISR,w
  8316  0184  00D1               	movwf	_i2c2_state
  8317  0185                     i1l2774:
  8318                           
  8319                           ;i2c2.c: 528: SSP2CON2bits.RCEN = 1;
  8320  0185  0143               	movlb	3	; select bank3
  8321  0186  159B               	bsf	27,3	;volatile
  8322                           
  8323                           ;i2c2.c: 530: break;
  8324  0187  29DD               	goto	i1l495
  8325  0188                     i1l2776:
  8326                           
  8327                           ;i2c2.c: 535: *pi2c_buf_ptr++ = SSP2BUF;
  8328  0188  0143               	movlb	3	; select bank3
  8329  0189  0816               	movf	22,w	;volatile
  8330  018A  00F2               	movwf	??_I2C2_ISR
  8331  018B  0140               	movlb	0	; select bank0
  8332  018C  084E               	movf	I2C2_ISR@pi2c_buf_ptr,w
  8333  018D  0086               	movwf	6
  8334  018E  0187               	clrf	7
  8335  018F  0872               	movf	??_I2C2_ISR,w
  8336  0190  0081               	movwf	1
  8337  0191                     i1l2778:
  8338  0191  3001               	movlw	1
  8339  0192  00F2               	movwf	??_I2C2_ISR
  8340  0193  0872               	movf	??_I2C2_ISR,w
  8341  0194  07CE               	addwf	I2C2_ISR@pi2c_buf_ptr,f
  8342  0195                     i1l2780:
  8343                           
  8344                           ;i2c2.c: 538: if(--i2c_bytes_left)
  8345  0195  3001               	movlw	1
  8346  0196  02CD               	subwf	I2C2_ISR@i2c_bytes_left,f
  8347  0197  1903               	btfsc	3,2
  8348  0198  299A               	goto	u136_21
  8349  0199  299B               	goto	u136_20
  8350  019A                     u136_21:
  8351  019A  29A3               	goto	i1l531
  8352  019B                     u136_20:
  8353  019B                     i1l2782:
  8354                           
  8355                           ;i2c2.c: 539: {;i2c2.c: 545: SSP2CON2bits.ACKDT = 0;
  8356  019B  0143               	movlb	3	; select bank3
  8357  019C  129B               	bcf	27,5	;volatile
  8358  019D                     i1l2784:
  8359                           
  8360                           ;i2c2.c: 548: i2c2_state = S_MASTER_RCV_DATA;
  8361  019D  3006               	movlw	6
  8362  019E  00F2               	movwf	??_I2C2_ISR
  8363  019F  0872               	movf	??_I2C2_ISR,w
  8364  01A0  0140               	movlb	0	; select bank0
  8365  01A1  00D1               	movwf	_i2c2_state
  8366                           
  8367                           ;i2c2.c: 549: }
  8368  01A2  29A8               	goto	i1l2788
  8369  01A3                     i1l531:
  8370                           
  8371                           ;i2c2.c: 550: else;i2c2.c: 551: {;i2c2.c: 555: SSP2CON2bits.ACKDT = 1;
  8372  01A3  0143               	movlb	3	; select bank3
  8373  01A4  169B               	bsf	27,5	;volatile
  8374  01A5                     i1l2786:
  8375                           
  8376                           ;i2c2.c: 557: I2C2_FunctionComplete();
  8377  01A5  318F  27C4  3180   	fcall	_I2C2_FunctionComplete
  8378  01A8                     i1l2788:
  8379                           
  8380                           ;i2c2.c: 558: };i2c2.c: 561: SSP2CON2bits.ACKEN = 1;
  8381  01A8  0143               	movlb	3	; select bank3
  8382  01A9  161B               	bsf	27,4	;volatile
  8383                           
  8384                           ;i2c2.c: 562: break;
  8385  01AA  29DD               	goto	i1l495
  8386  01AB                     i1l2790:
  8387                           
  8388                           ;i2c2.c: 565: case S_MASTER_SEND_STOP:;i2c2.c: 568: I2C2_Stop(I2C2_MESSAGE_COMPLETE);
  8389  01AB  3000               	movlw	0
  8390  01AC  3187  27DF  3180   	fcall	_I2C2_Stop
  8391                           
  8392                           ;i2c2.c: 569: break;
  8393  01AF  29DD               	goto	i1l495
  8394  01B0                     i1l2792:
  8395                           
  8396                           ;i2c2.c: 575: i2c2_object.i2cErrors++;
  8397  01B0  3001               	movlw	1
  8398  01B1  00F2               	movwf	??_I2C2_ISR
  8399  01B2  0872               	movf	??_I2C2_ISR,w
  8400  01B3  07C9               	addwf	_i2c2_object+4,f
  8401  01B4                     i1l2794:
  8402                           
  8403                           ;i2c2.c: 576: I2C2_Stop(I2C2_LOST_STATE);
  8404  01B4  3006               	movlw	6
  8405  01B5  3187  27DF  3180   	fcall	_I2C2_Stop
  8406                           
  8407                           ;i2c2.c: 577: break;
  8408  01B8  29DD               	goto	i1l495
  8409  01B9                     i1l2798:
  8410  01B9  0140               	movlb	0	; select bank0
  8411  01BA  0851               	movf	_i2c2_state,w
  8412                           
  8413                           ; Switch size 1, requested type "simple"
  8414                           ; Number of cases is 11, Range of values is 0 to 11
  8415                           ; switch strategies available:
  8416                           ; Name         Instructions Cycles
  8417                           ; direct_byte           30     6 (fixed)
  8418                           ; simple_byte           34    18 (average)
  8419                           ; jumptable            260     6 (fixed)
  8420                           ;	Chosen strategy is simple_byte
  8421  01BB  3A00               	xorlw	0	; case 0
  8422  01BC  1903               	skipnz
  8423  01BD  288B               	goto	i1l497
  8424  01BE  3A01               	xorlw	1	; case 1
  8425  01BF  1903               	skipnz
  8426  01C0  28BD               	goto	i1l502
  8427  01C1  3A03               	xorlw	3	; case 2
  8428  01C2  1903               	skipnz
  8429  01C3  290F               	goto	i1l2718
  8430  01C4  3A01               	xorlw	1	; case 3
  8431  01C5  1903               	skipnz
  8432  01C6  2932               	goto	i1l519
  8433  01C7  3A07               	xorlw	7	; case 4
  8434  01C8  1903               	skipnz
  8435  01C9  29AB               	goto	i1l2790
  8436  01CA  3A01               	xorlw	1	; case 5
  8437  01CB  1903               	skipnz
  8438  01CC  2969               	goto	i1l526
  8439  01CD  3A03               	xorlw	3	; case 6
  8440  01CE  1903               	skipnz
  8441  01CF  2981               	goto	i1l2772
  8442  01D0  3A01               	xorlw	1	; case 7
  8443  01D1  1903               	skipnz
  8444  01D2  29AB               	goto	i1l2790
  8445  01D3  3A0F               	xorlw	15	; case 8
  8446  01D4  1903               	skipnz
  8447  01D5  2988               	goto	i1l2776
  8448  01D6  3A02               	xorlw	2	; case 10
  8449  01D7  1903               	skipnz
  8450  01D8  28C0               	goto	i1l503
  8451  01D9  3A01               	xorlw	1	; case 11
  8452  01DA  1903               	skipnz
  8453  01DB  28E7               	goto	i1l508
  8454  01DC  29B0               	goto	i1l2792
  8455  01DD                     i1l495:
  8456  01DD  0008               	return
  8457  01DE                     __end_of_I2C2_ISR:
  8458                           
  8459                           	psect	text27
  8460  07DF                     __ptext27:	
  8461 ;; *************** function _I2C2_Stop *****************
  8462 ;; Defined at:
  8463 ;;		line 600 in file "system/i2c2.c"
  8464 ;; Parameters:    Size  Location     Type
  8465 ;;  completion_c    1    wreg     enum E10753
  8466 ;; Auto vars:     Size  Location     Type
  8467 ;;  completion_c    1    1[COMMON] enum E10753
  8468 ;; Return value:  Size  Location     Type
  8469 ;;                  1    wreg      void 
  8470 ;; Registers used:
  8471 ;;		wreg, fsr1l, fsr1h, status,2, status,0
  8472 ;; Tracked objects:
  8473 ;;		On entry : 0/0
  8474 ;;		On exit  : 0/0
  8475 ;;		Unchanged: 0/0
  8476 ;; Data sizes:     COMMON   BANK0   BANK1   BANK2   BANK3   BANK4   BANK5   BANK6   BANK7   BANK8   BANK9  BANK10  BANK1
      +1  BANK12  BANK13  BANK14  BANK15  BANK16  BANK17  BANK18  BANK19  BANK20  BANK21  BANK22  BANK23  BANK24  BANK25
  8477 ;;      Params:         0       0       0       0       0       0       0       0       0       0       0       0       
      +0       0       0       0       0       0       0       0       0       0       0       0       0       0       0
  8478 ;;      Locals:         1       0       0       0       0       0       0       0       0       0       0       0       
      +0       0       0       0       0       0       0       0       0       0       0       0       0       0       0
  8479 ;;      Temps:          1       0       0       0       0       0       0       0       0       0       0       0       
      +0       0       0       0       0       0       0       0       0       0       0       0       0       0       0
  8480 ;;      Totals:         2       0       0       0       0       0       0       0       0       0       0       0       
      +0       0       0       0       0       0       0       0       0       0       0       0       0       0       0
  8481 ;;Total ram usage:        2 bytes
  8482 ;; Hardware stack levels used:    1
  8483 ;; This function calls:
  8484 ;;		Nothing
  8485 ;; This function is called by:
  8486 ;;		_I2C2_ISR
  8487 ;; This function uses a non-reentrant model
  8488 ;;
  8489                           
  8490                           
  8491                           ;psect for function _I2C2_Stop
  8492  07DF                     _I2C2_Stop:
  8493                           
  8494                           ;incstack = 0
  8495                           ; Regs used in _I2C2_Stop: [wreg+fsr1l+fsr1h+status,2+status,0]
  8496                           ;I2C2_Stop@completion_code stored from wreg
  8497  07DF  00F1               	movwf	I2C2_Stop@completion_code
  8498  07E0                     i1l2450:
  8499                           
  8500                           ;i2c2.c: 603: SSP2CON2bits.PEN = 1;
  8501  07E0  0143               	movlb	3	; select bank3
  8502  07E1  151B               	bsf	27,2	;volatile
  8503  07E2                     i1l2452:
  8504                           
  8505                           ;i2c2.c: 606: if (p_i2c2_current->pTrFlag != (0))
  8506  07E2  0140               	movlb	0	; select bank0
  8507  07E3  084F               	movf	_p_i2c2_current,w
  8508  07E4  3E02               	addlw	2
  8509  07E5  0086               	movwf	6
  8510  07E6  0187               	clrf	7
  8511  07E7  0801               	movf	1,w
  8512  07E8  1903               	btfsc	3,2
  8513  07E9  2FEB               	goto	u101_21
  8514  07EA  2FEC               	goto	u101_20
  8515  07EB                     u101_21:
  8516  07EB  2FF7               	goto	i1l2456
  8517  07EC                     u101_20:
  8518  07EC                     i1l2454:
  8519                           
  8520                           ;i2c2.c: 607: {;i2c2.c: 609: *(p_i2c2_current->pTrFlag) = completion_code;
  8521  07EC  0871               	movf	I2C2_Stop@completion_code,w
  8522  07ED  00F0               	movwf	??_I2C2_Stop
  8523  07EE  084F               	movf	_p_i2c2_current,w
  8524  07EF  3E02               	addlw	2
  8525  07F0  0086               	movwf	6
  8526  07F1  0187               	clrf	7
  8527  07F2  0801               	movf	1,w
  8528  07F3  0086               	movwf	6
  8529  07F4  0187               	clrf	7
  8530  07F5  0870               	movf	??_I2C2_Stop,w
  8531  07F6  0081               	movwf	1
  8532  07F7                     i1l2456:
  8533                           
  8534                           ;i2c2.c: 610: };i2c2.c: 613: i2c2_state = S_MASTER_IDLE;
  8535  07F7  01D1               	clrf	_i2c2_state
  8536  07F8                     i1l544:
  8537  07F8  0008               	return
  8538  07F9                     __end_of_I2C2_Stop:
  8539                           
  8540                           	psect	text28
  8541  0FC4                     __ptext28:	
  8542 ;; *************** function _I2C2_FunctionComplete *****************
  8543 ;; Defined at:
  8544 ;;		line 582 in file "system/i2c2.c"
  8545 ;; Parameters:    Size  Location     Type
  8546 ;;		None
  8547 ;; Auto vars:     Size  Location     Type
  8548 ;;		None
  8549 ;; Return value:  Size  Location     Type
  8550 ;;                  1    wreg      void 
  8551 ;; Registers used:
  8552 ;;		wreg, status,2, status,0
  8553 ;; Tracked objects:
  8554 ;;		On entry : 0/0
  8555 ;;		On exit  : 0/0
  8556 ;;		Unchanged: 0/0
  8557 ;; Data sizes:     COMMON   BANK0   BANK1   BANK2   BANK3   BANK4   BANK5   BANK6   BANK7   BANK8   BANK9  BANK10  BANK1
      +1  BANK12  BANK13  BANK14  BANK15  BANK16  BANK17  BANK18  BANK19  BANK20  BANK21  BANK22  BANK23  BANK24  BANK25
  8558 ;;      Params:         0       0       0       0       0       0       0       0       0       0       0       0       
      +0       0       0       0       0       0       0       0       0       0       0       0       0       0       0
  8559 ;;      Locals:         0       0       0       0       0       0       0       0       0       0       0       0       
      +0       0       0       0       0       0       0       0       0       0       0       0       0       0       0
  8560 ;;      Temps:          1       0       0       0       0       0       0       0       0       0       0       0       
      +0       0       0       0       0       0       0       0       0       0       0       0       0       0       0
  8561 ;;      Totals:         1       0       0       0       0       0       0       0       0       0       0       0       
      +0       0       0       0       0       0       0       0       0       0       0       0       0       0       0
  8562 ;;Total ram usage:        1 bytes
  8563 ;; Hardware stack levels used:    1
  8564 ;; This function calls:
  8565 ;;		Nothing
  8566 ;; This function is called by:
  8567 ;;		_I2C2_ISR
  8568 ;; This function uses a non-reentrant model
  8569 ;;
  8570                           
  8571                           
  8572                           ;psect for function _I2C2_FunctionComplete
  8573  0FC4                     _I2C2_FunctionComplete:
  8574  0FC4                     i1l2458:	
  8575                           ;incstack = 0
  8576                           ; Regs used in _I2C2_FunctionComplete: [wreg+status,2+status,0]
  8577                           
  8578                           
  8579                           ;i2c2.c: 586: p_i2c2_trb_current++;
  8580  0FC4  3004               	movlw	4
  8581  0FC5  00F0               	movwf	??_I2C2_FunctionComplete
  8582  0FC6  0870               	movf	??_I2C2_FunctionComplete,w
  8583  0FC7  07F6               	addwf	_p_i2c2_trb_current,f
  8584                           
  8585                           ;i2c2.c: 589: if(--i2c2_trb_count == 0)
  8586  0FC8  3001               	movlw	1
  8587  0FC9  0140               	movlb	0	; select bank0
  8588  0FCA  02D0               	subwf	_i2c2_trb_count,f
  8589  0FCB  1D03               	btfss	3,2
  8590  0FCC  2FCE               	goto	u102_21
  8591  0FCD  2FCF               	goto	u102_20
  8592  0FCE                     u102_21:
  8593  0FCE  2FD4               	goto	i1l538
  8594  0FCF                     u102_20:
  8595  0FCF                     i1l2460:
  8596                           
  8597                           ;i2c2.c: 590: {;i2c2.c: 591: i2c2_state = S_MASTER_SEND_STOP;
  8598  0FCF  3004               	movlw	4
  8599  0FD0  00F0               	movwf	??_I2C2_FunctionComplete
  8600  0FD1  0870               	movf	??_I2C2_FunctionComplete,w
  8601  0FD2  00D1               	movwf	_i2c2_state
  8602                           
  8603                           ;i2c2.c: 592: }
  8604  0FD3  2FD6               	goto	i1l540
  8605  0FD4                     i1l538:
  8606                           
  8607                           ;i2c2.c: 593: else;i2c2.c: 594: {;i2c2.c: 595: i2c2_state = S_MASTER_RESTART;
  8608  0FD4  01D1               	clrf	_i2c2_state
  8609  0FD5  0AD1               	incf	_i2c2_state,f
  8610  0FD6                     i1l540:
  8611  0FD6  0008               	return
  8612  0FD7                     __end_of_I2C2_FunctionComplete:
  8613                           
  8614                           	psect	text29
  8615  0F58                     __ptext29:	
  8616 ;; *************** function _I2C2_BusCollisionISR *****************
  8617 ;; Defined at:
  8618 ;;		line 759 in file "system/i2c2.c"
  8619 ;; Parameters:    Size  Location     Type
  8620 ;;		None
  8621 ;; Auto vars:     Size  Location     Type
  8622 ;;		None
  8623 ;; Return value:  Size  Location     Type
  8624 ;;                  1    wreg      void 
  8625 ;; Registers used:
  8626 ;;		None
  8627 ;; Tracked objects:
  8628 ;;		On entry : 0/0
  8629 ;;		On exit  : 0/0
  8630 ;;		Unchanged: 0/0
  8631 ;; Data sizes:     COMMON   BANK0   BANK1   BANK2   BANK3   BANK4   BANK5   BANK6   BANK7   BANK8   BANK9  BANK10  BANK1
      +1  BANK12  BANK13  BANK14  BANK15  BANK16  BANK17  BANK18  BANK19  BANK20  BANK21  BANK22  BANK23  BANK24  BANK25
  8632 ;;      Params:         0       0       0       0       0       0       0       0       0       0       0       0       
      +0       0       0       0       0       0       0       0       0       0       0       0       0       0       0
  8633 ;;      Locals:         0       0       0       0       0       0       0       0       0       0       0       0       
      +0       0       0       0       0       0       0       0       0       0       0       0       0       0       0
  8634 ;;      Temps:          0       0       0       0       0       0       0       0       0       0       0       0       
      +0       0       0       0       0       0       0       0       0       0       0       0       0       0       0
  8635 ;;      Totals:         0       0       0       0       0       0       0       0       0       0       0       0       
      +0       0       0       0       0       0       0       0       0       0       0       0       0       0       0
  8636 ;;Total ram usage:        0 bytes
  8637 ;; Hardware stack levels used:    1
  8638 ;; This function calls:
  8639 ;;		Nothing
  8640 ;; This function is called by:
  8641 ;;		_Interrupt_Handler
  8642 ;; This function uses a non-reentrant model
  8643 ;;
  8644                           
  8645                           
  8646                           ;psect for function _I2C2_BusCollisionISR
  8647  0F58                     _I2C2_BusCollisionISR:
  8648  0F58                     i1l2660:	
  8649                           ;incstack = 0
  8650                           ; Regs used in _I2C2_BusCollisionISR: []
  8651                           
  8652                           
  8653                           ;i2c2.c: 762: PIR3bits.BCL2IF = 0;
  8654  0F58  014E               	movlb	14	; select bank14
  8655  0F59  118F               	bcf	15,3	;volatile
  8656  0F5A                     i1l587:
  8657  0F5A  0008               	return
  8658  0F5B                     __end_of_I2C2_BusCollisionISR:
  8659                           
  8660                           	psect	text30
  8661  065D                     __ptext30:	
  8662 ;; *************** function _I2C1_ISR *****************
  8663 ;; Defined at:
  8664 ;;		line 133 in file "system/i2c1.c"
  8665 ;; Parameters:    Size  Location     Type
  8666 ;;		None
  8667 ;; Auto vars:     Size  Location     Type
  8668 ;;  ctr             1    3[COMMON] unsigned char 
  8669 ;;  i2c_data        1    4[COMMON] unsigned char 
  8670 ;; Return value:  Size  Location     Type
  8671 ;;                  1    wreg      void 
  8672 ;; Registers used:
  8673 ;;		wreg, fsr0l, fsr0h, fsr1l, fsr1h, status,2, status,0, pclath, cstack
  8674 ;; Tracked objects:
  8675 ;;		On entry : 0/0
  8676 ;;		On exit  : 0/0
  8677 ;;		Unchanged: 0/0
  8678 ;; Data sizes:     COMMON   BANK0   BANK1   BANK2   BANK3   BANK4   BANK5   BANK6   BANK7   BANK8   BANK9  BANK10  BANK1
      +1  BANK12  BANK13  BANK14  BANK15  BANK16  BANK17  BANK18  BANK19  BANK20  BANK21  BANK22  BANK23  BANK24  BANK25
  8679 ;;      Params:         0       0       0       0       0       0       0       0       0       0       0       0       
      +0       0       0       0       0       0       0       0       0       0       0       0       0       0       0
  8680 ;;      Locals:         2       0       0       0       0       0       0       0       0       0       0       0       
      +0       0       0       0       0       0       0       0       0       0       0       0       0       0       0
  8681 ;;      Temps:          1       0       0       0       0       0       0       0       0       0       0       0       
      +0       0       0       0       0       0       0       0       0       0       0       0       0       0       0
  8682 ;;      Totals:         3       0       0       0       0       0       0       0       0       0       0       0       
      +0       0       0       0       0       0       0       0       0       0       0       0       0       0       0
  8683 ;;Total ram usage:        3 bytes
  8684 ;; Hardware stack levels used:    1
  8685 ;; Hardware stack levels required when called:    1
  8686 ;; This function calls:
  8687 ;;		_I2C1_StatusCallback
  8688 ;; This function is called by:
  8689 ;;		_Interrupt_Handler
  8690 ;; This function uses a non-reentrant model
  8691 ;;
  8692                           
  8693                           
  8694                           ;psect for function _I2C1_ISR
  8695  065D                     _I2C1_ISR:
  8696  065D                     i1l2592:	
  8697                           ;incstack = 0
  8698                           ; Regs used in _I2C1_ISR: [wreg-fsr1h+status,2+status,0+pclath+cstack]
  8699                           
  8700  065D                     i1l2594:
  8701                           
  8702                           ;i2c1.c: 139: PIE3bits.SSP1IE = 0;
  8703  065D  014E               	movlb	14	; select bank14
  8704  065E  1019               	bcf	25,0	;volatile
  8705  065F                     i1l2596:
  8706                           
  8707                           ;i2c1.c: 140: PIR3bits.SSP1IF = 0;
  8708  065F  100F               	bcf	15,0	;volatile
  8709  0660                     i1l2598:
  8710                           
  8711                           ;i2c1.c: 141: i2c_data = SSP1BUF;
  8712  0660  0143               	movlb	3	; select bank3
  8713  0661  080C               	movf	12,w	;volatile
  8714  0662  00F2               	movwf	??_I2C1_ISR
  8715  0663  0872               	movf	??_I2C1_ISR,w
  8716  0664  00F4               	movwf	I2C1_ISR@i2c_data
  8717  0665                     i1l2600:
  8718                           
  8719                           ;i2c1.c: 142: if(1 == SSP1STATbits.R_nW){
  8720  0665  1D0F               	btfss	15,2	;volatile
  8721  0666  2E68               	goto	u111_21
  8722  0667  2E69               	goto	u111_20
  8723  0668                     u111_21:
  8724  0668  2E7D               	goto	i1l68
  8725  0669                     u111_20:
  8726  0669                     i1l2602:
  8727                           
  8728                           ;i2c1.c: 143: if((1 == SSP1STATbits.D_nA) && (1 == SSP1CON2bits.ACKSTAT)){
  8729  0669  1E8F               	btfss	15,5	;volatile
  8730  066A  2E6C               	goto	u112_21
  8731  066B  2E6D               	goto	u112_20
  8732  066C                     u112_21:
  8733  066C  2E76               	goto	i1l2608
  8734  066D                     u112_20:
  8735  066D                     i1l2604:
  8736  066D  1F11               	btfss	17,6	;volatile
  8737  066E  2E70               	goto	u113_21
  8738  066F  2E71               	goto	u113_20
  8739  0670                     u113_21:
  8740  0670  2E76               	goto	i1l2608
  8741  0671                     u113_20:
  8742  0671                     i1l2606:
  8743                           
  8744                           ;i2c1.c: 145: I2C1_StatusCallback(I2C1_SLAVE_READ_COMPLETED);
  8745  0671  3003               	movlw	3
  8746  0672  3186  260A  3186   	fcall	_I2C1_StatusCallback
  8747                           
  8748                           ;i2c1.c: 146: }
  8749  0675  2EA5               	goto	i1l71
  8750  0676                     i1l2608:
  8751                           
  8752                           ;i2c1.c: 147: else{;i2c1.c: 149: I2C1_StatusCallback(I2C1_SLAVE_READ_REQUEST);
  8753  0676  3001               	movlw	1
  8754  0677  3186  260A  3186   	fcall	_I2C1_StatusCallback
  8755  067A                     i1l2610:
  8756                           
  8757                           ;i2c1.c: 150: SSP1CON1bits.CKP = 1;
  8758  067A  0143               	movlb	3	; select bank3
  8759  067B  1610               	bsf	16,4	;volatile
  8760  067C  2EA5               	goto	i1l71
  8761  067D                     i1l68:
  8762                           
  8763                           ;i2c1.c: 154: else if(0 == SSP1STATbits.D_nA){
  8764  067D  1A8F               	btfsc	15,5	;volatile
  8765  067E  2E80               	goto	u114_21
  8766  067F  2E81               	goto	u114_20
  8767  0680                     u114_21:
  8768  0680  2E86               	goto	i1l2614
  8769  0681                     u114_20:
  8770  0681                     i1l2612:
  8771                           
  8772                           ;i2c1.c: 158: I2C1_StatusCallback(I2C1_SLAVE_WRITE_REQUEST);
  8773  0681  3000               	movlw	0
  8774  0682  3186  260A  3186   	fcall	_I2C1_StatusCallback
  8775                           
  8776                           ;i2c1.c: 159: }
  8777  0685  2EA5               	goto	i1l71
  8778  0686                     i1l2614:
  8779                           
  8780                           ;i2c1.c: 160: else{;i2c1.c: 161: I2C1_slaveWriteData = i2c_data;
  8781  0686  0874               	movf	I2C1_ISR@i2c_data,w
  8782  0687  00F2               	movwf	??_I2C1_ISR
  8783  0688  0872               	movf	??_I2C1_ISR,w
  8784  0689  00FB               	movwf	_I2C1_slaveWriteData	;volatile
  8785  068A                     i1l2616:
  8786                           
  8787                           ;i2c1.c: 164: I2C1_StatusCallback(I2C1_SLAVE_WRITE_COMPLETED);
  8788  068A  3002               	movlw	2
  8789  068B  3186  260A  3186   	fcall	_I2C1_StatusCallback
  8790  068E                     i1l2618:
  8791                           
  8792                           ;i2c1.c: 165: SSP1CON1bits.CKP = 1;
  8793  068E  0143               	movlb	3	; select bank3
  8794  068F  1610               	bsf	16,4	;volatile
  8795  0690                     i1l2620:
  8796                           
  8797                           ;i2c1.c: 166: uint8_t ctr=0xff;
  8798  0690  30FF               	movlw	255
  8799  0691  00F2               	movwf	??_I2C1_ISR
  8800  0692  0872               	movf	??_I2C1_ISR,w
  8801  0693  00F3               	movwf	I2C1_ISR@ctr
  8802                           
  8803                           ;i2c1.c: 167: while(!PIR3bits.SSP1IF && ctr--){
  8804  0694  2E99               	goto	i1l74
  8805  0695                     i1l75:
  8806                           
  8807                           ;i2c1.c: 168: _delay((unsigned long)((1)*(32000000/4000000.0)));
  8808  0695  3200               	nop2	;2 cycle nop
  8809  0696  3200               	nop2	;2 cycle nop
  8810  0697  3200               	nop2	;2 cycle nop
  8811  0698  3200               	nop2	;2 cycle nop
  8812  0699                     i1l74:
  8813  0699  014E               	movlb	14	; select bank14
  8814  069A  180F               	btfsc	15,0	;volatile
  8815  069B  2E9D               	goto	u115_21
  8816  069C  2E9E               	goto	u115_20
  8817  069D                     u115_21:
  8818  069D  2EA5               	goto	i1l71
  8819  069E                     u115_20:
  8820  069E                     i1l2622:
  8821  069E  3001               	movlw	1
  8822  069F  02F3               	subwf	I2C1_ISR@ctr,f
  8823  06A0  0A73               	incf	I2C1_ISR@ctr,w
  8824  06A1  1D03               	btfss	3,2
  8825  06A2  2EA4               	goto	u116_21
  8826  06A3  2EA5               	goto	u116_20
  8827  06A4                     u116_21:
  8828  06A4  2E95               	goto	i1l75
  8829  06A5                     u116_20:
  8830  06A5                     i1l71:
  8831                           
  8832                           ;i2c1.c: 169: };i2c1.c: 170: };i2c1.c: 173: PIR3bits.SSP1IF = 0;
  8833  06A5  014E               	movlb	14	; select bank14
  8834  06A6  100F               	bcf	15,0	;volatile
  8835                           
  8836                           ;i2c1.c: 174: SSP1CON1bits.CKP = 1;
  8837  06A7  0143               	movlb	3	; select bank3
  8838  06A8  1610               	bsf	16,4	;volatile
  8839                           
  8840                           ;i2c1.c: 176: PIE3bits.SSP1IE = 1;
  8841  06A9  014E               	movlb	14	; select bank14
  8842  06AA  1419               	bsf	25,0	;volatile
  8843  06AB                     i1l79:
  8844  06AB  0008               	return
  8845  06AC                     __end_of_I2C1_ISR:
  8846                           
  8847                           	psect	text31
  8848  060A                     __ptext31:	
  8849 ;; *************** function _I2C1_StatusCallback *****************
  8850 ;; Defined at:
  8851 ;;		line 213 in file "system/i2c1.c"
  8852 ;; Parameters:    Size  Location     Type
  8853 ;;  i2c_bus_stat    1    wreg     enum E10841
  8854 ;; Auto vars:     Size  Location     Type
  8855 ;;  i2c_bus_stat    1    1[COMMON] enum E10841
  8856 ;; Return value:  Size  Location     Type
  8857 ;;                  1    wreg      void 
  8858 ;; Registers used:
  8859 ;;		wreg, fsr0l, fsr0h, fsr1l, fsr1h, status,2, status,0
  8860 ;; Tracked objects:
  8861 ;;		On entry : 0/0
  8862 ;;		On exit  : 0/0
  8863 ;;		Unchanged: 0/0
  8864 ;; Data sizes:     COMMON   BANK0   BANK1   BANK2   BANK3   BANK4   BANK5   BANK6   BANK7   BANK8   BANK9  BANK10  BANK1
      +1  BANK12  BANK13  BANK14  BANK15  BANK16  BANK17  BANK18  BANK19  BANK20  BANK21  BANK22  BANK23  BANK24  BANK25
  8865 ;;      Params:         0       0       0       0       0       0       0       0       0       0       0       0       
      +0       0       0       0       0       0       0       0       0       0       0       0       0       0       0
  8866 ;;      Locals:         1       0       0       0       0       0       0       0       0       0       0       0       
      +0       0       0       0       0       0       0       0       0       0       0       0       0       0       0
  8867 ;;      Temps:          1       0       0       0       0       0       0       0       0       0       0       0       
      +0       0       0       0       0       0       0       0       0       0       0       0       0       0       0
  8868 ;;      Totals:         2       0       0       0       0       0       0       0       0       0       0       0       
      +0       0       0       0       0       0       0       0       0       0       0       0       0       0       0
  8869 ;;Total ram usage:        2 bytes
  8870 ;; Hardware stack levels used:    1
  8871 ;; This function calls:
  8872 ;;		Nothing
  8873 ;; This function is called by:
  8874 ;;		_I2C1_ISR
  8875 ;; This function uses a non-reentrant model
  8876 ;;
  8877                           
  8878                           
  8879                           ;psect for function _I2C1_StatusCallback
  8880  060A                     _I2C1_StatusCallback:
  8881                           
  8882                           ;incstack = 0
  8883                           ; Regs used in _I2C1_StatusCallback: [wreg-fsr1h+status,2+status,0]
  8884                           ;I2C1_StatusCallback@i2c_bus_state stored from wreg
  8885  060A  00F1               	movwf	I2C1_StatusCallback@i2c_bus_state
  8886  060B                     i1l2414:
  8887                           
  8888                           ;i2c1.c: 215: static uint8_t slaveWriteType = SLAVE_COMMAND_DATA;;i2c1.c: 218: switch (i
      +                          2c_bus_state){
  8889  060B  2E4E               	goto	i1l2442
  8890  060C                     i1l108:	
  8891                           ;i2c1.c: 220: case I2C1_SLAVE_WRITE_REQUEST:
  8892                           
  8893                           
  8894                           ;i2c1.c: 222: slaveWriteType = SLAVE_COMMAND;
  8895  060C  0140               	movlb	0	; select bank0
  8896  060D  01D2               	clrf	I2C1_StatusCallback@slaveWriteType
  8897  060E  0AD2               	incf	I2C1_StatusCallback@slaveWriteType,f
  8898                           
  8899                           ;i2c1.c: 223: break;
  8900  060F  2E5C               	goto	i1l122
  8901  0610                     i1l2416:
  8902                           
  8903                           ;i2c1.c: 230: cmdByte = I2C1_slaveWriteData;
  8904  0610  087B               	movf	_I2C1_slaveWriteData,w	;volatile
  8905  0611  00F0               	movwf	??_I2C1_StatusCallback
  8906  0612  0870               	movf	??_I2C1_StatusCallback,w
  8907  0613  00D5               	movwf	_cmdByte
  8908  0614                     i1l2418:
  8909                           
  8910                           ;i2c1.c: 231: rxLen = 0;
  8911  0614  01F8               	clrf	_rxLen
  8912  0615                     i1l2420:
  8913                           
  8914                           ;i2c1.c: 232: cmdReceived = 1;
  8915  0615  01D4               	clrf	_cmdReceived
  8916  0616  0AD4               	incf	_cmdReceived,f
  8917                           
  8918                           ;i2c1.c: 233: break;
  8919  0617  2E35               	goto	i1l2432
  8920  0618                     i1l2422:
  8921                           
  8922                           ;i2c1.c: 238: if(rxLen <= 32)
  8923  0618  3021               	movlw	33
  8924  0619  0278               	subwf	_rxLen,w
  8925  061A  1803               	skipnc
  8926  061B  2E1D               	goto	u99_21
  8927  061C  2E1E               	goto	u99_20
  8928  061D                     u99_21:
  8929  061D  2E35               	goto	i1l2432
  8930  061E                     u99_20:
  8931  061E                     i1l2424:
  8932                           
  8933                           ;i2c1.c: 239: {;i2c1.c: 240: i2c1_rx_buffer[rxLen++] = I2C1_slaveWriteData;
  8934  061E  087B               	movf	_I2C1_slaveWriteData,w	;volatile
  8935  061F  00F0               	movwf	??_I2C1_StatusCallback
  8936  0620  0878               	movf	_rxLen,w
  8937  0621  3E40               	addlw	(low (_i2c1_rx_buffer| (0+256)))& (0+255)
  8938  0622  0086               	movwf	6
  8939  0623  3001               	movlw	1	; select bank2/3
  8940  0624  0087               	movwf	7
  8941  0625  0870               	movf	??_I2C1_StatusCallback,w
  8942  0626  0081               	movwf	1
  8943  0627                     i1l2426:
  8944  0627  3001               	movlw	1
  8945  0628  00F0               	movwf	??_I2C1_StatusCallback
  8946  0629  0870               	movf	??_I2C1_StatusCallback,w
  8947  062A  07F8               	addwf	_rxLen,f
  8948  062B  2E35               	goto	i1l2432
  8949  062C                     i1l2430:
  8950  062C  0140               	movlb	0	; select bank0
  8951  062D  0852               	movf	I2C1_StatusCallback@slaveWriteType,w
  8952                           
  8953                           ; Switch size 1, requested type "simple"
  8954                           ; Number of cases is 2, Range of values is 0 to 1
  8955                           ; switch strategies available:
  8956                           ; Name         Instructions Cycles
  8957                           ; simple_byte            7     4 (average)
  8958                           ; direct_byte           10     6 (fixed)
  8959                           ; jumptable            260     6 (fixed)
  8960                           ;	Chosen strategy is simple_byte
  8961  062E  3A00               	xorlw	0	; case 0
  8962  062F  1903               	skipnz
  8963  0630  2E18               	goto	i1l2422
  8964  0631  3A01               	xorlw	1	; case 1
  8965  0632  1903               	skipnz
  8966  0633  2E10               	goto	i1l2416
  8967  0634  2E18               	goto	i1l2422
  8968  0635                     i1l2432:
  8969                           
  8970                           ;i2c1.c: 246: slaveWriteType = SLAVE_COMMAND_DATA;
  8971  0635  01D2               	clrf	I2C1_StatusCallback@slaveWriteType
  8972                           
  8973                           ;i2c1.c: 247: break;
  8974  0636  2E5C               	goto	i1l122
  8975  0637                     i1l2434:
  8976                           
  8977                           ;i2c1.c: 250: if(txCnt<txLen){
  8978  0637  0140               	movlb	0	; select bank0
  8979  0638  0853               	movf	_txLen,w
  8980  0639  0277               	subwf	_txCnt,w
  8981  063A  1803               	skipnc
  8982  063B  2E3D               	goto	u100_21
  8983  063C  2E3E               	goto	u100_20
  8984  063D                     u100_21:
  8985  063D  2E4B               	goto	i1l2440
  8986  063E                     u100_20:
  8987  063E                     i1l2436:
  8988                           
  8989                           ;i2c1.c: 251: SSP1BUF = i2c1_tx_buffer[txCnt++];
  8990  063E  0877               	movf	_txCnt,w
  8991  063F  3E20               	addlw	(low (_i2c1_tx_buffer| (0+256)))& (0+255)
  8992  0640  0086               	movwf	6
  8993  0641  3001               	movlw	1	; select bank2/3
  8994  0642  0087               	movwf	7
  8995  0643  0801               	movf	1,w
  8996  0644  0143               	movlb	3	; select bank3
  8997  0645  008C               	movwf	12	;volatile
  8998  0646                     i1l2438:
  8999  0646  3001               	movlw	1
  9000  0647  00F0               	movwf	??_I2C1_StatusCallback
  9001  0648  0870               	movf	??_I2C1_StatusCallback,w
  9002  0649  07F7               	addwf	_txCnt,f
  9003                           
  9004                           ;i2c1.c: 252: }
  9005  064A  2E5C               	goto	i1l122
  9006  064B                     i1l2440:
  9007                           
  9008                           ;i2c1.c: 253: else{;i2c1.c: 254: SSP1BUF = 0x00;
  9009  064B  0143               	movlb	3	; select bank3
  9010  064C  018C               	clrf	12	;volatile
  9011  064D  2E5C               	goto	i1l122
  9012  064E                     i1l2442:
  9013  064E  0871               	movf	I2C1_StatusCallback@i2c_bus_state,w
  9014                           
  9015                           ; Switch size 1, requested type "simple"
  9016                           ; Number of cases is 4, Range of values is 0 to 3
  9017                           ; switch strategies available:
  9018                           ; Name         Instructions Cycles
  9019                           ; simple_byte           13     7 (average)
  9020                           ; direct_byte           14     6 (fixed)
  9021                           ; jumptable            260     6 (fixed)
  9022                           ;	Chosen strategy is simple_byte
  9023  064F  3A00               	xorlw	0	; case 0
  9024  0650  1903               	skipnz
  9025  0651  2E0C               	goto	i1l108
  9026  0652  3A01               	xorlw	1	; case 1
  9027  0653  1903               	skipnz
  9028  0654  2E37               	goto	i1l2434
  9029  0655  3A03               	xorlw	3	; case 2
  9030  0656  1903               	skipnz
  9031  0657  2E2C               	goto	i1l2430
  9032  0658  3A01               	xorlw	1	; case 3
  9033  0659  1903               	skipnz
  9034  065A  2E5C               	goto	i1l122
  9035  065B  2E5C               	goto	i1l122
  9036  065C                     i1l122:
  9037  065C  0008               	return
  9038  065D                     __end_of_I2C1_StatusCallback:
  9039                           
  9040                           	psect	text32
  9041  0002                     __ptext32:	
  9042 ;; *************** function _DefaultSensorInterruptHandler *****************
  9043 ;; Defined at:
  9044 ;;		line 56 in file "system/interrupt.c"
  9045 ;; Parameters:    Size  Location     Type
  9046 ;;		None
  9047 ;; Auto vars:     Size  Location     Type
  9048 ;;		None
  9049 ;; Return value:  Size  Location     Type
  9050 ;;                  1    wreg      void 
  9051 ;; Registers used:
  9052 ;;		None
  9053 ;; Tracked objects:
  9054 ;;		On entry : 0/0
  9055 ;;		On exit  : 0/0
  9056 ;;		Unchanged: 0/0
  9057 ;; Data sizes:     COMMON   BANK0   BANK1   BANK2   BANK3   BANK4   BANK5   BANK6   BANK7   BANK8   BANK9  BANK10  BANK1
      +1  BANK12  BANK13  BANK14  BANK15  BANK16  BANK17  BANK18  BANK19  BANK20  BANK21  BANK22  BANK23  BANK24  BANK25
  9058 ;;      Params:         0       0       0       0       0       0       0       0       0       0       0       0       
      +0       0       0       0       0       0       0       0       0       0       0       0       0       0       0
  9059 ;;      Locals:         0       0       0       0       0       0       0       0       0       0       0       0       
      +0       0       0       0       0       0       0       0       0       0       0       0       0       0       0
  9060 ;;      Temps:          0       0       0       0       0       0       0       0       0       0       0       0       
      +0       0       0       0       0       0       0       0       0       0       0       0       0       0       0
  9061 ;;      Totals:         0       0       0       0       0       0       0       0       0       0       0       0       
      +0       0       0       0       0       0       0       0       0       0       0       0       0       0       0
  9062 ;;Total ram usage:        0 bytes
  9063 ;; Hardware stack levels used:    1
  9064 ;; This function calls:
  9065 ;;		Nothing
  9066 ;; This function is called by:
  9067 ;;		_Interrupt_Handler
  9068 ;; This function uses a non-reentrant model
  9069 ;;
  9070                           
  9071                           
  9072                           ;psect for function _DefaultSensorInterruptHandler
  9073  0002                     _DefaultSensorInterruptHandler:
  9074  0002                     i1l2802:	
  9075                           ;incstack = 0
  9076                           ; Regs used in _DefaultSensorInterruptHandler: []
  9077                           
  9078  0002                     i1l165:	
  9079                           ;interrupt.c: 57: return;
  9080                           
  9081  0002  0008               	return
  9082  0003                     __end_of_DefaultSensorInterruptHandler:
  9083                           
  9084                           	psect	text33
  9085  0FB5                     __ptext33:	
  9086 ;; *************** function _ADCC_ISR *****************
  9087 ;; Defined at:
  9088 ;;		line 309 in file "system/adcc.c"
  9089 ;; Parameters:    Size  Location     Type
  9090 ;;		None
  9091 ;; Auto vars:     Size  Location     Type
  9092 ;;		None
  9093 ;; Return value:  Size  Location     Type
  9094 ;;                  1    wreg      void 
  9095 ;; Registers used:
  9096 ;;		wreg, status,2, status,0, pclath, cstack
  9097 ;; Tracked objects:
  9098 ;;		On entry : 0/0
  9099 ;;		On exit  : 0/0
  9100 ;;		Unchanged: 0/0
  9101 ;; Data sizes:     COMMON   BANK0   BANK1   BANK2   BANK3   BANK4   BANK5   BANK6   BANK7   BANK8   BANK9  BANK10  BANK1
      +1  BANK12  BANK13  BANK14  BANK15  BANK16  BANK17  BANK18  BANK19  BANK20  BANK21  BANK22  BANK23  BANK24  BANK25
  9102 ;;      Params:         0       0       0       0       0       0       0       0       0       0       0       0       
      +0       0       0       0       0       0       0       0       0       0       0       0       0       0       0
  9103 ;;      Locals:         0       0       0       0       0       0       0       0       0       0       0       0       
      +0       0       0       0       0       0       0       0       0       0       0       0       0       0       0
  9104 ;;      Temps:          0       0       0       0       0       0       0       0       0       0       0       0       
      +0       0       0       0       0       0       0       0       0       0       0       0       0       0       0
  9105 ;;      Totals:         0       0       0       0       0       0       0       0       0       0       0       0       
      +0       0       0       0       0       0       0       0       0       0       0       0       0       0       0
  9106 ;;Total ram usage:        0 bytes
  9107 ;; Hardware stack levels used:    1
  9108 ;; Hardware stack levels required when called:    1
  9109 ;; This function calls:
  9110 ;;		Absolute function
  9111 ;;		_ADCC_DefaultInterruptHandler
  9112 ;; This function is called by:
  9113 ;;		_Interrupt_Handler
  9114 ;; This function uses a non-reentrant model
  9115 ;;
  9116                           
  9117                           
  9118                           ;psect for function _ADCC_ISR
  9119  0FB5                     _ADCC_ISR:
  9120  0FB5                     i1l2654:	
  9121                           ;incstack = 0
  9122                           ; Regs used in _ADCC_ISR: [wreg+status,2+status,0+pclath+cstack]
  9123                           
  9124                           
  9125                           ;adcc.c: 312: PIR1bits.ADIF = 0;
  9126  0FB5  014E               	movlb	14	; select bank14
  9127  0FB6  100D               	bcf	13,0	;volatile
  9128  0FB7                     i1l2656:
  9129                           
  9130                           ;adcc.c: 314: if (ADCC_ADI_InterruptHandler)
  9131  0FB7  0141               	movlb	1	; select bank1
  9132  0FB8  084A               	movf	_ADCC_ADI_InterruptHandler^(0+128),w
  9133  0FB9  044B               	iorwf	(_ADCC_ADI_InterruptHandler+1)^(0+128),w
  9134  0FBA  1903               	btfsc	3,2
  9135  0FBB  2FBD               	goto	u122_21
  9136  0FBC  2FBE               	goto	u122_20
  9137  0FBD                     u122_21:
  9138  0FBD  2FC3               	goto	i1l403
  9139  0FBE                     u122_20:
  9140  0FBE                     i1l2658:
  9141                           
  9142                           ;adcc.c: 315: ADCC_ADI_InterruptHandler();
  9143  0FBE  084B               	movf	(_ADCC_ADI_InterruptHandler+1)^(0+128),w
  9144  0FBF  008A               	movwf	10
  9145  0FC0  084A               	movf	_ADCC_ADI_InterruptHandler^(0+128),w
  9146  0FC1  000A               	callw
  9147  0FC2  318F               	pagesel	$
  9148  0FC3                     i1l403:
  9149  0FC3  0008               	return
  9150  0FC4                     __end_of_ADCC_ISR:
  9151                           
  9152                           	psect	text34
  9153  0F57                     __ptext34:	
  9154 ;; *************** function _ADCC_DefaultInterruptHandler *****************
  9155 ;; Defined at:
  9156 ;;		line 322 in file "system/adcc.c"
  9157 ;; Parameters:    Size  Location     Type
  9158 ;;		None
  9159 ;; Auto vars:     Size  Location     Type
  9160 ;;		None
  9161 ;; Return value:  Size  Location     Type
  9162 ;;                  1    wreg      void 
  9163 ;; Registers used:
  9164 ;;		None
  9165 ;; Tracked objects:
  9166 ;;		On entry : 0/0
  9167 ;;		On exit  : 0/0
  9168 ;;		Unchanged: 0/0
  9169 ;; Data sizes:     COMMON   BANK0   BANK1   BANK2   BANK3   BANK4   BANK5   BANK6   BANK7   BANK8   BANK9  BANK10  BANK1
      +1  BANK12  BANK13  BANK14  BANK15  BANK16  BANK17  BANK18  BANK19  BANK20  BANK21  BANK22  BANK23  BANK24  BANK25
  9170 ;;      Params:         0       0       0       0       0       0       0       0       0       0       0       0       
      +0       0       0       0       0       0       0       0       0       0       0       0       0       0       0
  9171 ;;      Locals:         0       0       0       0       0       0       0       0       0       0       0       0       
      +0       0       0       0       0       0       0       0       0       0       0       0       0       0       0
  9172 ;;      Temps:          0       0       0       0       0       0       0       0       0       0       0       0       
      +0       0       0       0       0       0       0       0       0       0       0       0       0       0       0
  9173 ;;      Totals:         0       0       0       0       0       0       0       0       0       0       0       0       
      +0       0       0       0       0       0       0       0       0       0       0       0       0       0       0
  9174 ;;Total ram usage:        0 bytes
  9175 ;; Hardware stack levels used:    1
  9176 ;; This function calls:
  9177 ;;		Nothing
  9178 ;; This function is called by:
  9179 ;;		_ADCC_Initialize
  9180 ;;		_ADCC_ISR
  9181 ;; This function uses a non-reentrant model
  9182 ;;
  9183                           
  9184                           
  9185                           ;psect for function _ADCC_DefaultInterruptHandler
  9186  0F57                     _ADCC_DefaultInterruptHandler:
  9187  0F57                     i1l409:	
  9188                           ;incstack = 0
  9189                           ; Regs used in _ADCC_DefaultInterruptHandler: []
  9190                           
  9191  0F57  0008               	return
  9192  0F58                     __end_of_ADCC_DefaultInterruptHandler:
  9193  007E                     btemp	set	126	;btemp
  9194  007E                     int$flags	set	126
  9195  007E                     wtemp0	set	126
  9196                           
  9197                           	psect	config
  9198                           
  9199                           ;Config register CONFIG1 @ 0x8007
  9200                           ;	External Oscillator mode selection bits
  9201                           ;	FEXTOSC = OFF, Oscillator not enabled
  9202                           ;	Power-up default value for COSC bits
  9203                           ;	RSTOSC = HFINT1, HFINTOSC (1MHz)
  9204                           ;	Clock Out Enable bit
  9205                           ;	CLKOUTEN = OFF, CLKOUT function is disabled; i/o or oscillator function on OSC2
  9206                           ;	Clock Switch Enable bit
  9207                           ;	CSWEN = ON, Writing to NOSC and NDIV is allowed
  9208                           ;	Fail-Safe Clock Monitor Enable bit
  9209                           ;	FCMEN = OFF, FSCM timer disabled
  9210  8007                     	org	32775
  9211  8007  1FEC               	dw	8172
  9212                           
  9213                           ;Config register CONFIG2 @ 0x8008
  9214                           ;	Master Clear Enable bit
  9215                           ;	MCLRE = ON, MCLR pin is Master Clear function
  9216                           ;	Power-up Timer Enable bit
  9217                           ;	PWRTS = OFF, PWRT disabled
  9218                           ;	Low-Power BOR enable bit
  9219                           ;	LPBOREN = OFF, ULPBOR disabled
  9220                           ;	Brown-out reset enable bits
  9221                           ;	BOREN = OFF, Brown-out reset disabled
  9222                           ;	Brown-out Reset Voltage Selection
  9223                           ;	BORV = LO, Brown-out Reset Voltage (VBOR) set to 2.45V
  9224                           ;	Zero-cross detect disable
  9225                           ;	ZCD = OFF, Zero-cross detect circuit is disabled at POR.
  9226                           ;	Peripheral Pin Select one-way control
  9227                           ;	PPS1WAY = ON, The PPSLOCK bit can be cleared and set only once in software
  9228                           ;	Stack Overflow/Underflow Reset Enable bit
  9229                           ;	STVREN = ON, Stack Overflow or Underflow will cause a reset
  9230  8008                     	org	32776
  9231  8008  3F3F               	dw	16191
  9232                           
  9233                           ;Config register CONFIG3 @ 0x8009
  9234                           ;	WDT Period Select bits
  9235                           ;	WDTCPS = WDTCPS_31, Divider ratio 1:65536; software control of WDTPS
  9236                           ;	WDT operating mode
  9237                           ;	WDTE = SWDTEN, WDT enabled/disabled by SWDTEN bit in WDTCON0
  9238                           ;	WDT Window Select bits
  9239                           ;	WDTCWS = WDTCWS_7, window always open (100%); software control; keyed access not requi
      +                          red
  9240                           ;	WDT input clock selector
  9241                           ;	WDTCCS = SC, Software Control
  9242  8009                     	org	32777
  9243  8009  3FBF               	dw	16319
  9244                           
  9245                           ;Config register CONFIG4 @ 0x800A
  9246                           ;	Boot Block Size Selection bits
  9247                           ;	BBSIZE = BB512, 512 words boot block size
  9248                           ;	Boot Block Enable bit
  9249                           ;	BBEN = OFF, Boot Block disabled
  9250                           ;	SAF Enable bit
  9251                           ;	SAFEN = OFF, SAF disabled
  9252                           ;	Application Block Write Protection bit
  9253                           ;	WRTAPP = OFF, Application Block not write protected
  9254                           ;	Boot Block Write Protection bit
  9255                           ;	WRTB = OFF, Boot Block not write protected
  9256                           ;	Configuration Register Write Protection bit
  9257                           ;	WRTC = OFF, Configuration Register not write protected
  9258                           ;	Data EEPROM write protection bit
  9259                           ;	WRTD = OFF, Data EEPROM NOT write protected
  9260                           ;	Storage Area Flash Write Protection bit
  9261                           ;	WRTSAF = OFF, SAF not write protected
  9262                           ;	Low Voltage Programming Enable bit
  9263                           ;	LVP = ON, Low Voltage programming enabled. MCLR/Vpp pin function is MCLR.
  9264  800A                     	org	32778
  9265  800A  3FFF               	dw	16383
  9266                           
  9267                           ;Config register CONFIG5 @ 0x800B
  9268                           ;	UserNVM Program memory code protection bit
  9269                           ;	CP = OFF, UserNVM code protection disabled
  9270  800B                     	org	32779
  9271  800B  3FFF               	dw	16383

Data Sizes:
    Strings     0
    Constant    0
    Data        13
    BSS         153
    Persistent  32
    Stack       0

Auto Spaces:
    Space          Size  Autos    Used
    COMMON           14      6      12
    BANK0            80     37      55
    BANK1            80      0      78
    BANK2            80      0      64
    BANK3            80     26      26
    BANK4            80      0       0
    BANK5            80      0       0
    BANK6            80      0       0
    BANK7            80      0       0
    BANK8            80      0       0
    BANK9            80      0       0
    BANK10           80      0       0
    BANK11           80      0       0
    BANK12           80      0       0
    BANK13           80      0       0
    BANK14           80      0       0
    BANK15           80      0       0
    BANK16           80      0       0
    BANK17           80      0       0
    BANK18           80      0       0
    BANK19           80      0       0
    BANK20           80      0       0
    BANK21           80      0       0
    BANK22           80      0       0
    BANK23           80      0       0
    BANK24           80      0       0
    BANK25           32      0       0

Pointer List with Targets:

    i2c2_tr_queue.ptrb_list.pbuffer	PTR unsigned char  size(1) Largest target is 0

    i2c2_tr_queue.pTrFlag	PTR enum E10753 size(1) Largest target is 0

    i2c2_tr_queue.ptrb_list	PTR struct . size(1) Largest target is 5
		 -> I2C2_MasterRead@trBlock(BANK1[4]), I2C2_MasterWrite@trBlock(BANK1[4]), 

    S1946$4$1	PTR unsigned char  size(1) Largest target is 20
		 -> main@data(BANK3[20]), 

    S1946$3$1	PTR unsigned char  size(1) Largest target is 1
		 -> mDataLength(BANK0[1]), 

    S1946$3$0	PTR unsigned char  size(1) Largest target is 4
		 -> mData(BANK1[4]), 

    __builtin_memcpy$1	PTR const void  size(1) Largest target is 32
		 -> i2c1_rx_buffer(BANK2[32]), 

    __builtin_memcpy$0	PTR void  size(1) Largest target is 20
		 -> main@data(BANK3[20]), 

    S1946sensorApi$UpdateThreshold	PTR FTN(unsigned char ,PTR unsigned char ,)void  size(2) Largest target is 1
		 -> Power_SetThreshold(), 

    sensorAPI.UpdateThreshold	PTR FTN(unsigned char ,PTR unsigned char ,)void  size(2) Largest target is 1
		 -> Power_SetThreshold(), 

    S1946sensorApi$GetData	PTR FTN(PTR unsigned char ,PTR unsigned char ,)void  size(2) Largest target is 1
		 -> Power_GetData(), 

    sensorAPI.GetData	PTR FTN(PTR unsigned char ,PTR unsigned char ,)void  size(2) Largest target is 1
		 -> Power_GetData(), 

    S1946sensorApi$Loop	PTR FTN()void  size(2) Largest target is 1
		 -> Power_Loop(), 

    sensorAPI.Loop	PTR FTN()void  size(2) Largest target is 1
		 -> Power_Loop(), 

    S1946sensorApi$Measure	PTR FTN()void  size(2) Largest target is 1
		 -> Power_Measure(), 

    sensorAPI.Measure	PTR FTN()void  size(2) Largest target is 1
		 -> Power_Measure(), 

    S1946sensorApi$Init	PTR FTN()void  size(2) Largest target is 1
		 -> Power_Init(), 

    sensorAPI.Init	PTR FTN()void  size(2) Largest target is 1
		 -> Power_Init(), 

    Power_SetThreshold@thresholdData	PTR unsigned char  size(1) Largest target is 20
		 -> main@data(BANK3[20]), 

    Power_GetData@data	PTR unsigned char  size(1) Largest target is 4
		 -> mData(BANK1[4]), 

    Power_GetData@length	PTR unsigned char  size(1) Largest target is 1
		 -> mDataLength(BANK0[1]), 

    I2C2_MasterWriteTRBBuild@ptrb.pbuffer	PTR unsigned char  size(1) Largest target is 0

    I2C2_MasterReadTRBBuild@ptrb.pbuffer	PTR unsigned char  size(1) Largest target is 0

    i2c2_object.pTrTail.ptrb_list.pbuffer	PTR unsigned char  size(1) Largest target is 0

    i2c2_object.pTrTail.pTrFlag	PTR enum E10753 size(1) Largest target is 0

    i2c2_object.pTrTail.ptrb_list	PTR struct . size(1) Largest target is 5
		 -> I2C2_MasterRead@trBlock(BANK1[4]), I2C2_MasterWrite@trBlock(BANK1[4]), 

    F10998.pbuffer	PTR unsigned char  size(1) Largest target is 0

    F10993.pbuffer	PTR unsigned char  size(1) Largest target is 0

    I2C2_ISR@pi2c_buf_ptr	PTR unsigned char  size(1) Largest target is 0
		 -> NULL(NULL[0]), 

    p_i2c2_trb_current.pbuffer	PTR unsigned char  size(1) Largest target is 0

    p_i2c2_trb_current	PTR struct . size(1) Largest target is 5
		 -> I2C2_MasterRead@trBlock(BANK1[4]), I2C2_MasterWrite@trBlock(BANK1[4]), NULL(NULL[0]), 

    i2c2_object.pTrHead.pTrFlag	PTR enum E10753 size(1) Largest target is 0

    i2c2_object.pTrHead.ptrb_list	PTR struct . size(1) Largest target is 5
		 -> I2C2_MasterRead@trBlock(BANK1[4]), I2C2_MasterWrite@trBlock(BANK1[4]), 

    S1194$pbuffer	PTR unsigned char  size(1) Largest target is 0

    p_i2c2_current.pbuffer	PTR unsigned char  size(1) Largest target is 0

    S1206$pTrFlag	PTR enum E10753 size(1) Largest target is 0

    p_i2c2_current.pTrFlag	PTR enum E10753 size(1) Largest target is 0

    S1206$ptrb_list	PTR struct . size(1) Largest target is 5
		 -> I2C2_MasterRead@trBlock(BANK1[4]), I2C2_MasterWrite@trBlock(BANK1[4]), 

    p_i2c2_current.ptrb_list	PTR struct . size(1) Largest target is 5
		 -> I2C2_MasterRead@trBlock(BANK1[4]), I2C2_MasterWrite@trBlock(BANK1[4]), 

    p_i2c2_current	PTR volatile struct . size(1) Largest target is 5
		 -> i2c2_tr_queue(BANK1[3]), NULL(NULL[0]), 

    S1217$pTrHead	PTR struct . size(1) Largest target is 5
		 -> i2c2_tr_queue(BANK1[3]), 

    i2c2_object.pTrHead	PTR struct . size(1) Largest target is 5
		 -> i2c2_tr_queue(BANK1[3]), 

    S1217$pTrTail	PTR struct . size(1) Largest target is 5
		 -> i2c2_tr_queue(BANK1[3]), 

    i2c2_object.pTrTail	PTR struct . size(1) Largest target is 5
		 -> i2c2_tr_queue(BANK1[3]), 

    ADCC_ADI_InterruptHandler	PTR FTN()void  size(2) Largest target is 1
		 -> Absolute function(), ADCC_DefaultInterruptHandler(), 

    SensorInterruptHandler	PTR FTN()void  size(2) Largest target is 1
		 -> DefaultSensorInterruptHandler(), 

    I2C1_SetTransmitData@data	PTR unsigned char  size(2) Largest target is 4
		 -> main@mnr(BANK3[1]), main@type(BANK3[1]), main@ack(BANK3[1]), mData(BANK1[4]), 

    I2C1_GetCommandData@len	PTR unsigned char  size(1) Largest target is 1
		 -> main@len(BANK3[1]), 

    sp____builtin_memcpy	PTR void  size(2) Largest target is 8192
		 -> RAM(DATA[8192]), 

    I2C1_GetCommandData@data	PTR unsigned char  size(1) Largest target is 20
		 -> main@data(BANK3[20]), 

    I2C1_GetCommand@cmd	PTR unsigned char  size(1) Largest target is 1
		 -> main@cmd(BANK3[1]), 


Critical Paths under _main in COMMON

    None.

Critical Paths under _Interrupt_Handler in COMMON

    _Interrupt_Handler->_I2C2_ISR
    _I2C2_ISR->_I2C2_Stop
    _I2C1_ISR->_I2C1_StatusCallback

Critical Paths under _main in BANK0

    _main->_Power_SetThreshold
    _SYSTEM_Initialize->_I2C1_Initialize
    _Power_SetThreshold->___ftdiv
    ___lwtoft->___ftpack
    ___ftdiv->___lwtoft
    _Power_Loop->_Measure
    _Power_Init->_LED_Blink

Critical Paths under _Interrupt_Handler in BANK0

    None.

Critical Paths under _main in BANK1

    None.

Critical Paths under _Interrupt_Handler in BANK1

    None.

Critical Paths under _main in BANK2

    None.

Critical Paths under _Interrupt_Handler in BANK2

    None.

Critical Paths under _main in BANK3

    None.

Critical Paths under _Interrupt_Handler in BANK3

    None.

Critical Paths under _main in BANK4

    None.

Critical Paths under _Interrupt_Handler in BANK4

    None.

Critical Paths under _main in BANK5

    None.

Critical Paths under _Interrupt_Handler in BANK5

    None.

Critical Paths under _main in BANK6

    None.

Critical Paths under _Interrupt_Handler in BANK6

    None.

Critical Paths under _main in BANK7

    None.

Critical Paths under _Interrupt_Handler in BANK7

    None.

Critical Paths under _main in BANK8

    None.

Critical Paths under _Interrupt_Handler in BANK8

    None.

Critical Paths under _main in BANK9

    None.

Critical Paths under _Interrupt_Handler in BANK9

    None.

Critical Paths under _main in BANK10

    None.

Critical Paths under _Interrupt_Handler in BANK10

    None.

Critical Paths under _main in BANK11

    None.

Critical Paths under _Interrupt_Handler in BANK11

    None.

Critical Paths under _main in BANK12

    None.

Critical Paths under _Interrupt_Handler in BANK12

    None.

Critical Paths under _main in BANK13

    None.

Critical Paths under _Interrupt_Handler in BANK13

    None.

Critical Paths under _main in BANK14

    None.

Critical Paths under _Interrupt_Handler in BANK14

    None.

Critical Paths under _main in BANK15

    None.

Critical Paths under _Interrupt_Handler in BANK15

    None.

Critical Paths under _main in BANK16

    None.

Critical Paths under _Interrupt_Handler in BANK16

    None.

Critical Paths under _main in BANK17

    None.

Critical Paths under _Interrupt_Handler in BANK17

    None.

Critical Paths under _main in BANK18

    None.

Critical Paths under _Interrupt_Handler in BANK18

    None.

Critical Paths under _main in BANK19

    None.

Critical Paths under _Interrupt_Handler in BANK19

    None.

Critical Paths under _main in BANK20

    None.

Critical Paths under _Interrupt_Handler in BANK20

    None.

Critical Paths under _main in BANK21

    None.

Critical Paths under _Interrupt_Handler in BANK21

    None.

Critical Paths under _main in BANK22

    None.

Critical Paths under _Interrupt_Handler in BANK22

    None.

Critical Paths under _main in BANK23

    None.

Critical Paths under _Interrupt_Handler in BANK23

    None.

Critical Paths under _main in BANK24

    None.

Critical Paths under _Interrupt_Handler in BANK24

    None.

Critical Paths under _main in BANK25

    None.

Critical Paths under _Interrupt_Handler in BANK25

    None.

Call Graph Tables:

 ---------------------------------------------------------------------------------
 (Depth) Function   	        Calls       Base Space   Used Autos Params    Refs
 ---------------------------------------------------------------------------------
 (0) _main                                                28    28      0    8680
                                             35 BANK0      2     2      0
                                              0 BANK3     26    26      0
               _I2C1_CommandReceived
                    _I2C1_GetCommand
                _I2C1_GetCommandData
               _I2C1_SetTransmitData
                 _I2C1_TxBufferEmpty
                      _Power_GetData *
                         _Power_Init *
                         _Power_Loop *
                      _Power_Measure *
                 _Power_SetThreshold *
                  _SYSTEM_Initialize
                          _toggleInt
 ---------------------------------------------------------------------------------
 (1) _toggleInt                                            0     0      0       0
 ---------------------------------------------------------------------------------
 (1) _SYSTEM_Initialize                                    1     1      0      62
                                              1 BANK0      1     1      0
                    _I2C1_Initialize
              _OSCILLATOR_Initialize
                     _PMD_Initialize
 ---------------------------------------------------------------------------------
 (2) _PMD_Initialize                                       0     0      0       0
 ---------------------------------------------------------------------------------
 (2) _OSCILLATOR_Initialize                                0     0      0       0
 ---------------------------------------------------------------------------------
 (2) _I2C1_Initialize                                      1     1      0      31
                                              0 BANK0      1     1      0
 ---------------------------------------------------------------------------------
 (1) _Power_SetThreshold                                   7     5      2    6919
                                             28 BANK0      7     5      2
                            ___ftdiv
                           ___lwtoft
 ---------------------------------------------------------------------------------
 (2) ___lwtoft                                             4     1      3    3025
                                              8 BANK0      4     1      3
                           ___ftpack
 ---------------------------------------------------------------------------------
 (2) ___ftdiv                                             16    10      6    3414
                                             12 BANK0     16    10      6
                           ___ftpack
                           ___lwtoft (ARG)
 ---------------------------------------------------------------------------------
 (3) ___ftpack                                             8     3      5    2686
                                              0 BANK0      8     3      5
 ---------------------------------------------------------------------------------
 (1) _Power_Measure                                        0     0      0       0
 ---------------------------------------------------------------------------------
 (1) _Power_Loop                                           0     0      0       0
                        _Enter_sleep
                            _Measure
                   _generateIntPower
 ---------------------------------------------------------------------------------
 (2) _generateIntPower                                     1     1      0       0
                                              0 BANK0      1     1      0
 ---------------------------------------------------------------------------------
 (2) _Measure                                              2     2      0       0
                                              0 BANK0      2     2      0
 ---------------------------------------------------------------------------------
 (2) _Enter_sleep                                          0     0      0       0
 ---------------------------------------------------------------------------------
 (1) _Power_Init                                           0     0      0       0
                           _ADC_Init
                          _LED_Blink
                           _WDT_Init
 ---------------------------------------------------------------------------------
 (2) _WDT_Init                                             0     0      0       0
 ---------------------------------------------------------------------------------
 (2) _LED_Blink                                            2     2      0       0
                                              0 BANK0      2     2      0
 ---------------------------------------------------------------------------------
 (2) _ADC_Init                                             0     0      0       0
 ---------------------------------------------------------------------------------
 (1) _Power_GetData                                        3     1      2     263
                                              0 BANK0      3     1      2
 ---------------------------------------------------------------------------------
 (1) _I2C1_TxBufferEmpty                                   0     0      0       0
 ---------------------------------------------------------------------------------
 (1) _I2C1_SetTransmitData                                 6     3      3     612
                                              0 BANK0      6     3      3
 ---------------------------------------------------------------------------------
 (1) _I2C1_GetCommandData                                  3     2      1     172
                                              0 BANK0      3     2      1
 ---------------------------------------------------------------------------------
 (1) _I2C1_GetCommand                                      2     2      0      64
                                              0 BANK0      2     2      0
 ---------------------------------------------------------------------------------
 (1) _I2C1_CommandReceived                                 0     0      0       0
 ---------------------------------------------------------------------------------
 Estimated maximum stack depth 3
 ---------------------------------------------------------------------------------
 (Depth) Function   	        Calls       Base Space   Used Autos Params    Refs
 ---------------------------------------------------------------------------------
 (4) _Interrupt_Handler                                    0     0      0      91
                           _ADCC_ISR
      _DefaultSensorInterruptHandler *
                           _I2C1_ISR
               _I2C2_BusCollisionISR
                           _I2C2_ISR
 ---------------------------------------------------------------------------------
 (5) _I2C2_ISR                                             4     4      0      22
                                              2 COMMON     4     4      0
              _I2C2_FunctionComplete
                          _I2C2_Stop
 ---------------------------------------------------------------------------------
 (6) _I2C2_Stop                                            2     2      0      22
                                              0 COMMON     2     2      0
 ---------------------------------------------------------------------------------
 (6) _I2C2_FunctionComplete                                1     1      0       0
                                              0 COMMON     1     1      0
 ---------------------------------------------------------------------------------
 (5) _I2C2_BusCollisionISR                                 0     0      0       0
 ---------------------------------------------------------------------------------
 (5) _I2C1_ISR                                             3     3      0      69
                                              2 COMMON     3     3      0
                _I2C1_StatusCallback
 ---------------------------------------------------------------------------------
 (6) _I2C1_StatusCallback                                  2     2      0      22
                                              0 COMMON     2     2      0
 ---------------------------------------------------------------------------------
 (5) _DefaultSensorInterruptHandler                        0     0      0       0
 ---------------------------------------------------------------------------------
 (5) _ADCC_ISR                                             0     0      0       0
                   Absolute function *
       _ADCC_DefaultInterruptHandler *
 ---------------------------------------------------------------------------------
 (6) _ADCC_DefaultInterruptHandler                         0     0      0       0
 ---------------------------------------------------------------------------------
 (6) Absolute function(Fake)                               0     0      0       0
 ---------------------------------------------------------------------------------
 Estimated maximum stack depth 6
 ---------------------------------------------------------------------------------

 Call Graph Graphs:

 _main (ROOT)
   _I2C1_CommandReceived
   _I2C1_GetCommand
   _I2C1_GetCommandData
   _I2C1_SetTransmitData
   _I2C1_TxBufferEmpty
   _Power_GetData *
   _Power_Init *
     _ADC_Init
     _LED_Blink
     _WDT_Init
   _Power_Loop *
     _Enter_sleep
     _Measure
     _generateIntPower
   _Power_Measure *
   _Power_SetThreshold *
     ___ftdiv
       ___ftpack
       ___lwtoft (ARG)
         ___ftpack
     ___lwtoft
       ___ftpack
   _SYSTEM_Initialize *
     _I2C1_Initialize
     _OSCILLATOR_Initialize
     _PMD_Initialize
   _toggleInt *

 _Interrupt_Handler (ROOT)
   _ADCC_ISR
     Absolute function(Fake) *
     _ADCC_DefaultInterruptHandler *
   _DefaultSensorInterruptHandler *
   _I2C1_ISR *
     _I2C1_StatusCallback
   _I2C2_BusCollisionISR *
   _I2C2_ISR *
     _I2C2_FunctionComplete
     _I2C2_Stop

 Address spaces:
Name               Size   Autos  Total    Cost      Usage
BIGRAM             7F0      0       0       0        0.0%
EEDATA             100      0       0       0        0.0%
NULL                 0      0       0       0        0.0%
CODE                 0      0       0       0        0.0%
BITCOMMON            E      0       0       1        0.0%
BITSFR0              0      0       0       1        0.0%
SFR0                 0      0       0       1        0.0%
COMMON               E      6       C       2       85.7%
BITSFR1              0      0       0       2        0.0%
SFR1                 0      0       0       2        0.0%
BITSFR2              0      0       0       3        0.0%
SFR2                 0      0       0       3        0.0%
STACK                0      0       0       3        0.0%
BITBANK0            50      0       0       4        0.0%
BITSFR3              0      0       0       4        0.0%
SFR3                 0      0       0       4        0.0%
BANK0               50     25      37       5       68.8%
BITSFR4              0      0       0       5        0.0%
SFR4                 0      0       0       5        0.0%
BITSFR5              0      0       0       6        0.0%
SFR5                 0      0       0       6        0.0%
ABS                  0      0      EB       6        0.0%
BITBANK1            50      0       0       7        0.0%
BITSFR6              0      0       0       7        0.0%
SFR6                 0      0       0       7        0.0%
BANK1               50      0      4E       8       97.5%
BITSFR7              0      0       0       8        0.0%
SFR7                 0      0       0       8        0.0%
BITBANK2            50      0       0       9        0.0%
BITSFR8              0      0       0       9        0.0%
SFR8                 0      0       0       9        0.0%
BANK2               50      0      40      10       80.0%
BITSFR9              0      0       0      10        0.0%
SFR9                 0      0       0      10        0.0%
BITBANK3            50      0       0      11        0.0%
BITSFR10             0      0       0      11        0.0%
SFR10                0      0       0      11        0.0%
BANK3               50     1A      1A      12       32.5%
BITSFR11             0      0       0      12        0.0%
SFR11                0      0       0      12        0.0%
BITBANK4            50      0       0      13        0.0%
BITSFR12             0      0       0      13        0.0%
SFR12                0      0       0      13        0.0%
BANK4               50      0       0      14        0.0%
BITSFR13             0      0       0      14        0.0%
SFR13                0      0       0      14        0.0%
BITBANK5            50      0       0      15        0.0%
BITSFR14             0      0       0      15        0.0%
SFR14                0      0       0      15        0.0%
BANK5               50      0       0      16        0.0%
BITSFR15             0      0       0      16        0.0%
SFR15                0      0       0      16        0.0%
BITBANK6            50      0       0      17        0.0%
BITSFR16             0      0       0      17        0.0%
SFR16                0      0       0      17        0.0%
BANK6               50      0       0      18        0.0%
BITSFR17             0      0       0      18        0.0%
SFR17                0      0       0      18        0.0%
BITBANK7            50      0       0      19        0.0%
BITSFR18             0      0       0      19        0.0%
SFR18                0      0       0      19        0.0%
BANK7               50      0       0      20        0.0%
BITSFR19             0      0       0      20        0.0%
SFR19                0      0       0      20        0.0%
BITBANK8            50      0       0      21        0.0%
BITSFR20             0      0       0      21        0.0%
SFR20                0      0       0      21        0.0%
BANK8               50      0       0      22        0.0%
BITSFR21             0      0       0      22        0.0%
SFR21                0      0       0      22        0.0%
BITBANK9            50      0       0      23        0.0%
BITSFR22             0      0       0      23        0.0%
SFR22                0      0       0      23        0.0%
BANK9               50      0       0      24        0.0%
BITSFR23             0      0       0      24        0.0%
SFR23                0      0       0      24        0.0%
BITBANK10           50      0       0      25        0.0%
BITSFR24             0      0       0      25        0.0%
SFR24                0      0       0      25        0.0%
BANK10              50      0       0      26        0.0%
BITSFR25             0      0       0      26        0.0%
SFR25                0      0       0      26        0.0%
BITBANK11           50      0       0      27        0.0%
BITSFR26             0      0       0      27        0.0%
SFR26                0      0       0      27        0.0%
BANK11              50      0       0      28        0.0%
BITSFR27             0      0       0      28        0.0%
SFR27                0      0       0      28        0.0%
BITBANK12           50      0       0      29        0.0%
BITSFR28             0      0       0      29        0.0%
SFR28                0      0       0      29        0.0%
BANK12              50      0       0      30        0.0%
BITSFR29             0      0       0      30        0.0%
SFR29                0      0       0      30        0.0%
BITBANK13           50      0       0      31        0.0%
BITSFR30             0      0       0      31        0.0%
SFR30                0      0       0      31        0.0%
BANK13              50      0       0      32        0.0%
BITSFR31             0      0       0      32        0.0%
SFR31                0      0       0      32        0.0%
BITBANK14           50      0       0      33        0.0%
BITSFR32             0      0       0      33        0.0%
SFR32                0      0       0      33        0.0%
BANK14              50      0       0      34        0.0%
BITSFR33             0      0       0      34        0.0%
SFR33                0      0       0      34        0.0%
BITBANK15           50      0       0      35        0.0%
BITSFR34             0      0       0      35        0.0%
SFR34                0      0       0      35        0.0%
BANK15              50      0       0      36        0.0%
BITSFR35             0      0       0      36        0.0%
SFR35                0      0       0      36        0.0%
BITBANK16           50      0       0      37        0.0%
BITSFR36             0      0       0      37        0.0%
SFR36                0      0       0      37        0.0%
BANK16              50      0       0      38        0.0%
BITSFR37             0      0       0      38        0.0%
SFR37                0      0       0      38        0.0%
BITBANK17           50      0       0      39        0.0%
BITSFR38             0      0       0      39        0.0%
SFR38                0      0       0      39        0.0%
BANK17              50      0       0      40        0.0%
BITSFR39             0      0       0      40        0.0%
SFR39                0      0       0      40        0.0%
BITBANK18           50      0       0      41        0.0%
BITSFR40             0      0       0      41        0.0%
SFR40                0      0       0      41        0.0%
BANK18              50      0       0      42        0.0%
BITSFR41             0      0       0      42        0.0%
SFR41                0      0       0      42        0.0%
BITBANK19           50      0       0      43        0.0%
BITSFR42             0      0       0      43        0.0%
SFR42                0      0       0      43        0.0%
BANK19              50      0       0      44        0.0%
BITSFR43             0      0       0      44        0.0%
SFR43                0      0       0      44        0.0%
BITBANK20           50      0       0      45        0.0%
BITSFR44             0      0       0      45        0.0%
SFR44                0      0       0      45        0.0%
BANK20              50      0       0      46        0.0%
BITSFR45             0      0       0      46        0.0%
SFR45                0      0       0      46        0.0%
BITBANK21           50      0       0      47        0.0%
BITSFR46             0      0       0      47        0.0%
SFR46                0      0       0      47        0.0%
BANK21              50      0       0      48        0.0%
BITSFR47             0      0       0      48        0.0%
SFR47                0      0       0      48        0.0%
BITBANK22           50      0       0      49        0.0%
BITSFR48             0      0       0      49        0.0%
SFR48                0      0       0      49        0.0%
BANK22              50      0       0      50        0.0%
BITSFR49             0      0       0      50        0.0%
SFR49                0      0       0      50        0.0%
BITBANK23           50      0       0      51        0.0%
BITSFR50             0      0       0      51        0.0%
SFR50                0      0       0      51        0.0%
BANK23              50      0       0      52        0.0%
BITSFR51             0      0       0      52        0.0%
SFR51                0      0       0      52        0.0%
BITBANK24           50      0       0      53        0.0%
BITSFR52             0      0       0      53        0.0%
SFR52                0      0       0      53        0.0%
BANK24              50      0       0      54        0.0%
BITSFR53             0      0       0      54        0.0%
SFR53                0      0       0      54        0.0%
BITBANK25           20      0       0      55        0.0%
BITSFR54             0      0       0      55        0.0%
SFR54                0      0       0      55        0.0%
BANK25              20      0       0      56        0.0%
BITSFR55             0      0       0      56        0.0%
SFR55                0      0       0      56        0.0%
BITSFR56             0      0       0      57        0.0%
SFR56                0      0       0      57        0.0%
DATA                 0      0      EB      57        0.0%
BITSFR57             0      0       0      58        0.0%
SFR57                0      0       0      58        0.0%
BITSFR58             0      0       0      59        0.0%
SFR58                0      0       0      59        0.0%
BITSFR59             0      0       0      60        0.0%
SFR59                0      0       0      60        0.0%
BITSFR60             0      0       0      61        0.0%
SFR60                0      0       0      61        0.0%
BITSFR61             0      0       0      62        0.0%
SFR61                0      0       0      62        0.0%
BITSFR62             0      0       0      63        0.0%
SFR62                0      0       0      63        0.0%
BITSFR63             0      0       0      64        0.0%
SFR63                0      0       0      64        0.0%


Microchip Technology PIC Macro Assembler V2.30 build 20200825195618 
Symbol Table                                                                                   Wed Jul 07 13:28:11 2021

                                    l65 0705                                      l82 0F5D  
                                    l91 07BF                                      l85 0F81  
                                    l88 0F8D                                      l99 075A  
                   ??_Interrupt_Handler 0076            __size_of_I2C1_GetCommandData 0021  
                                   l220 07DE                                     l226 0F6D  
                                   l229 0FE9                       ??_I2C1_GetCommand 0020  
                                   l721 04A3                                     l731 04EA  
                                   l723 04B1                                     l803 0719  
                                   l804 0730                                     l812 0609  
                                   l821 06DA                                     l733 04F8  
                                   l725 04BF                                     l901 0FA6  
                                   l742 0530                                     l718 0493  
                                   l814 0601                                     l830 02F9  
                                   l735 0506                                     l727 04CD  
                                   l808 05D7                                     l737 0514  
                                   l729 04DB                                     l745 0F67  
                                   l833 0FA7                                     l809 05C7  
                                   l762 0780                                     l818 0609  
                                   l826 02F7                                     l739 0522  
                                   l748 077D                                     l764 0782  
                                   l828 02F1                                     l837 0FB4  
                                   l790 079E                                     l766 0784  
                                   l759 07FF                                     l793 0F61  
                                   l796 0706                                     l789 0798  
                                   l877 03DE                                     l798 0708  
                                   l899 0F9A                                     _LDR 00A7  
                                   mcp0 07B5                                     _lux 00A4  
               __size_of_PMD_Initialize 0013                                     wreg 0009  
                          ___ftdiv@cntr 0036                        __end_of_I2C1_ISR 06AC  
                      __end_of_I2C2_ISR 01DE                            ___ftdiv@sign 003B  
                                  l1313 0492                                    l3100 0537  
                                  l1261 05A5                                    l3110 0556  
                                  l3102 053E                                    l3200 0766  
                                  l3120 057D                                    l1272 0583  
                                  l3112 055A                                    l1273 058D  
                                  l1265 056A                                    l3210 076B  
                                  l3202 0767                                    l1274 05A5  
                                  l3122 0587                                    l3114 0564  
                                  l3106 0545                                    l3130 06DD  
                                  l3300 0F84                                    l3220 0771  
                                  l3212 076D                                    l3204 0768  
                                  l3124 058F                                    l3116 0571  
                                  l3108 054F                                    l3140 06F6  
                                  l3132 06E5                                    l3302 0F8C  
                                  l3230 0778                                    l3222 0772  
                                  l3214 076E                                    l3206 0769  
                                  l3126 059F                                    l3118 0579  
                                  l3150 0701                                    l3142 06F7  
                                  l3134 06F0                                    l3304 07A1  
                                  l3232 077B                                    l3224 0773  
                                  l3216 076F                                    l3208 076A  
                                  l3240 0718                                    l3400 05D1  
                                  l3128 05A4                                    l3152 0702  
                                  l3144 06FA                                    l3136 06F2  
                                  l3160 0F68                                    l3306 07B6  
                                  l3226 0774                                    l3218 0770  
                                  l3170 04CB                                    l3162 0495  
                                  l3234 07F9                                    l3242 0FA9  
                                  l3410 05E6                                    l3402 05D3  
                                  l3154 0703                                    l3146 06FE  
                                  l3138 06F4                                    l3330 07CD  
                                  l3322 07C2                                    l3228 0777  
                                  l3180 0512                                    l3172 04D9  
                                  l3164 04A1                                    l3236 0709  
                                  l3244 0FB2                                    l3420 05FE  
                                  l3412 05EB                                    l3404 05DC  
                                  l3260 0418                                    l3252 03FA  
                                  l1476 0FFF                                    l3148 0700  
                                  l3156 0FD7                                    l3340 07D4  
                                  l3332 07CE                                    l3324 07C8  
                                  l3510 0731                                    l3430 06D0  
                                  l3190 075E                                    l3182 0520  
                                  l3174 04E8                                    l3166 04AF  
                                  l3350 077E                                    l3238 0716  
                                  l3422 0602                                    l3414 05F0  
                                  l3406 05E1                                    l3270 0448  
                                  l3262 041D                                    l3254 040B  
                                  l3246 03E1                                    l3158 0FDA  
                                  l3342 07D6                                    l3334 07D0  
                                  l3326 07CA                                    l3520 0755  
                                  l3512 0732                                    l3192 0761  
                                  l3184 052E                                    l3176 04F6  
                                  l3168 04BD                                    l3360 078E  
                                  l3352 0785                                    l3416 05F5  
                                  l3408 05E4                                    l3424 0605  
                                  l3280 046E                                    l3272 0453  
                                  l3264 042D                                    l3248 03F3  
                                  l3440 022F                                    l3432 01DE  
                                  l3344 07D8                                    l3336 07D1  
                                  l3328 07CC                                    l3522 0759  
                                  l3514 0744                                    l3426 06AC  
                                  l3194 0763                                    l3178 0504  
                                  l3186 0F62                                    l3370 0794  
                                  l3362 078F                                    l3354 0788  
                                  l3418 05FA                                    l3098 0531  
                                  l3282 0474                                    l3274 0459  
                                  l3266 043D                                    l3258 0412  
                                  l3450 029D                                    l3442 024C  
                                  l3434 01E4                                    l3346 07DC  
                                  l3338 07D2                                    l3530 031F  
                                  l3292 0F5B                                    l3516 0748  
                                  l3428 06C6                                    l3196 0764  
                                  l3188 075B                                    l3372 0795  
                                  l3364 0791                                    l3356 078A  
                                  l3380 05AC                                    l3284 047A  
                                  l3276 0467                                    l3268 0441  
                                  l3452 02B3                                    l3436 01EC  
                                  l3444 0274                                    l3348 07DD  
                                  l3460 0F9A                                    l3540 0349  
                                  l3532 032B                                    l3524 02FA  
                                  l3518 074F                                    l3198 0765  
                                  l3374 0796                                    l3366 0792  
                                  l3358 078C                                    l3390 05BE  
                                  l3382 05B1                                    l3278 046D  
                                  l3454 02D0                                    l3446 027A  
                                  l3438 0207                                    l3550 0375  
                                  l3542 034F                                    l3534 0333  
                                  l3526 0304                                    l3296 0F7A  
                                  l3368 0793                                    l3392 05C0  
                                  l3384 05B2                                    l3376 0F5E  
                                  l3288 0FEA                                    l3448 0282  
                                  l3456 02E6                                    l3560 039A  
                                  l3552 037C                                    l3544 035A  
                                  l3536 0338                                    l3528 030D  
                                  l3394 05C4                                    l3386 05B7  
                                  l3378 05A6                                    l3458 02EC  
                                  l3562 03A3                                    l3554 0385  
                                  l3546 0360                                    l3538 033E  
                                  l3570 03C6                                    l3396 05CB  
                                  l3388 05BB                                    l3564 03AC  
                                  l3556 038D                                    l3548 036B  
                                  l3398 05CE                                    l3566 03B3  
                                  l3558 0396                                    u2000 05CB  
                                  u2001 05CA                                    u2010 05DC  
                                  u2011 05DB                                    u2020 05EB  
                                  u2100 0FA4                                    u2021 05EA  
                                  u2101 0FA1                                    u2030 05F0  
                                  u2031 05EF                                    u2040 05F5  
                                  u2200 0395                                    u2041 05F4  
                                  u2201 0394                                    u2050 05FA  
                                  u2114 0FA6                                    u2210 03B3  
                                  u2051 05F9                                    u2211 03B2  
                                  u2060 01E4                                    u2061 01E3  
                                  _LATA 0018                                    u2070 027A  
                                  _LATB 0019                                    u2071 0279  
                                  _LATC 001A                                    u2160 074F  
                                  u2080 02EC                                    u2161 074E  
                                  u2081 02EB                                    u2170 0755  
                                  u2090 02F1                                    u2171 0754  
                                  u2307 04D3                                    u2091 02F0  
                                  u2227 0380                                    u2180 0333  
                                  u2317 04E1                                    u2237 039E  
                                  u2181 0332                                    u2190 038D  
                                  u2327 04F0                                    u2247 0FAD  
                                  u2191 038C                                    u1800 0583  
                                  u1720 0537                                    u2337 04FE  
                                  u2257 070F                                    u1801 0582  
                                  u1721 0536                                    u1810 0587  
                                  u1730 053E                                    u2347 050C  
                                  u2267 049B                                    u1811 0586  
                                  u1731 053D                                    u1820 0597  
                                  u2357 051A                                    u2277 04A9  
                                  u1830 05A4                                    u1750 0555  
                                  u1910 047A                                    u2367 0528  
                                  u2287 04B7                                    u1831 05A3  
                                  u1751 0554                                    u1911 0479  
                                  u1920 0F80                                    u1840 03F3  
                                  u1921 0F7E                                    u2297 04C5  
                                  u1825 0594                                    u1745 054A  
                                  u1905 046F                                    u1841 03F2  
                                  u1930 0F81                                    u1770 0570  
                                  u1850 040B                                    u1771 056F  
                                  u1851 040A                                    u1860 0427  
                                  u1765 0565                                    u1790 057D  
                                  u1870 0437                                    u1791 057C  
                                  u1785 0574                                    u1865 0424  
                                  u1970 05AC                                    u1890 0467  
                                  u1971 05AB                                    u1891 0466  
                                  u1875 0434                                    u1980 05B1  
                                  _PMD0 0796                                    u1981 05B0  
                                  u1885 0454                                    _PMD1 0797  
                                  u1990 05B7                                    _PMD2 0798  
                                  u1991 05B6                                    u1895 0463  
                                  _PMD3 0799                                    _PMD4 079A  
                                  _PMD5 079B                                    _PMD6 079C  
                                  _PMD7 079D                                    i1l71 06A5  
                                  i1l74 0699                                    i1l75 0695  
                                  i1l68 067D                                    i1l79 06AB  
                         ??_Enter_sleep 0020               __end_of_Interrupt_Handler 0043  
                      __end_of_ADCC_ISR 0FC4                                    _main 02FA  
                          ___ftpack@arg 0020                            ___ftpack@exp 0023  
                                  mcp0b 07A6                                    mcp0z 07B6  
                                  fsr0h 0005                                    fsr1h 0007  
                                  indf0 0000                                    fsr0l 0004  
                                  indf1 0001                                    fsr1l 0006  
                                  btemp 007E                             main@retries 01B4  
                      __end_of_ADC_Init 077E                      __size_of_LED_Blink 009E  
                                  start 0043                     _I2C1_StatusCallback 060A  
                       __end_of_Measure 0731                              _i2c2_state 0051  
        __size_of_OSCILLATOR_Initialize 0006           __end_of_OSCILLATOR_Initialize 0F6E  
                     Power_GetData@data 0020                                   _ADCAP 010E  
                                 _ADACT 0117                                   ?_main 0070  
                                 _ADCLK 0118                                   _ADCNT 0099  
                                 _ADPCH 009F                                   _ADREF 0116  
                                 _ADRPT 009A                       __end_of_I2C2_Stop 07F9  
                       __end_of___ftdiv 0493                                   i1l122 065C  
                                 i1l108 060C          __size_of_I2C2_FunctionComplete 0013  
                                 i1l150 001D                                   i1l152 0029  
                                 i1l153 0041                                   i1l154 0035  
                                 i1l403 0FC3                                   i1l500 00B5  
                                 i1l165 0002                                   i1l502 00BD  
                                 i1l503 00C0                                   i1l159 0041  
                                 i1l409 0F57                                   i1l531 01A3  
                                 i1l523 015A                                   i1l540 0FD6  
                                 i1l508 00E7                                   i1l509 00F6  
                                 i1l526 0169                                   i1l527 017A  
                                 i1l519 0132                                   i1l544 07F8  
                                 i1l538 0FD4                                   i1l495 01DD  
                                 i1l497 008B                                   i1l587 0F5A  
         __end_of_I2C2_FunctionComplete 0FD7                                   u194m0 07B0  
                                 u194m1 07B6                                   _TRISA 0012  
                                 _TRISB 0013                                   _TRISC 0014  
                                 u99_20 061E                                   u99_21 061D  
                      _generateIntPower 0FA7                       ??_I2C1_Initialize 0020  
              Power_SetThreshold@metric 003C                    ?_I2C1_StatusCallback 0070  
                                 _mData 00D3                                   _rxLen 0078  
                                 _txCnt 0077                           ___ftpack@sign 0024  
                                 _txLen 0053                        __end_of_WDT_Init 0F68  
                                 pclath 000A                   _batThresholdLevelHigh 00C8  
                                 status 0003                       _underThresholdLDR 00CF  
                                 wtemp0 007E                     __end_of_Enter_sleep 0800  
                       __initialization 0045                            __end_of_main 03E1  
            _floatLDRThresholdLevelHigh 00B3                                  ??_main 0043  
                           _i2c2_object 0045            __end_of_I2C1_SetTransmitData 075B  
                     __end_of_LED_Blink 0531                   ??_I2C1_StatusCallback 0070  
                    _I2C1_TxBufferEmpty 0F7A                                  _ADACCH 0097  
                                _ADACCL 0096                                  _ADACCU 0098  
                                _ADACQH 010D                                  _ADACQL 010C  
                                _ADCON0 0111                                  _ADCON1 0112  
                                _ADCON2 0113                                  _ADCON3 0114  
                                _ADERRH 0091                                  _ADERRL 0090  
                                _ADLTHH 008D                                  _ADLTHL 008C  
                                _ADRESH 009E                                  _ADRESL 009D  
                                _ADPREH 0110                                  _ADPREL 010F  
                                _ADSTAT 0115                                  _ADUTHH 008F  
                                _ADUTHL 008E                                  _ANSELA 1F38  
                                _ANSELB 1F43                                  _ANSELC 1F4E  
                      __end_of___ftpack 05A6                                  u100_20 063E  
                                u100_21 063D                                  _RB4PPS 1F1C  
                                u101_20 07EC                                  u101_21 07EB  
                                _RB5PPS 1F1D                                  u102_20 0FCF  
                                u102_21 0FCE              __size_of_Interrupt_Handler 003F  
                                _RB6PPS 1F1E                                  u111_20 0669  
                                u111_21 0668            __end_of_I2C2_BusCollisionISR 0F5B  
                                _RB7PPS 1F1F                                  u112_20 066D  
                                u112_21 066C                                  i1l2420 0615  
                                i1l2430 062C                                  i1l2422 0618  
                                i1l2414 060B                                  i1l2440 064B  
                                i1l2424 061E                                  i1l2432 0635  
                                i1l2416 0610                                  u113_20 0671  
                                i1l2600 0665                                  u113_21 0670  
                                i1l2434 0637                                  i1l2426 0627  
                                i1l2418 0614                                  i1l2442 064E  
                                i1l2610 067A                                  i1l2602 0669  
                                i1l2450 07E0                                  i1l2436 063E  
                                i1l2620 0690                                  i1l2612 0681  
                                i1l2604 066D                                  i1l2460 0FCF  
                                i1l2452 07E2                                  i1l2700 00D7  
                                i1l2438 0646                                  i1l2622 069E  
                                i1l2614 0686                                  i1l2606 0671  
                                i1l2454 07EC                                  i1l2710 00F7  
                                i1l2702 00DB                                  u122_20 0FBE  
                                i1l2616 068A                                  u114_20 0681  
                                i1l2608 0676                                  i1l2456 07F7  
                                i1l2720 0114                                  u130_20 0114  
                                i1l2712 010A                                  i1l2704 00E1  
                                u122_21 0FBD                                  u114_21 0680  
                                u130_21 0113                                  i1l2802 0002  
                                i1l2618 068E                                  i1l2458 0FC4  
                                i1l2722 011B                                  i1l2714 010B  
                                i1l2706 00EC                                  i1l2660 0F58  
                                i1l2740 0128                                  i1l2724 0120  
                                i1l2708 00F1                                  i1l2654 0FB5  
                                i1l2750 013E                                  i1l2742 012C  
                                i1l2718 010F                                  i1l2670 0089  
                                i1l2662 0076                                  i1l2656 0FB7  
                                u115_20 069E                                  i1l2592 065D  
                                i1l2760 015D                                  i1l2752 0143  
                                u131_20 012C                                  i1l2680 009F  
                                i1l2664 007D                                  u123_20 007D  
                                u115_21 069D                                  u131_21 012B  
                                u123_21 007C                                  i1l2658 0FBE  
                                i1l2594 065D                                  i1l2770 017B  
                                i1l2762 0163                                  i1l2754 014B  
                                i1l2746 0137                                  i1l2738 0125  
                                i1l2690 00B7                                  i1l2682 00A3  
                                i1l2674 008F                                  i1l2666 007E  
                                i1l2596 065F                                  i1l2780 0195  
                                i1l2772 0181                                  i1l2764 016E  
                                i1l2756 0155                                  i1l2748 013C  
                                i1l2684 00A9                                  i1l2676 0093  
                                i1l2668 0080                                  i1l2598 0660  
                                i1l2790 01AB                                  i1l2782 019B  
                                i1l2774 0185                                  i1l2766 0173  
                                i1l2694 00C5                                  i1l2686 00AD  
                                i1l2678 009A                                  i1l2950 000C  
                                u116_20 06A5                                  i1l2792 01B0  
                                i1l2784 019D                                  i1l2776 0188  
                                i1l2768 0177                                  u132_20 0137  
                                i1l2696 00CA                                  i1l2688 00B4  
                                u124_20 008F                                  i1l2960 0025  
                                i1l2952 0010                                  u116_21 06A4  
                                u132_21 0136                                  u124_21 008E  
                                i1l2794 01B4                                  i1l2786 01A5  
                                i1l2778 0191                                  i1l2698 00CF  
                                i1l2962 002D                                  i1l2954 0015  
                                i1l2788 01A8                                  i1l2964 0031  
                                i1l2956 0019                                  i1l2948 0006  
                                i1l2798 01B9                                  i1l2966 0039  
                                i1l2958 0021                                  u133_20 014B  
                                u125_20 00A9                                  i1l2968 003D  
                                u133_21 014A                                  u125_21 00A8  
                                u134_20 0155                                  u126_20 00B4  
                                u134_21 0154                                  u126_21 00B3  
                                u135_20 016E                                  u127_20 00C5  
                                u135_21 016D                                  u127_21 00C4  
                                u136_20 019B                                  u128_20 00DB  
                                u160_20 0039                                  u136_21 019A  
                                u128_21 00DA                                  u160_21 0038  
                                _INLVLB 1F47                                  u129_20 00EC  
                                u161_20 003D                                  u153_20 0010  
                                u129_21 00EB                                  u161_21 003C  
                                u153_21 000F                                  u154_20 0015  
                                u154_21 0014                                  u155_20 0019  
                                _FVRCON 090C                                  u155_21 0018  
                                u156_20 0021                                  u156_21 0020  
                                u157_20 0025                                  u157_21 0024  
                                u158_20 002D                                  u158_21 002C  
                                u159_20 0031                                  u159_21 0030  
                      __end_of___lwtoft 1000                     ?_I2C1_TxBufferEmpty 0070  
                                _OSCFRQ 0893                               ??_Measure 0020  
                       _floatbatvoltage 00AA                          _p_i2c2_current 004F  
                             ??___ftdiv 0032                               ?_I2C1_ISR 0070  
                             ?_I2C2_ISR 0070                    ??_I2C1_TxBufferEmpty 0020  
              I2C2_Stop@completion_code 0071                               ?_ADCC_ISR 0070  
                            _Power_Init 077E                              _Power_Loop 05A6  
                        _PMD_Initialize 0FD7                            __pdataCOMMON 007B  
                             ?_ADC_Init 0070                      _underThresholdBatt 00D1  
                     _SYSTEM_Initialize 07C0                             _Enter_sleep 07F9  
          __end_of_I2C1_CommandReceived 0F5E                     _I2C1_GetCommandData 079F  
               __end_of__initialization 0072                      ?_SYSTEM_Initialize 0070  
                            ___ftdiv@f1 002F                              ___ftdiv@f2 002C  
                            ___ftdiv@f3 0037                      _Power_SetThreshold 01DE  
                       _I2C1_GetCommand 0F82                          _i2c1_rx_buffer 0140  
                        __pcstackCOMMON 0070                     _batThresholdEnabled 004B  
                          __pidataBANK1 0F8E                     ??_SYSTEM_Initialize 0021  
                        _i2c1_tx_buffer 0120               _floatLDRThresholdLevelLow 00B0  
                        _i2c2_trb_count 0050                     _batteryundervoltage 00CC  
                _SensorInterruptHandler 00EC                              ??_I2C1_ISR 0072  
                            ??_I2C2_ISR 0072                     ?_Power_SetThreshold 003C  
                  ?_I2C1_GetCommandData 0020                  __end_of_PMD_Initialize 0FEA  
                I2C1_GetCommandData@len 0020                               ?_WDT_Init 0070  
                            ___lwtoft@c 0028                              ??_ADCC_ISR 0070  
                       _floatldrvoltage 00AD                              ??_ADC_Init 0020  
                 __end_of_Power_GetData 06DB               __end_of_SYSTEM_Initialize 07DF  
                            __pbssBANK0 0045                              __pbssBANK1 00A0  
                            __pbssBANK2 0120                   __end_of_Power_Measure 0F62  
                  ??_Power_SetThreshold 003E                    _I2C1_SetTransmitData 0731  
              __end_of_generateIntPower 0FB5                              __pmaintext 02FA  
                            _batvoltage 00BC                     Power_GetData@length 0021  
                            __pintentry 0004                         _I2C1_Initialize 06DB  
                               _ADFLTRH 0095                                 _ADFLTRL 0094  
                 ??_I2C1_GetCommandData 0021                                 _ADPREVH 009C  
                               _ADPREVL 009B                               ?___ftpack 0020  
                               _ADSTPTH 0093                                 _ADSTPTL 0092  
                  _I2C2_BusCollisionISR 0F58                              ??_WDT_Init 0020  
                       ?_PMD_Initialize 0070                               ?___lwtoft 0028  
                           ?_Power_Init 0070                             ?_Power_Loop 0070  
          I2C1_Initialize@slave_address 0020       I2C1_StatusCallback@slaveWriteType 0052  
     I2C2_ISR@i2c_10bit_address_restart 004C                                 _OSCCON1 088D  
                    __size_of_toggleInt 000D                               _I2C2_Stop 07DF  
                               _SSP1ADD 018D                                 _SSP2ADD 0197  
                               _WDTCON0 080C                                 _SSP1BUF 018C  
                               _WDTCON1 080D                                 _SSP2BUF 0196  
                               _SSP1MSK 018E                 __end_of_I2C1_GetCommand 0F8E  
                I2C2_MasterRead@trBlock 00D7                                 _Measure 0706  
                 ?_I2C1_SetTransmitData 0020                                 ___ftdiv 03E1  
                               _cmdByte 0055                   ?_I2C2_BusCollisionISR 0070  
                            ??___ftpack 0025                                 __ptext1 0F9A  
                               __ptext2 07C0                                 __ptext3 0FD7  
                               __ptext4 0F68                                 __ptext5 06DB  
                               __ptext6 01DE                                 __ptext7 0FEA  
                               __ptext8 03E1                                 __ptext9 0531  
                  _I2C1_CommandReceived 0F5B                              ??___lwtoft 002B  
                 _OSCILLATOR_Initialize 0F68                              _ldrvoltage 00C0  
                            ?_I2C2_Stop 0070                   _I2C2_FunctionComplete 0FC4  
                               main@ack 01B5                               _LED_Blink 0493  
                               main@cmd 01B8              __size_of_SYSTEM_Initialize 001F  
                               main@len 01B9                                 main@mnr 01B7  
                               clrloop0 0F6F                    end_of_initialization 0072  
                               init_ram 0F74                                 initloop 0F75  
                           I2C1_ISR@ctr 0073                     __size_of_Power_Init 0021  
               __end_of_I2C1_Initialize 0706                     __size_of_Power_Loop 0064  
                      _startMeasurement 00CE         ??_DefaultSensorInterruptHandler 0070  
                     __end_of_toggleInt 0FA7                      _p_i2c2_trb_current 0076  
                I2C2_ISR@i2c_bytes_left 004D              _floatBatThresholdLevelHigh 00B9  
           __end_of_I2C1_StatusCallback 065D                   ?_I2C1_CommandReceived 0070  
                     __size_of_I2C1_ISR 004F                       __size_of_I2C2_ISR 0168  
                           _mDataLength 0056                       __size_of_ADCC_ISR 000F  
                             _TRISAbits 0012                               _TRISBbits 0013  
                             _TRISCbits 0014         Power_SetThreshold@thresholdData 003D  
                     __size_of_ADC_Init 0023                              ?_LED_Blink 0070  
                          ?_Enter_sleep 0070                        ?_I2C1_GetCommand 0070  
                ??_I2C1_SetTransmitData 0023                             ___ftdiv@exp 003A  
                ??_I2C2_BusCollisionISR 0070          ??_ADCC_DefaultInterruptHandler 0070  
                         __pidataCOMMON 0003             __size_of_I2C1_TxBufferEmpty 0008  
                ?_OSCILLATOR_Initialize 0070                    _batThresholdLevelLow 00C6  
                     __size_of_WDT_Init 0006                  ?_I2C2_FunctionComplete 0070  
                    _measurementRunning 00CD                     start_initialization 0045  
                           ??_I2C2_Stop 0070                 I2C1_GetCommandData@data 0022  
                      ?_I2C1_Initialize 0070                       ?_generateIntPower 0070  
                      ??_PMD_Initialize 0020                        I2C1_ISR@i2c_data 0074  
              I2C1_SetTransmitData@data 0020                    I2C2_ISR@pi2c_buf_ptr 004E  
                    ??_generateIntPower 0020                             __pdataBANK1 00E2  
                ??_I2C1_CommandReceived 0020   __end_of_DefaultSensorInterruptHandler 0003  
__size_of_DefaultSensorInterruptHandler 0001           _DefaultSensorInterruptHandler 0002  
                          ??_Power_Init 0022                            ??_Power_Loop 0022  
                     __size_of___ftpack 0075                             _cmdReceived 0054  
                           __pbssCOMMON 0076                               ___latbits 0003  
                     __size_of___lwtoft 0016                           __pcstackBANK0 0020  
                         __pcstackBANK3 01A0        I2C1_StatusCallback@i2c_bus_state 0071  
                           ??_LED_Blink 0020                           _i2c2_tr_queue 00DF  
           __size_of_Power_SetThreshold 011C                                ?_Measure 0070  
                    __end_of_Power_Init 079F                      __end_of_Power_Loop 060A  
           __end_of_I2C1_GetCommandData 07C0                                ?___ftdiv 002C  
                __size_of_Power_GetData 002F                                _I2C1_ISR 065D  
                              _I2C2_ISR 0076                  __size_of_Power_Measure 0004  
                              _ADCC_ISR 0FB5                                _ADC_Init 075B  
                           _CPUDOZEbits 088C                                _LATAbits 0018  
                              _LATBbits 0019                                _LATCbits 001A  
                             clear_ram0 0F6E                    __size_of_Enter_sleep 0007  
                              _PIE1bits 0717                                _PIE3bits 0719  
                     _overThresholdBatt 00D2                                _PMD0bits 0796  
                              _PMD3bits 0799                                _PMD6bits 079C  
                              _PIR1bits 070D                                _PIR3bits 070F  
                             _tempValue 00BE                               _sensorAPI 00E2  
                              _SSP1CON1 0190                                _SSP1CON2 0191  
                              _SSP1CON3 0192                                _SSP2CON1 019A  
                              _SSP2CON3 019C                                _SSP1STAT 018F  
                              _SSP2STAT 0199                               _toggleInt 0F9A  
                   _I2C1_slaveWriteData 007B                                _WDT_Init 0F62  
                            _ADCON0bits 0111                              _ADCON1bits 0112  
                            _ADCON2bits 0113                              _ADCON3bits 0114  
        ?_DefaultSensorInterruptHandler 0070                           _Power_GetData 06AC  
                         _Power_Measure 0F5E                   _ldrThresholdLevelHigh 00C4  
                            _ADSTATbits 0115                        __size_of_Measure 002B  
               I2C1_SetTransmitData@len 0022                 ??_OSCILLATOR_Initialize 0020  
                      __size_of___ftdiv 00B2                              ?_toggleInt 0070  
                              ___ftpack 0531                 ??_I2C2_FunctionComplete 0070  
                            _ANSELAbits 1F38                                ___lwtoft 0FEA  
                            _ANSELBbits 1F43                              _ANSELCbits 1F4E  
          __size_of_I2C1_StatusCallback 0053                          ?_Power_GetData 0020  
                              __ptext10 0F5E                                __ptext11 05A6  
                              __ptext20 0F7A                                __ptext12 0FA7  
                              __ptext21 0731                                __ptext13 0706  
                              __ptext30 065D                                __ptext22 079F  
                              __ptext14 07F9                                __ptext31 060A  
                              __ptext23 0F82                                __ptext15 077E  
                              __ptext32 0002                                __ptext24 0F5B  
                              __ptext16 0F62                                __ptext33 0FB5  
                              __ptext17 0493                                __ptext34 0F57  
                              __ptext26 0076                                __ptext18 075B  
                              __ptext27 07DF                                __ptext19 06AC  
                              __ptext28 0FC4                                __ptext29 0F58  
                          _SSP1CON1bits 0190                            _SSP1CON2bits 0191  
                          _SSP1CON3bits 0192                            _SSP2CON1bits 019A  
                          _SSP2CON2bits 019B                          ?_Power_Measure 0070  
                         __size_of_main 00E7           __size_of_I2C1_SetTransmitData 002A  
                      _overThresholdLDR 00D0               _ADCC_ADI_InterruptHandler 00CA  
              __size_of_I2C1_GetCommand 000C                                int$flags 007E  
            __end_of_I2C1_TxBufferEmpty 0F82                                main@data 01A0  
               I2C2_MasterWrite@trBlock 00DB                            _SSP1STATbits 018F  
                              main@type 01B6           __size_of_I2C2_BusCollisionISR 0003  
                    I2C1_GetCommand@cmd 0021                    _ldrThresholdLevelLow 00C2  
                            _INTCONbits 000B               __size_of_generateIntPower 000E  
  __end_of_ADCC_DefaultInterruptHandler 0F58   __size_of_ADCC_DefaultInterruptHandler 0001  
          _ADCC_DefaultInterruptHandler 0F57                                intlevel1 0000  
                   I2C2_ISR@i2c_address 0079                             _WDTCON0bits 080C  
                   _ldrThresholdEnabled 004A                         _measurementData 00A0  
                           ??_toggleInt 0020               _floatBatThresholdLevelLow 00B6  
              __size_of_I2C1_Initialize 002B           __size_of_I2C1_CommandReceived 0003  
                            _SSP1DATPPS 1EC6                              _SSP2DATPPS 1EC9  
                            _SSP1CLKPPS 1EC5                              _SSP2CLKPPS 1EC8  
                       ??_Power_GetData 0022                             _VREGCONbits 0812  
        SYSTEM_Initialize@slave_address 0021                         ??_Power_Measure 0020  
            __end_of_Power_SetThreshold 02FA           ?_ADCC_DefaultInterruptHandler 0070  
                    __size_of_I2C2_Stop 001A                              _STATUSbits 0003  
                     _Interrupt_Handler 0004                      ?_Interrupt_Handler 0070  
