

Microchip MPLAB XC8 Assembler V2.30 build 20200825195618 
                                                                                               Thu Nov 19 17:57:06 2020

Microchip MPLAB XC8 C Compiler v2.30 (Free license) build 20200825195618 Og1 
     1                           	processor	16F18446
     2                           	pagewidth 120
     3                           	opt	flic
     4                           	psect	idataCOMMON,global,class=CODE,delta=2,noexec
     5                           	psect	idataBANK0,global,class=CODE,delta=2,noexec
     6                           	psect	cinit,global,class=CODE,merge=1,delta=2
     7                           	psect	bssCOMMON,global,class=COMMON,space=1,delta=1,noexec
     8                           	psect	dataCOMMON,global,class=COMMON,space=1,delta=1,noexec
     9                           	psect	bssBANK0,global,class=BANK0,space=1,delta=1,noexec
    10                           	psect	dataBANK0,global,class=BANK0,space=1,delta=1,noexec
    11                           	psect	bssBANK1,global,class=BANK1,space=1,delta=1,noexec
    12                           	psect	inittext,global,class=CODE,delta=2
    13                           	psect	clrtext,global,class=CODE,delta=2
    14                           	psect	cstackCOMMON,global,class=COMMON,space=1,delta=1,noexec
    15                           	psect	cstackBANK0,global,class=BANK0,space=1,delta=1,noexec
    16                           	psect	maintext,global,class=CODE,merge=1,split=1,delta=2
    17                           	psect	text1,local,class=CODE,merge=1,delta=2
    18                           	psect	text2,local,class=CODE,merge=1,delta=2
    19                           	psect	text3,local,class=CODE,merge=1,delta=2
    20                           	psect	text4,local,class=CODE,merge=1,delta=2
    21                           	psect	text5,local,class=CODE,merge=1,delta=2
    22                           	psect	text6,local,class=CODE,merge=1,delta=2
    23                           	psect	text7,local,class=CODE,merge=1,delta=2
    24                           	psect	text8,local,class=CODE,merge=1,delta=2
    25                           	psect	text9,local,class=CODE,merge=1,delta=2
    26                           	psect	text10,local,class=CODE,merge=1,delta=2
    27                           	psect	text11,local,class=CODE,merge=1,delta=2
    28                           	psect	text12,local,class=CODE,merge=1,delta=2
    29                           	psect	text13,local,class=CODE,merge=1,delta=2
    30                           	psect	text14,local,class=CODE,merge=1,delta=2
    31                           	psect	text15,local,class=CODE,merge=1,delta=2
    32                           	psect	text16,local,class=CODE,merge=1,delta=2
    33                           	psect	text17,local,class=CODE,merge=1,delta=2
    34                           	psect	text18,local,class=CODE,merge=1,delta=2
    35                           	psect	intentry,global,class=CODE,delta=2
    36                           	psect	text20,local,class=CODE,merge=1,delta=2
    37                           	psect	text21,local,class=CODE,merge=1,delta=2
    38                           	psect	text22,local,class=CODE,merge=1,delta=2
    39                           	psect	text23,local,class=CODE,merge=1,delta=2
    40                           	psect	text24,local,class=CODE,merge=1,delta=2
    41                           	psect	config,global,abs,ovrld,class=CONFIG,space=4,delta=2,noexec
    42                           	dabs	1,0x7E,2
    43  0000                     
    44                           ; Version 2.30
    45                           ; Generated 15/09/2020 GMT
    46                           ; 
    47                           ; Copyright © 2020, Microchip Technology Inc. and its subsidiaries ("Microchip")
    48                           ; All rights reserved.
    49                           ; 
    50                           ; This software is developed by Microchip Technology Inc. and its subsidiaries ("Microch
      +                          ip").
    51                           ; 
    52                           ; Redistribution and use in source and binary forms, with or without modification, are
    53                           ; permitted provided that the following conditions are met:
    54                           ; 
    55                           ;     1. Redistributions of source code must retain the above copyright notice, this lis
      +                          t of
    56                           ;        conditions and the following disclaimer.
    57                           ; 
    58                           ;     2. Redistributions in binary form must reproduce the above copyright notice, this 
      +                          list
    59                           ;        of conditions and the following disclaimer in the documentation and/or other
    60                           ;        materials provided with the distribution. Publication is not required when
    61                           ;        this file is used in an embedded application.
    62                           ; 
    63                           ;     3. Microchip's name may not be used to endorse or promote products derived from th
      +                          is
    64                           ;        software without specific prior written permission.
    65                           ; 
    66                           ; THIS SOFTWARE IS PROVIDED BY MICROCHIP "AS IS" AND ANY EXPRESS OR IMPLIED WARRANTIES,
    67                           ; INCLUDING, BUT NOT LIMITED TO, THE IMPLIED WARRANTIES OF MERCHANTABILITY AND FITNESS F
      +                          OR
    68                           ; PURPOSE ARE DISCLAIMED.  IN NO EVENT SHALL MICROCHIP BE LIABLE FOR ANY DIRECT, INDIREC
      +                          T,
    69                           ; INCIDENTAL, SPECIAL, EXEMPLARY, OR CONSEQUENTIAL DAMAGES (INCLUDING BUT NOT LIMITED TO
    70                           ; PROCUREMENT OF SUBSTITUTE GOODS OR SERVICES; LOSS OF USE, DATA OR PROFITS; OR BUSINESS
    71                           ; INTERRUPTION) HOWSOEVER CAUSED AND ON ANY THEORY OF LIABILITY, WHETHER IN CONTRACT, ST
      +                          RICT
    72                           ; LIABILITY, OR TORT (INCLUDING NEGLIGENCE OR OTHERWISE) ARISING IN ANY WAY OUT OF THE U
      +                          SE OF
    73                           ; THIS SOFTWARE, EVEN IF ADVISED OF THE POSSIBILITY OF SUCH DAMAGE.
    74                           ; 
    75                           ; 
    76                           ; Code-generator required, PIC16F18446 Definitions
    77                           ; 
    78                           ; SFR Addresses
    79  0000                     	;# 
    80  0001                     	;# 
    81  0002                     	;# 
    82  0003                     	;# 
    83  0004                     	;# 
    84  0005                     	;# 
    85  0006                     	;# 
    86  0007                     	;# 
    87  0008                     	;# 
    88  0009                     	;# 
    89  000A                     	;# 
    90  000B                     	;# 
    91  000C                     	;# 
    92  000D                     	;# 
    93  000E                     	;# 
    94  0012                     	;# 
    95  0013                     	;# 
    96  0014                     	;# 
    97  0018                     	;# 
    98  0019                     	;# 
    99  001A                     	;# 
   100  008C                     	;# 
   101  008C                     	;# 
   102  008D                     	;# 
   103  008E                     	;# 
   104  008E                     	;# 
   105  008F                     	;# 
   106  0090                     	;# 
   107  0090                     	;# 
   108  0091                     	;# 
   109  0092                     	;# 
   110  0092                     	;# 
   111  0093                     	;# 
   112  0094                     	;# 
   113  0094                     	;# 
   114  0095                     	;# 
   115  0096                     	;# 
   116  0096                     	;# 
   117  0097                     	;# 
   118  0098                     	;# 
   119  0099                     	;# 
   120  009A                     	;# 
   121  009B                     	;# 
   122  009B                     	;# 
   123  009C                     	;# 
   124  009D                     	;# 
   125  009D                     	;# 
   126  009E                     	;# 
   127  009F                     	;# 
   128  010C                     	;# 
   129  010C                     	;# 
   130  010D                     	;# 
   131  010E                     	;# 
   132  010F                     	;# 
   133  010F                     	;# 
   134  0110                     	;# 
   135  0111                     	;# 
   136  0112                     	;# 
   137  0113                     	;# 
   138  0114                     	;# 
   139  0115                     	;# 
   140  0116                     	;# 
   141  0117                     	;# 
   142  0118                     	;# 
   143  0119                     	;# 
   144  0119                     	;# 
   145  0119                     	;# 
   146  011A                     	;# 
   147  011A                     	;# 
   148  011A                     	;# 
   149  011B                     	;# 
   150  011B                     	;# 
   151  011B                     	;# 
   152  011B                     	;# 
   153  011B                     	;# 
   154  011C                     	;# 
   155  011C                     	;# 
   156  011C                     	;# 
   157  011D                     	;# 
   158  011D                     	;# 
   159  011D                     	;# 
   160  011E                     	;# 
   161  011E                     	;# 
   162  011E                     	;# 
   163  011F                     	;# 
   164  011F                     	;# 
   165  011F                     	;# 
   166  011F                     	;# 
   167  011F                     	;# 
   168  018C                     	;# 
   169  018D                     	;# 
   170  018E                     	;# 
   171  018F                     	;# 
   172  0190                     	;# 
   173  0191                     	;# 
   174  0192                     	;# 
   175  0196                     	;# 
   176  0197                     	;# 
   177  0198                     	;# 
   178  0199                     	;# 
   179  019A                     	;# 
   180  019B                     	;# 
   181  019C                     	;# 
   182  020C                     	;# 
   183  020D                     	;# 
   184  020E                     	;# 
   185  020E                     	;# 
   186  020F                     	;# 
   187  020F                     	;# 
   188  0210                     	;# 
   189  0210                     	;# 
   190  0211                     	;# 
   191  0211                     	;# 
   192  0212                     	;# 
   193  0213                     	;# 
   194  0214                     	;# 
   195  0214                     	;# 
   196  0215                     	;# 
   197  0215                     	;# 
   198  0216                     	;# 
   199  0216                     	;# 
   200  0217                     	;# 
   201  0217                     	;# 
   202  0218                     	;# 
   203  0219                     	;# 
   204  021A                     	;# 
   205  021A                     	;# 
   206  021B                     	;# 
   207  021B                     	;# 
   208  021C                     	;# 
   209  021C                     	;# 
   210  021D                     	;# 
   211  021D                     	;# 
   212  021E                     	;# 
   213  021F                     	;# 
   214  028C                     	;# 
   215  028C                     	;# 
   216  028D                     	;# 
   217  028D                     	;# 
   218  028E                     	;# 
   219  028F                     	;# 
   220  0290                     	;# 
   221  0291                     	;# 
   222  0292                     	;# 
   223  0292                     	;# 
   224  0293                     	;# 
   225  0293                     	;# 
   226  0294                     	;# 
   227  0295                     	;# 
   228  0296                     	;# 
   229  0297                     	;# 
   230  0298                     	;# 
   231  0298                     	;# 
   232  0299                     	;# 
   233  0299                     	;# 
   234  029A                     	;# 
   235  029B                     	;# 
   236  029C                     	;# 
   237  029D                     	;# 
   238  029F                     	;# 
   239  030C                     	;# 
   240  030C                     	;# 
   241  030D                     	;# 
   242  030E                     	;# 
   243  030F                     	;# 
   244  0310                     	;# 
   245  0310                     	;# 
   246  0311                     	;# 
   247  0312                     	;# 
   248  0313                     	;# 
   249  0314                     	;# 
   250  0314                     	;# 
   251  0315                     	;# 
   252  0316                     	;# 
   253  0317                     	;# 
   254  0318                     	;# 
   255  0318                     	;# 
   256  0319                     	;# 
   257  031A                     	;# 
   258  031B                     	;# 
   259  038C                     	;# 
   260  038C                     	;# 
   261  038D                     	;# 
   262  038E                     	;# 
   263  0390                     	;# 
   264  0390                     	;# 
   265  0391                     	;# 
   266  0392                     	;# 
   267  048C                     	;# 
   268  048C                     	;# 
   269  048D                     	;# 
   270  048E                     	;# 
   271  048F                     	;# 
   272  048F                     	;# 
   273  0490                     	;# 
   274  0491                     	;# 
   275  0492                     	;# 
   276  0492                     	;# 
   277  0493                     	;# 
   278  0494                     	;# 
   279  0495                     	;# 
   280  0495                     	;# 
   281  0496                     	;# 
   282  0497                     	;# 
   283  0498                     	;# 
   284  0499                     	;# 
   285  049A                     	;# 
   286  049B                     	;# 
   287  049C                     	;# 
   288  049D                     	;# 
   289  058C                     	;# 
   290  058C                     	;# 
   291  058D                     	;# 
   292  058E                     	;# 
   293  058F                     	;# 
   294  058F                     	;# 
   295  0590                     	;# 
   296  0591                     	;# 
   297  0592                     	;# 
   298  0593                     	;# 
   299  059C                     	;# 
   300  059C                     	;# 
   301  059D                     	;# 
   302  059D                     	;# 
   303  059E                     	;# 
   304  059F                     	;# 
   305  060C                     	;# 
   306  060C                     	;# 
   307  060D                     	;# 
   308  060D                     	;# 
   309  060E                     	;# 
   310  060F                     	;# 
   311  0610                     	;# 
   312  0611                     	;# 
   313  0612                     	;# 
   314  0613                     	;# 
   315  0614                     	;# 
   316  0616                     	;# 
   317  0616                     	;# 
   318  0617                     	;# 
   319  0617                     	;# 
   320  0618                     	;# 
   321  0619                     	;# 
   322  061A                     	;# 
   323  061B                     	;# 
   324  061C                     	;# 
   325  061D                     	;# 
   326  061E                     	;# 
   327  070C                     	;# 
   328  070D                     	;# 
   329  070E                     	;# 
   330  070F                     	;# 
   331  0710                     	;# 
   332  0711                     	;# 
   333  0712                     	;# 
   334  0713                     	;# 
   335  0714                     	;# 
   336  0716                     	;# 
   337  0717                     	;# 
   338  0718                     	;# 
   339  0719                     	;# 
   340  071A                     	;# 
   341  071B                     	;# 
   342  071C                     	;# 
   343  071D                     	;# 
   344  071E                     	;# 
   345  0796                     	;# 
   346  0797                     	;# 
   347  0798                     	;# 
   348  0799                     	;# 
   349  079A                     	;# 
   350  079B                     	;# 
   351  079C                     	;# 
   352  079D                     	;# 
   353  080C                     	;# 
   354  080D                     	;# 
   355  080E                     	;# 
   356  080F                     	;# 
   357  0810                     	;# 
   358  0811                     	;# 
   359  0812                     	;# 
   360  0813                     	;# 
   361  0814                     	;# 
   362  081A                     	;# 
   363  081A                     	;# 
   364  081B                     	;# 
   365  081C                     	;# 
   366  081C                     	;# 
   367  081D                     	;# 
   368  081E                     	;# 
   369  081F                     	;# 
   370  088C                     	;# 
   371  088D                     	;# 
   372  088E                     	;# 
   373  088F                     	;# 
   374  0890                     	;# 
   375  0891                     	;# 
   376  0892                     	;# 
   377  0893                     	;# 
   378  0895                     	;# 
   379  0896                     	;# 
   380  0897                     	;# 
   381  0898                     	;# 
   382  0899                     	;# 
   383  089A                     	;# 
   384  089B                     	;# 
   385  090C                     	;# 
   386  090E                     	;# 
   387  090F                     	;# 
   388  091F                     	;# 
   389  098F                     	;# 
   390  098F                     	;# 
   391  0990                     	;# 
   392  0991                     	;# 
   393  0992                     	;# 
   394  0993                     	;# 
   395  0994                     	;# 
   396  0995                     	;# 
   397  0996                     	;# 
   398  0997                     	;# 
   399  1E0F                     	;# 
   400  1E10                     	;# 
   401  1E11                     	;# 
   402  1E12                     	;# 
   403  1E13                     	;# 
   404  1E14                     	;# 
   405  1E15                     	;# 
   406  1E16                     	;# 
   407  1E17                     	;# 
   408  1E18                     	;# 
   409  1E19                     	;# 
   410  1E1A                     	;# 
   411  1E1B                     	;# 
   412  1E1C                     	;# 
   413  1E1D                     	;# 
   414  1E1E                     	;# 
   415  1E1F                     	;# 
   416  1E20                     	;# 
   417  1E21                     	;# 
   418  1E22                     	;# 
   419  1E23                     	;# 
   420  1E24                     	;# 
   421  1E25                     	;# 
   422  1E26                     	;# 
   423  1E27                     	;# 
   424  1E28                     	;# 
   425  1E29                     	;# 
   426  1E2A                     	;# 
   427  1E2B                     	;# 
   428  1E2C                     	;# 
   429  1E2D                     	;# 
   430  1E2E                     	;# 
   431  1E2F                     	;# 
   432  1E30                     	;# 
   433  1E31                     	;# 
   434  1E32                     	;# 
   435  1E33                     	;# 
   436  1E34                     	;# 
   437  1E35                     	;# 
   438  1E36                     	;# 
   439  1E37                     	;# 
   440  1E8F                     	;# 
   441  1E90                     	;# 
   442  1E91                     	;# 
   443  1E92                     	;# 
   444  1E93                     	;# 
   445  1E94                     	;# 
   446  1E95                     	;# 
   447  1E96                     	;# 
   448  1E97                     	;# 
   449  1E9C                     	;# 
   450  1E9D                     	;# 
   451  1E9E                     	;# 
   452  1EA1                     	;# 
   453  1EA2                     	;# 
   454  1EA3                     	;# 
   455  1EA4                     	;# 
   456  1EA9                     	;# 
   457  1EAA                     	;# 
   458  1EB1                     	;# 
   459  1EB2                     	;# 
   460  1EB8                     	;# 
   461  1EB9                     	;# 
   462  1EBA                     	;# 
   463  1EBB                     	;# 
   464  1EBC                     	;# 
   465  1EBD                     	;# 
   466  1EBE                     	;# 
   467  1EC3                     	;# 
   468  1EC5                     	;# 
   469  1EC6                     	;# 
   470  1EC7                     	;# 
   471  1EC8                     	;# 
   472  1EC9                     	;# 
   473  1ECA                     	;# 
   474  1ECB                     	;# 
   475  1ECB                     	;# 
   476  1ECB                     	;# 
   477  1ECC                     	;# 
   478  1ECC                     	;# 
   479  1ECC                     	;# 
   480  1F10                     	;# 
   481  1F11                     	;# 
   482  1F12                     	;# 
   483  1F14                     	;# 
   484  1F15                     	;# 
   485  1F1C                     	;# 
   486  1F1D                     	;# 
   487  1F1E                     	;# 
   488  1F1F                     	;# 
   489  1F20                     	;# 
   490  1F21                     	;# 
   491  1F22                     	;# 
   492  1F23                     	;# 
   493  1F24                     	;# 
   494  1F25                     	;# 
   495  1F26                     	;# 
   496  1F27                     	;# 
   497  1F38                     	;# 
   498  1F39                     	;# 
   499  1F3A                     	;# 
   500  1F3B                     	;# 
   501  1F3C                     	;# 
   502  1F3D                     	;# 
   503  1F3E                     	;# 
   504  1F3F                     	;# 
   505  1F43                     	;# 
   506  1F44                     	;# 
   507  1F45                     	;# 
   508  1F46                     	;# 
   509  1F47                     	;# 
   510  1F48                     	;# 
   511  1F49                     	;# 
   512  1F4A                     	;# 
   513  1F4E                     	;# 
   514  1F4F                     	;# 
   515  1F50                     	;# 
   516  1F51                     	;# 
   517  1F52                     	;# 
   518  1F53                     	;# 
   519  1F54                     	;# 
   520  1F55                     	;# 
   521  1FE4                     	;# 
   522  1FE5                     	;# 
   523  1FE6                     	;# 
   524  1FE7                     	;# 
   525  1FE8                     	;# 
   526  1FE8                     	;# 
   527  1FE9                     	;# 
   528  1FEA                     	;# 
   529  1FEB                     	;# 
   530  1FED                     	;# 
   531  1FEE                     	;# 
   532  1FEF                     	;# 
   533  0000                     	;# 
   534  0001                     	;# 
   535  0002                     	;# 
   536  0003                     	;# 
   537  0004                     	;# 
   538  0005                     	;# 
   539  0006                     	;# 
   540  0007                     	;# 
   541  0008                     	;# 
   542  0009                     	;# 
   543  000A                     	;# 
   544  000B                     	;# 
   545  000C                     	;# 
   546  000D                     	;# 
   547  000E                     	;# 
   548  0012                     	;# 
   549  0013                     	;# 
   550  0014                     	;# 
   551  0018                     	;# 
   552  0019                     	;# 
   553  001A                     	;# 
   554  008C                     	;# 
   555  008C                     	;# 
   556  008D                     	;# 
   557  008E                     	;# 
   558  008E                     	;# 
   559  008F                     	;# 
   560  0090                     	;# 
   561  0090                     	;# 
   562  0091                     	;# 
   563  0092                     	;# 
   564  0092                     	;# 
   565  0093                     	;# 
   566  0094                     	;# 
   567  0094                     	;# 
   568  0095                     	;# 
   569  0096                     	;# 
   570  0096                     	;# 
   571  0097                     	;# 
   572  0098                     	;# 
   573  0099                     	;# 
   574  009A                     	;# 
   575  009B                     	;# 
   576  009B                     	;# 
   577  009C                     	;# 
   578  009D                     	;# 
   579  009D                     	;# 
   580  009E                     	;# 
   581  009F                     	;# 
   582  010C                     	;# 
   583  010C                     	;# 
   584  010D                     	;# 
   585  010E                     	;# 
   586  010F                     	;# 
   587  010F                     	;# 
   588  0110                     	;# 
   589  0111                     	;# 
   590  0112                     	;# 
   591  0113                     	;# 
   592  0114                     	;# 
   593  0115                     	;# 
   594  0116                     	;# 
   595  0117                     	;# 
   596  0118                     	;# 
   597  0119                     	;# 
   598  0119                     	;# 
   599  0119                     	;# 
   600  011A                     	;# 
   601  011A                     	;# 
   602  011A                     	;# 
   603  011B                     	;# 
   604  011B                     	;# 
   605  011B                     	;# 
   606  011B                     	;# 
   607  011B                     	;# 
   608  011C                     	;# 
   609  011C                     	;# 
   610  011C                     	;# 
   611  011D                     	;# 
   612  011D                     	;# 
   613  011D                     	;# 
   614  011E                     	;# 
   615  011E                     	;# 
   616  011E                     	;# 
   617  011F                     	;# 
   618  011F                     	;# 
   619  011F                     	;# 
   620  011F                     	;# 
   621  011F                     	;# 
   622  018C                     	;# 
   623  018D                     	;# 
   624  018E                     	;# 
   625  018F                     	;# 
   626  0190                     	;# 
   627  0191                     	;# 
   628  0192                     	;# 
   629  0196                     	;# 
   630  0197                     	;# 
   631  0198                     	;# 
   632  0199                     	;# 
   633  019A                     	;# 
   634  019B                     	;# 
   635  019C                     	;# 
   636  020C                     	;# 
   637  020D                     	;# 
   638  020E                     	;# 
   639  020E                     	;# 
   640  020F                     	;# 
   641  020F                     	;# 
   642  0210                     	;# 
   643  0210                     	;# 
   644  0211                     	;# 
   645  0211                     	;# 
   646  0212                     	;# 
   647  0213                     	;# 
   648  0214                     	;# 
   649  0214                     	;# 
   650  0215                     	;# 
   651  0215                     	;# 
   652  0216                     	;# 
   653  0216                     	;# 
   654  0217                     	;# 
   655  0217                     	;# 
   656  0218                     	;# 
   657  0219                     	;# 
   658  021A                     	;# 
   659  021A                     	;# 
   660  021B                     	;# 
   661  021B                     	;# 
   662  021C                     	;# 
   663  021C                     	;# 
   664  021D                     	;# 
   665  021D                     	;# 
   666  021E                     	;# 
   667  021F                     	;# 
   668  028C                     	;# 
   669  028C                     	;# 
   670  028D                     	;# 
   671  028D                     	;# 
   672  028E                     	;# 
   673  028F                     	;# 
   674  0290                     	;# 
   675  0291                     	;# 
   676  0292                     	;# 
   677  0292                     	;# 
   678  0293                     	;# 
   679  0293                     	;# 
   680  0294                     	;# 
   681  0295                     	;# 
   682  0296                     	;# 
   683  0297                     	;# 
   684  0298                     	;# 
   685  0298                     	;# 
   686  0299                     	;# 
   687  0299                     	;# 
   688  029A                     	;# 
   689  029B                     	;# 
   690  029C                     	;# 
   691  029D                     	;# 
   692  029F                     	;# 
   693  030C                     	;# 
   694  030C                     	;# 
   695  030D                     	;# 
   696  030E                     	;# 
   697  030F                     	;# 
   698  0310                     	;# 
   699  0310                     	;# 
   700  0311                     	;# 
   701  0312                     	;# 
   702  0313                     	;# 
   703  0314                     	;# 
   704  0314                     	;# 
   705  0315                     	;# 
   706  0316                     	;# 
   707  0317                     	;# 
   708  0318                     	;# 
   709  0318                     	;# 
   710  0319                     	;# 
   711  031A                     	;# 
   712  031B                     	;# 
   713  038C                     	;# 
   714  038C                     	;# 
   715  038D                     	;# 
   716  038E                     	;# 
   717  0390                     	;# 
   718  0390                     	;# 
   719  0391                     	;# 
   720  0392                     	;# 
   721  048C                     	;# 
   722  048C                     	;# 
   723  048D                     	;# 
   724  048E                     	;# 
   725  048F                     	;# 
   726  048F                     	;# 
   727  0490                     	;# 
   728  0491                     	;# 
   729  0492                     	;# 
   730  0492                     	;# 
   731  0493                     	;# 
   732  0494                     	;# 
   733  0495                     	;# 
   734  0495                     	;# 
   735  0496                     	;# 
   736  0497                     	;# 
   737  0498                     	;# 
   738  0499                     	;# 
   739  049A                     	;# 
   740  049B                     	;# 
   741  049C                     	;# 
   742  049D                     	;# 
   743  058C                     	;# 
   744  058C                     	;# 
   745  058D                     	;# 
   746  058E                     	;# 
   747  058F                     	;# 
   748  058F                     	;# 
   749  0590                     	;# 
   750  0591                     	;# 
   751  0592                     	;# 
   752  0593                     	;# 
   753  059C                     	;# 
   754  059C                     	;# 
   755  059D                     	;# 
   756  059D                     	;# 
   757  059E                     	;# 
   758  059F                     	;# 
   759  060C                     	;# 
   760  060C                     	;# 
   761  060D                     	;# 
   762  060D                     	;# 
   763  060E                     	;# 
   764  060F                     	;# 
   765  0610                     	;# 
   766  0611                     	;# 
   767  0612                     	;# 
   768  0613                     	;# 
   769  0614                     	;# 
   770  0616                     	;# 
   771  0616                     	;# 
   772  0617                     	;# 
   773  0617                     	;# 
   774  0618                     	;# 
   775  0619                     	;# 
   776  061A                     	;# 
   777  061B                     	;# 
   778  061C                     	;# 
   779  061D                     	;# 
   780  061E                     	;# 
   781  070C                     	;# 
   782  070D                     	;# 
   783  070E                     	;# 
   784  070F                     	;# 
   785  0710                     	;# 
   786  0711                     	;# 
   787  0712                     	;# 
   788  0713                     	;# 
   789  0714                     	;# 
   790  0716                     	;# 
   791  0717                     	;# 
   792  0718                     	;# 
   793  0719                     	;# 
   794  071A                     	;# 
   795  071B                     	;# 
   796  071C                     	;# 
   797  071D                     	;# 
   798  071E                     	;# 
   799  0796                     	;# 
   800  0797                     	;# 
   801  0798                     	;# 
   802  0799                     	;# 
   803  079A                     	;# 
   804  079B                     	;# 
   805  079C                     	;# 
   806  079D                     	;# 
   807  080C                     	;# 
   808  080D                     	;# 
   809  080E                     	;# 
   810  080F                     	;# 
   811  0810                     	;# 
   812  0811                     	;# 
   813  0812                     	;# 
   814  0813                     	;# 
   815  0814                     	;# 
   816  081A                     	;# 
   817  081A                     	;# 
   818  081B                     	;# 
   819  081C                     	;# 
   820  081C                     	;# 
   821  081D                     	;# 
   822  081E                     	;# 
   823  081F                     	;# 
   824  088C                     	;# 
   825  088D                     	;# 
   826  088E                     	;# 
   827  088F                     	;# 
   828  0890                     	;# 
   829  0891                     	;# 
   830  0892                     	;# 
   831  0893                     	;# 
   832  0895                     	;# 
   833  0896                     	;# 
   834  0897                     	;# 
   835  0898                     	;# 
   836  0899                     	;# 
   837  089A                     	;# 
   838  089B                     	;# 
   839  090C                     	;# 
   840  090E                     	;# 
   841  090F                     	;# 
   842  091F                     	;# 
   843  098F                     	;# 
   844  098F                     	;# 
   845  0990                     	;# 
   846  0991                     	;# 
   847  0992                     	;# 
   848  0993                     	;# 
   849  0994                     	;# 
   850  0995                     	;# 
   851  0996                     	;# 
   852  0997                     	;# 
   853  1E0F                     	;# 
   854  1E10                     	;# 
   855  1E11                     	;# 
   856  1E12                     	;# 
   857  1E13                     	;# 
   858  1E14                     	;# 
   859  1E15                     	;# 
   860  1E16                     	;# 
   861  1E17                     	;# 
   862  1E18                     	;# 
   863  1E19                     	;# 
   864  1E1A                     	;# 
   865  1E1B                     	;# 
   866  1E1C                     	;# 
   867  1E1D                     	;# 
   868  1E1E                     	;# 
   869  1E1F                     	;# 
   870  1E20                     	;# 
   871  1E21                     	;# 
   872  1E22                     	;# 
   873  1E23                     	;# 
   874  1E24                     	;# 
   875  1E25                     	;# 
   876  1E26                     	;# 
   877  1E27                     	;# 
   878  1E28                     	;# 
   879  1E29                     	;# 
   880  1E2A                     	;# 
   881  1E2B                     	;# 
   882  1E2C                     	;# 
   883  1E2D                     	;# 
   884  1E2E                     	;# 
   885  1E2F                     	;# 
   886  1E30                     	;# 
   887  1E31                     	;# 
   888  1E32                     	;# 
   889  1E33                     	;# 
   890  1E34                     	;# 
   891  1E35                     	;# 
   892  1E36                     	;# 
   893  1E37                     	;# 
   894  1E8F                     	;# 
   895  1E90                     	;# 
   896  1E91                     	;# 
   897  1E92                     	;# 
   898  1E93                     	;# 
   899  1E94                     	;# 
   900  1E95                     	;# 
   901  1E96                     	;# 
   902  1E97                     	;# 
   903  1E9C                     	;# 
   904  1E9D                     	;# 
   905  1E9E                     	;# 
   906  1EA1                     	;# 
   907  1EA2                     	;# 
   908  1EA3                     	;# 
   909  1EA4                     	;# 
   910  1EA9                     	;# 
   911  1EAA                     	;# 
   912  1EB1                     	;# 
   913  1EB2                     	;# 
   914  1EB8                     	;# 
   915  1EB9                     	;# 
   916  1EBA                     	;# 
   917  1EBB                     	;# 
   918  1EBC                     	;# 
   919  1EBD                     	;# 
   920  1EBE                     	;# 
   921  1EC3                     	;# 
   922  1EC5                     	;# 
   923  1EC6                     	;# 
   924  1EC7                     	;# 
   925  1EC8                     	;# 
   926  1EC9                     	;# 
   927  1ECA                     	;# 
   928  1ECB                     	;# 
   929  1ECB                     	;# 
   930  1ECB                     	;# 
   931  1ECC                     	;# 
   932  1ECC                     	;# 
   933  1ECC                     	;# 
   934  1F10                     	;# 
   935  1F11                     	;# 
   936  1F12                     	;# 
   937  1F14                     	;# 
   938  1F15                     	;# 
   939  1F1C                     	;# 
   940  1F1D                     	;# 
   941  1F1E                     	;# 
   942  1F1F                     	;# 
   943  1F20                     	;# 
   944  1F21                     	;# 
   945  1F22                     	;# 
   946  1F23                     	;# 
   947  1F24                     	;# 
   948  1F25                     	;# 
   949  1F26                     	;# 
   950  1F27                     	;# 
   951  1F38                     	;# 
   952  1F39                     	;# 
   953  1F3A                     	;# 
   954  1F3B                     	;# 
   955  1F3C                     	;# 
   956  1F3D                     	;# 
   957  1F3E                     	;# 
   958  1F3F                     	;# 
   959  1F43                     	;# 
   960  1F44                     	;# 
   961  1F45                     	;# 
   962  1F46                     	;# 
   963  1F47                     	;# 
   964  1F48                     	;# 
   965  1F49                     	;# 
   966  1F4A                     	;# 
   967  1F4E                     	;# 
   968  1F4F                     	;# 
   969  1F50                     	;# 
   970  1F51                     	;# 
   971  1F52                     	;# 
   972  1F53                     	;# 
   973  1F54                     	;# 
   974  1F55                     	;# 
   975  1FE4                     	;# 
   976  1FE5                     	;# 
   977  1FE6                     	;# 
   978  1FE7                     	;# 
   979  1FE8                     	;# 
   980  1FE8                     	;# 
   981  1FE9                     	;# 
   982  1FEA                     	;# 
   983  1FEB                     	;# 
   984  1FED                     	;# 
   985  1FEE                     	;# 
   986  1FEF                     	;# 
   987  0000                     	;# 
   988  0001                     	;# 
   989  0002                     	;# 
   990  0003                     	;# 
   991  0004                     	;# 
   992  0005                     	;# 
   993  0006                     	;# 
   994  0007                     	;# 
   995  0008                     	;# 
   996  0009                     	;# 
   997  000A                     	;# 
   998  000B                     	;# 
   999  000C                     	;# 
  1000  000D                     	;# 
  1001  000E                     	;# 
  1002  0012                     	;# 
  1003  0013                     	;# 
  1004  0014                     	;# 
  1005  0018                     	;# 
  1006  0019                     	;# 
  1007  001A                     	;# 
  1008  008C                     	;# 
  1009  008C                     	;# 
  1010  008D                     	;# 
  1011  008E                     	;# 
  1012  008E                     	;# 
  1013  008F                     	;# 
  1014  0090                     	;# 
  1015  0090                     	;# 
  1016  0091                     	;# 
  1017  0092                     	;# 
  1018  0092                     	;# 
  1019  0093                     	;# 
  1020  0094                     	;# 
  1021  0094                     	;# 
  1022  0095                     	;# 
  1023  0096                     	;# 
  1024  0096                     	;# 
  1025  0097                     	;# 
  1026  0098                     	;# 
  1027  0099                     	;# 
  1028  009A                     	;# 
  1029  009B                     	;# 
  1030  009B                     	;# 
  1031  009C                     	;# 
  1032  009D                     	;# 
  1033  009D                     	;# 
  1034  009E                     	;# 
  1035  009F                     	;# 
  1036  010C                     	;# 
  1037  010C                     	;# 
  1038  010D                     	;# 
  1039  010E                     	;# 
  1040  010F                     	;# 
  1041  010F                     	;# 
  1042  0110                     	;# 
  1043  0111                     	;# 
  1044  0112                     	;# 
  1045  0113                     	;# 
  1046  0114                     	;# 
  1047  0115                     	;# 
  1048  0116                     	;# 
  1049  0117                     	;# 
  1050  0118                     	;# 
  1051  0119                     	;# 
  1052  0119                     	;# 
  1053  0119                     	;# 
  1054  011A                     	;# 
  1055  011A                     	;# 
  1056  011A                     	;# 
  1057  011B                     	;# 
  1058  011B                     	;# 
  1059  011B                     	;# 
  1060  011B                     	;# 
  1061  011B                     	;# 
  1062  011C                     	;# 
  1063  011C                     	;# 
  1064  011C                     	;# 
  1065  011D                     	;# 
  1066  011D                     	;# 
  1067  011D                     	;# 
  1068  011E                     	;# 
  1069  011E                     	;# 
  1070  011E                     	;# 
  1071  011F                     	;# 
  1072  011F                     	;# 
  1073  011F                     	;# 
  1074  011F                     	;# 
  1075  011F                     	;# 
  1076  018C                     	;# 
  1077  018D                     	;# 
  1078  018E                     	;# 
  1079  018F                     	;# 
  1080  0190                     	;# 
  1081  0191                     	;# 
  1082  0192                     	;# 
  1083  0196                     	;# 
  1084  0197                     	;# 
  1085  0198                     	;# 
  1086  0199                     	;# 
  1087  019A                     	;# 
  1088  019B                     	;# 
  1089  019C                     	;# 
  1090  020C                     	;# 
  1091  020D                     	;# 
  1092  020E                     	;# 
  1093  020E                     	;# 
  1094  020F                     	;# 
  1095  020F                     	;# 
  1096  0210                     	;# 
  1097  0210                     	;# 
  1098  0211                     	;# 
  1099  0211                     	;# 
  1100  0212                     	;# 
  1101  0213                     	;# 
  1102  0214                     	;# 
  1103  0214                     	;# 
  1104  0215                     	;# 
  1105  0215                     	;# 
  1106  0216                     	;# 
  1107  0216                     	;# 
  1108  0217                     	;# 
  1109  0217                     	;# 
  1110  0218                     	;# 
  1111  0219                     	;# 
  1112  021A                     	;# 
  1113  021A                     	;# 
  1114  021B                     	;# 
  1115  021B                     	;# 
  1116  021C                     	;# 
  1117  021C                     	;# 
  1118  021D                     	;# 
  1119  021D                     	;# 
  1120  021E                     	;# 
  1121  021F                     	;# 
  1122  028C                     	;# 
  1123  028C                     	;# 
  1124  028D                     	;# 
  1125  028D                     	;# 
  1126  028E                     	;# 
  1127  028F                     	;# 
  1128  0290                     	;# 
  1129  0291                     	;# 
  1130  0292                     	;# 
  1131  0292                     	;# 
  1132  0293                     	;# 
  1133  0293                     	;# 
  1134  0294                     	;# 
  1135  0295                     	;# 
  1136  0296                     	;# 
  1137  0297                     	;# 
  1138  0298                     	;# 
  1139  0298                     	;# 
  1140  0299                     	;# 
  1141  0299                     	;# 
  1142  029A                     	;# 
  1143  029B                     	;# 
  1144  029C                     	;# 
  1145  029D                     	;# 
  1146  029F                     	;# 
  1147  030C                     	;# 
  1148  030C                     	;# 
  1149  030D                     	;# 
  1150  030E                     	;# 
  1151  030F                     	;# 
  1152  0310                     	;# 
  1153  0310                     	;# 
  1154  0311                     	;# 
  1155  0312                     	;# 
  1156  0313                     	;# 
  1157  0314                     	;# 
  1158  0314                     	;# 
  1159  0315                     	;# 
  1160  0316                     	;# 
  1161  0317                     	;# 
  1162  0318                     	;# 
  1163  0318                     	;# 
  1164  0319                     	;# 
  1165  031A                     	;# 
  1166  031B                     	;# 
  1167  038C                     	;# 
  1168  038C                     	;# 
  1169  038D                     	;# 
  1170  038E                     	;# 
  1171  0390                     	;# 
  1172  0390                     	;# 
  1173  0391                     	;# 
  1174  0392                     	;# 
  1175  048C                     	;# 
  1176  048C                     	;# 
  1177  048D                     	;# 
  1178  048E                     	;# 
  1179  048F                     	;# 
  1180  048F                     	;# 
  1181  0490                     	;# 
  1182  0491                     	;# 
  1183  0492                     	;# 
  1184  0492                     	;# 
  1185  0493                     	;# 
  1186  0494                     	;# 
  1187  0495                     	;# 
  1188  0495                     	;# 
  1189  0496                     	;# 
  1190  0497                     	;# 
  1191  0498                     	;# 
  1192  0499                     	;# 
  1193  049A                     	;# 
  1194  049B                     	;# 
  1195  049C                     	;# 
  1196  049D                     	;# 
  1197  058C                     	;# 
  1198  058C                     	;# 
  1199  058D                     	;# 
  1200  058E                     	;# 
  1201  058F                     	;# 
  1202  058F                     	;# 
  1203  0590                     	;# 
  1204  0591                     	;# 
  1205  0592                     	;# 
  1206  0593                     	;# 
  1207  059C                     	;# 
  1208  059C                     	;# 
  1209  059D                     	;# 
  1210  059D                     	;# 
  1211  059E                     	;# 
  1212  059F                     	;# 
  1213  060C                     	;# 
  1214  060C                     	;# 
  1215  060D                     	;# 
  1216  060D                     	;# 
  1217  060E                     	;# 
  1218  060F                     	;# 
  1219  0610                     	;# 
  1220  0611                     	;# 
  1221  0612                     	;# 
  1222  0613                     	;# 
  1223  0614                     	;# 
  1224  0616                     	;# 
  1225  0616                     	;# 
  1226  0617                     	;# 
  1227  0617                     	;# 
  1228  0618                     	;# 
  1229  0619                     	;# 
  1230  061A                     	;# 
  1231  061B                     	;# 
  1232  061C                     	;# 
  1233  061D                     	;# 
  1234  061E                     	;# 
  1235  070C                     	;# 
  1236  070D                     	;# 
  1237  070E                     	;# 
  1238  070F                     	;# 
  1239  0710                     	;# 
  1240  0711                     	;# 
  1241  0712                     	;# 
  1242  0713                     	;# 
  1243  0714                     	;# 
  1244  0716                     	;# 
  1245  0717                     	;# 
  1246  0718                     	;# 
  1247  0719                     	;# 
  1248  071A                     	;# 
  1249  071B                     	;# 
  1250  071C                     	;# 
  1251  071D                     	;# 
  1252  071E                     	;# 
  1253  0796                     	;# 
  1254  0797                     	;# 
  1255  0798                     	;# 
  1256  0799                     	;# 
  1257  079A                     	;# 
  1258  079B                     	;# 
  1259  079C                     	;# 
  1260  079D                     	;# 
  1261  080C                     	;# 
  1262  080D                     	;# 
  1263  080E                     	;# 
  1264  080F                     	;# 
  1265  0810                     	;# 
  1266  0811                     	;# 
  1267  0812                     	;# 
  1268  0813                     	;# 
  1269  0814                     	;# 
  1270  081A                     	;# 
  1271  081A                     	;# 
  1272  081B                     	;# 
  1273  081C                     	;# 
  1274  081C                     	;# 
  1275  081D                     	;# 
  1276  081E                     	;# 
  1277  081F                     	;# 
  1278  088C                     	;# 
  1279  088D                     	;# 
  1280  088E                     	;# 
  1281  088F                     	;# 
  1282  0890                     	;# 
  1283  0891                     	;# 
  1284  0892                     	;# 
  1285  0893                     	;# 
  1286  0895                     	;# 
  1287  0896                     	;# 
  1288  0897                     	;# 
  1289  0898                     	;# 
  1290  0899                     	;# 
  1291  089A                     	;# 
  1292  089B                     	;# 
  1293  090C                     	;# 
  1294  090E                     	;# 
  1295  090F                     	;# 
  1296  091F                     	;# 
  1297  098F                     	;# 
  1298  098F                     	;# 
  1299  0990                     	;# 
  1300  0991                     	;# 
  1301  0992                     	;# 
  1302  0993                     	;# 
  1303  0994                     	;# 
  1304  0995                     	;# 
  1305  0996                     	;# 
  1306  0997                     	;# 
  1307  1E0F                     	;# 
  1308  1E10                     	;# 
  1309  1E11                     	;# 
  1310  1E12                     	;# 
  1311  1E13                     	;# 
  1312  1E14                     	;# 
  1313  1E15                     	;# 
  1314  1E16                     	;# 
  1315  1E17                     	;# 
  1316  1E18                     	;# 
  1317  1E19                     	;# 
  1318  1E1A                     	;# 
  1319  1E1B                     	;# 
  1320  1E1C                     	;# 
  1321  1E1D                     	;# 
  1322  1E1E                     	;# 
  1323  1E1F                     	;# 
  1324  1E20                     	;# 
  1325  1E21                     	;# 
  1326  1E22                     	;# 
  1327  1E23                     	;# 
  1328  1E24                     	;# 
  1329  1E25                     	;# 
  1330  1E26                     	;# 
  1331  1E27                     	;# 
  1332  1E28                     	;# 
  1333  1E29                     	;# 
  1334  1E2A                     	;# 
  1335  1E2B                     	;# 
  1336  1E2C                     	;# 
  1337  1E2D                     	;# 
  1338  1E2E                     	;# 
  1339  1E2F                     	;# 
  1340  1E30                     	;# 
  1341  1E31                     	;# 
  1342  1E32                     	;# 
  1343  1E33                     	;# 
  1344  1E34                     	;# 
  1345  1E35                     	;# 
  1346  1E36                     	;# 
  1347  1E37                     	;# 
  1348  1E8F                     	;# 
  1349  1E90                     	;# 
  1350  1E91                     	;# 
  1351  1E92                     	;# 
  1352  1E93                     	;# 
  1353  1E94                     	;# 
  1354  1E95                     	;# 
  1355  1E96                     	;# 
  1356  1E97                     	;# 
  1357  1E9C                     	;# 
  1358  1E9D                     	;# 
  1359  1E9E                     	;# 
  1360  1EA1                     	;# 
  1361  1EA2                     	;# 
  1362  1EA3                     	;# 
  1363  1EA4                     	;# 
  1364  1EA9                     	;# 
  1365  1EAA                     	;# 
  1366  1EB1                     	;# 
  1367  1EB2                     	;# 
  1368  1EB8                     	;# 
  1369  1EB9                     	;# 
  1370  1EBA                     	;# 
  1371  1EBB                     	;# 
  1372  1EBC                     	;# 
  1373  1EBD                     	;# 
  1374  1EBE                     	;# 
  1375  1EC3                     	;# 
  1376  1EC5                     	;# 
  1377  1EC6                     	;# 
  1378  1EC7                     	;# 
  1379  1EC8                     	;# 
  1380  1EC9                     	;# 
  1381  1ECA                     	;# 
  1382  1ECB                     	;# 
  1383  1ECB                     	;# 
  1384  1ECB                     	;# 
  1385  1ECC                     	;# 
  1386  1ECC                     	;# 
  1387  1ECC                     	;# 
  1388  1F10                     	;# 
  1389  1F11                     	;# 
  1390  1F12                     	;# 
  1391  1F14                     	;# 
  1392  1F15                     	;# 
  1393  1F1C                     	;# 
  1394  1F1D                     	;# 
  1395  1F1E                     	;# 
  1396  1F1F                     	;# 
  1397  1F20                     	;# 
  1398  1F21                     	;# 
  1399  1F22                     	;# 
  1400  1F23                     	;# 
  1401  1F24                     	;# 
  1402  1F25                     	;# 
  1403  1F26                     	;# 
  1404  1F27                     	;# 
  1405  1F38                     	;# 
  1406  1F39                     	;# 
  1407  1F3A                     	;# 
  1408  1F3B                     	;# 
  1409  1F3C                     	;# 
  1410  1F3D                     	;# 
  1411  1F3E                     	;# 
  1412  1F3F                     	;# 
  1413  1F43                     	;# 
  1414  1F44                     	;# 
  1415  1F45                     	;# 
  1416  1F46                     	;# 
  1417  1F47                     	;# 
  1418  1F48                     	;# 
  1419  1F49                     	;# 
  1420  1F4A                     	;# 
  1421  1F4E                     	;# 
  1422  1F4F                     	;# 
  1423  1F50                     	;# 
  1424  1F51                     	;# 
  1425  1F52                     	;# 
  1426  1F53                     	;# 
  1427  1F54                     	;# 
  1428  1F55                     	;# 
  1429  1FE4                     	;# 
  1430  1FE5                     	;# 
  1431  1FE6                     	;# 
  1432  1FE7                     	;# 
  1433  1FE8                     	;# 
  1434  1FE8                     	;# 
  1435  1FE9                     	;# 
  1436  1FEA                     	;# 
  1437  1FEB                     	;# 
  1438  1FED                     	;# 
  1439  1FEE                     	;# 
  1440  1FEF                     	;# 
  1441  0000                     	;# 
  1442  0001                     	;# 
  1443  0002                     	;# 
  1444  0003                     	;# 
  1445  0004                     	;# 
  1446  0005                     	;# 
  1447  0006                     	;# 
  1448  0007                     	;# 
  1449  0008                     	;# 
  1450  0009                     	;# 
  1451  000A                     	;# 
  1452  000B                     	;# 
  1453  000C                     	;# 
  1454  000D                     	;# 
  1455  000E                     	;# 
  1456  0012                     	;# 
  1457  0013                     	;# 
  1458  0014                     	;# 
  1459  0018                     	;# 
  1460  0019                     	;# 
  1461  001A                     	;# 
  1462  008C                     	;# 
  1463  008C                     	;# 
  1464  008D                     	;# 
  1465  008E                     	;# 
  1466  008E                     	;# 
  1467  008F                     	;# 
  1468  0090                     	;# 
  1469  0090                     	;# 
  1470  0091                     	;# 
  1471  0092                     	;# 
  1472  0092                     	;# 
  1473  0093                     	;# 
  1474  0094                     	;# 
  1475  0094                     	;# 
  1476  0095                     	;# 
  1477  0096                     	;# 
  1478  0096                     	;# 
  1479  0097                     	;# 
  1480  0098                     	;# 
  1481  0099                     	;# 
  1482  009A                     	;# 
  1483  009B                     	;# 
  1484  009B                     	;# 
  1485  009C                     	;# 
  1486  009D                     	;# 
  1487  009D                     	;# 
  1488  009E                     	;# 
  1489  009F                     	;# 
  1490  010C                     	;# 
  1491  010C                     	;# 
  1492  010D                     	;# 
  1493  010E                     	;# 
  1494  010F                     	;# 
  1495  010F                     	;# 
  1496  0110                     	;# 
  1497  0111                     	;# 
  1498  0112                     	;# 
  1499  0113                     	;# 
  1500  0114                     	;# 
  1501  0115                     	;# 
  1502  0116                     	;# 
  1503  0117                     	;# 
  1504  0118                     	;# 
  1505  0119                     	;# 
  1506  0119                     	;# 
  1507  0119                     	;# 
  1508  011A                     	;# 
  1509  011A                     	;# 
  1510  011A                     	;# 
  1511  011B                     	;# 
  1512  011B                     	;# 
  1513  011B                     	;# 
  1514  011B                     	;# 
  1515  011B                     	;# 
  1516  011C                     	;# 
  1517  011C                     	;# 
  1518  011C                     	;# 
  1519  011D                     	;# 
  1520  011D                     	;# 
  1521  011D                     	;# 
  1522  011E                     	;# 
  1523  011E                     	;# 
  1524  011E                     	;# 
  1525  011F                     	;# 
  1526  011F                     	;# 
  1527  011F                     	;# 
  1528  011F                     	;# 
  1529  011F                     	;# 
  1530  018C                     	;# 
  1531  018D                     	;# 
  1532  018E                     	;# 
  1533  018F                     	;# 
  1534  0190                     	;# 
  1535  0191                     	;# 
  1536  0192                     	;# 
  1537  0196                     	;# 
  1538  0197                     	;# 
  1539  0198                     	;# 
  1540  0199                     	;# 
  1541  019A                     	;# 
  1542  019B                     	;# 
  1543  019C                     	;# 
  1544  020C                     	;# 
  1545  020D                     	;# 
  1546  020E                     	;# 
  1547  020E                     	;# 
  1548  020F                     	;# 
  1549  020F                     	;# 
  1550  0210                     	;# 
  1551  0210                     	;# 
  1552  0211                     	;# 
  1553  0211                     	;# 
  1554  0212                     	;# 
  1555  0213                     	;# 
  1556  0214                     	;# 
  1557  0214                     	;# 
  1558  0215                     	;# 
  1559  0215                     	;# 
  1560  0216                     	;# 
  1561  0216                     	;# 
  1562  0217                     	;# 
  1563  0217                     	;# 
  1564  0218                     	;# 
  1565  0219                     	;# 
  1566  021A                     	;# 
  1567  021A                     	;# 
  1568  021B                     	;# 
  1569  021B                     	;# 
  1570  021C                     	;# 
  1571  021C                     	;# 
  1572  021D                     	;# 
  1573  021D                     	;# 
  1574  021E                     	;# 
  1575  021F                     	;# 
  1576  028C                     	;# 
  1577  028C                     	;# 
  1578  028D                     	;# 
  1579  028D                     	;# 
  1580  028E                     	;# 
  1581  028F                     	;# 
  1582  0290                     	;# 
  1583  0291                     	;# 
  1584  0292                     	;# 
  1585  0292                     	;# 
  1586  0293                     	;# 
  1587  0293                     	;# 
  1588  0294                     	;# 
  1589  0295                     	;# 
  1590  0296                     	;# 
  1591  0297                     	;# 
  1592  0298                     	;# 
  1593  0298                     	;# 
  1594  0299                     	;# 
  1595  0299                     	;# 
  1596  029A                     	;# 
  1597  029B                     	;# 
  1598  029C                     	;# 
  1599  029D                     	;# 
  1600  029F                     	;# 
  1601  030C                     	;# 
  1602  030C                     	;# 
  1603  030D                     	;# 
  1604  030E                     	;# 
  1605  030F                     	;# 
  1606  0310                     	;# 
  1607  0310                     	;# 
  1608  0311                     	;# 
  1609  0312                     	;# 
  1610  0313                     	;# 
  1611  0314                     	;# 
  1612  0314                     	;# 
  1613  0315                     	;# 
  1614  0316                     	;# 
  1615  0317                     	;# 
  1616  0318                     	;# 
  1617  0318                     	;# 
  1618  0319                     	;# 
  1619  031A                     	;# 
  1620  031B                     	;# 
  1621  038C                     	;# 
  1622  038C                     	;# 
  1623  038D                     	;# 
  1624  038E                     	;# 
  1625  0390                     	;# 
  1626  0390                     	;# 
  1627  0391                     	;# 
  1628  0392                     	;# 
  1629  048C                     	;# 
  1630  048C                     	;# 
  1631  048D                     	;# 
  1632  048E                     	;# 
  1633  048F                     	;# 
  1634  048F                     	;# 
  1635  0490                     	;# 
  1636  0491                     	;# 
  1637  0492                     	;# 
  1638  0492                     	;# 
  1639  0493                     	;# 
  1640  0494                     	;# 
  1641  0495                     	;# 
  1642  0495                     	;# 
  1643  0496                     	;# 
  1644  0497                     	;# 
  1645  0498                     	;# 
  1646  0499                     	;# 
  1647  049A                     	;# 
  1648  049B                     	;# 
  1649  049C                     	;# 
  1650  049D                     	;# 
  1651  058C                     	;# 
  1652  058C                     	;# 
  1653  058D                     	;# 
  1654  058E                     	;# 
  1655  058F                     	;# 
  1656  058F                     	;# 
  1657  0590                     	;# 
  1658  0591                     	;# 
  1659  0592                     	;# 
  1660  0593                     	;# 
  1661  059C                     	;# 
  1662  059C                     	;# 
  1663  059D                     	;# 
  1664  059D                     	;# 
  1665  059E                     	;# 
  1666  059F                     	;# 
  1667  060C                     	;# 
  1668  060C                     	;# 
  1669  060D                     	;# 
  1670  060D                     	;# 
  1671  060E                     	;# 
  1672  060F                     	;# 
  1673  0610                     	;# 
  1674  0611                     	;# 
  1675  0612                     	;# 
  1676  0613                     	;# 
  1677  0614                     	;# 
  1678  0616                     	;# 
  1679  0616                     	;# 
  1680  0617                     	;# 
  1681  0617                     	;# 
  1682  0618                     	;# 
  1683  0619                     	;# 
  1684  061A                     	;# 
  1685  061B                     	;# 
  1686  061C                     	;# 
  1687  061D                     	;# 
  1688  061E                     	;# 
  1689  070C                     	;# 
  1690  070D                     	;# 
  1691  070E                     	;# 
  1692  070F                     	;# 
  1693  0710                     	;# 
  1694  0711                     	;# 
  1695  0712                     	;# 
  1696  0713                     	;# 
  1697  0714                     	;# 
  1698  0716                     	;# 
  1699  0717                     	;# 
  1700  0718                     	;# 
  1701  0719                     	;# 
  1702  071A                     	;# 
  1703  071B                     	;# 
  1704  071C                     	;# 
  1705  071D                     	;# 
  1706  071E                     	;# 
  1707  0796                     	;# 
  1708  0797                     	;# 
  1709  0798                     	;# 
  1710  0799                     	;# 
  1711  079A                     	;# 
  1712  079B                     	;# 
  1713  079C                     	;# 
  1714  079D                     	;# 
  1715  080C                     	;# 
  1716  080D                     	;# 
  1717  080E                     	;# 
  1718  080F                     	;# 
  1719  0810                     	;# 
  1720  0811                     	;# 
  1721  0812                     	;# 
  1722  0813                     	;# 
  1723  0814                     	;# 
  1724  081A                     	;# 
  1725  081A                     	;# 
  1726  081B                     	;# 
  1727  081C                     	;# 
  1728  081C                     	;# 
  1729  081D                     	;# 
  1730  081E                     	;# 
  1731  081F                     	;# 
  1732  088C                     	;# 
  1733  088D                     	;# 
  1734  088E                     	;# 
  1735  088F                     	;# 
  1736  0890                     	;# 
  1737  0891                     	;# 
  1738  0892                     	;# 
  1739  0893                     	;# 
  1740  0895                     	;# 
  1741  0896                     	;# 
  1742  0897                     	;# 
  1743  0898                     	;# 
  1744  0899                     	;# 
  1745  089A                     	;# 
  1746  089B                     	;# 
  1747  090C                     	;# 
  1748  090E                     	;# 
  1749  090F                     	;# 
  1750  091F                     	;# 
  1751  098F                     	;# 
  1752  098F                     	;# 
  1753  0990                     	;# 
  1754  0991                     	;# 
  1755  0992                     	;# 
  1756  0993                     	;# 
  1757  0994                     	;# 
  1758  0995                     	;# 
  1759  0996                     	;# 
  1760  0997                     	;# 
  1761  1E0F                     	;# 
  1762  1E10                     	;# 
  1763  1E11                     	;# 
  1764  1E12                     	;# 
  1765  1E13                     	;# 
  1766  1E14                     	;# 
  1767  1E15                     	;# 
  1768  1E16                     	;# 
  1769  1E17                     	;# 
  1770  1E18                     	;# 
  1771  1E19                     	;# 
  1772  1E1A                     	;# 
  1773  1E1B                     	;# 
  1774  1E1C                     	;# 
  1775  1E1D                     	;# 
  1776  1E1E                     	;# 
  1777  1E1F                     	;# 
  1778  1E20                     	;# 
  1779  1E21                     	;# 
  1780  1E22                     	;# 
  1781  1E23                     	;# 
  1782  1E24                     	;# 
  1783  1E25                     	;# 
  1784  1E26                     	;# 
  1785  1E27                     	;# 
  1786  1E28                     	;# 
  1787  1E29                     	;# 
  1788  1E2A                     	;# 
  1789  1E2B                     	;# 
  1790  1E2C                     	;# 
  1791  1E2D                     	;# 
  1792  1E2E                     	;# 
  1793  1E2F                     	;# 
  1794  1E30                     	;# 
  1795  1E31                     	;# 
  1796  1E32                     	;# 
  1797  1E33                     	;# 
  1798  1E34                     	;# 
  1799  1E35                     	;# 
  1800  1E36                     	;# 
  1801  1E37                     	;# 
  1802  1E8F                     	;# 
  1803  1E90                     	;# 
  1804  1E91                     	;# 
  1805  1E92                     	;# 
  1806  1E93                     	;# 
  1807  1E94                     	;# 
  1808  1E95                     	;# 
  1809  1E96                     	;# 
  1810  1E97                     	;# 
  1811  1E9C                     	;# 
  1812  1E9D                     	;# 
  1813  1E9E                     	;# 
  1814  1EA1                     	;# 
  1815  1EA2                     	;# 
  1816  1EA3                     	;# 
  1817  1EA4                     	;# 
  1818  1EA9                     	;# 
  1819  1EAA                     	;# 
  1820  1EB1                     	;# 
  1821  1EB2                     	;# 
  1822  1EB8                     	;# 
  1823  1EB9                     	;# 
  1824  1EBA                     	;# 
  1825  1EBB                     	;# 
  1826  1EBC                     	;# 
  1827  1EBD                     	;# 
  1828  1EBE                     	;# 
  1829  1EC3                     	;# 
  1830  1EC5                     	;# 
  1831  1EC6                     	;# 
  1832  1EC7                     	;# 
  1833  1EC8                     	;# 
  1834  1EC9                     	;# 
  1835  1ECA                     	;# 
  1836  1ECB                     	;# 
  1837  1ECB                     	;# 
  1838  1ECB                     	;# 
  1839  1ECC                     	;# 
  1840  1ECC                     	;# 
  1841  1ECC                     	;# 
  1842  1F10                     	;# 
  1843  1F11                     	;# 
  1844  1F12                     	;# 
  1845  1F14                     	;# 
  1846  1F15                     	;# 
  1847  1F1C                     	;# 
  1848  1F1D                     	;# 
  1849  1F1E                     	;# 
  1850  1F1F                     	;# 
  1851  1F20                     	;# 
  1852  1F21                     	;# 
  1853  1F22                     	;# 
  1854  1F23                     	;# 
  1855  1F24                     	;# 
  1856  1F25                     	;# 
  1857  1F26                     	;# 
  1858  1F27                     	;# 
  1859  1F38                     	;# 
  1860  1F39                     	;# 
  1861  1F3A                     	;# 
  1862  1F3B                     	;# 
  1863  1F3C                     	;# 
  1864  1F3D                     	;# 
  1865  1F3E                     	;# 
  1866  1F3F                     	;# 
  1867  1F43                     	;# 
  1868  1F44                     	;# 
  1869  1F45                     	;# 
  1870  1F46                     	;# 
  1871  1F47                     	;# 
  1872  1F48                     	;# 
  1873  1F49                     	;# 
  1874  1F4A                     	;# 
  1875  1F4E                     	;# 
  1876  1F4F                     	;# 
  1877  1F50                     	;# 
  1878  1F51                     	;# 
  1879  1F52                     	;# 
  1880  1F53                     	;# 
  1881  1F54                     	;# 
  1882  1F55                     	;# 
  1883  1FE4                     	;# 
  1884  1FE5                     	;# 
  1885  1FE6                     	;# 
  1886  1FE7                     	;# 
  1887  1FE8                     	;# 
  1888  1FE8                     	;# 
  1889  1FE9                     	;# 
  1890  1FEA                     	;# 
  1891  1FEB                     	;# 
  1892  1FED                     	;# 
  1893  1FEE                     	;# 
  1894  1FEF                     	;# 
  1895  0000                     	;# 
  1896  0001                     	;# 
  1897  0002                     	;# 
  1898  0003                     	;# 
  1899  0004                     	;# 
  1900  0005                     	;# 
  1901  0006                     	;# 
  1902  0007                     	;# 
  1903  0008                     	;# 
  1904  0009                     	;# 
  1905  000A                     	;# 
  1906  000B                     	;# 
  1907  000C                     	;# 
  1908  000D                     	;# 
  1909  000E                     	;# 
  1910  0012                     	;# 
  1911  0013                     	;# 
  1912  0014                     	;# 
  1913  0018                     	;# 
  1914  0019                     	;# 
  1915  001A                     	;# 
  1916  008C                     	;# 
  1917  008C                     	;# 
  1918  008D                     	;# 
  1919  008E                     	;# 
  1920  008E                     	;# 
  1921  008F                     	;# 
  1922  0090                     	;# 
  1923  0090                     	;# 
  1924  0091                     	;# 
  1925  0092                     	;# 
  1926  0092                     	;# 
  1927  0093                     	;# 
  1928  0094                     	;# 
  1929  0094                     	;# 
  1930  0095                     	;# 
  1931  0096                     	;# 
  1932  0096                     	;# 
  1933  0097                     	;# 
  1934  0098                     	;# 
  1935  0099                     	;# 
  1936  009A                     	;# 
  1937  009B                     	;# 
  1938  009B                     	;# 
  1939  009C                     	;# 
  1940  009D                     	;# 
  1941  009D                     	;# 
  1942  009E                     	;# 
  1943  009F                     	;# 
  1944  010C                     	;# 
  1945  010C                     	;# 
  1946  010D                     	;# 
  1947  010E                     	;# 
  1948  010F                     	;# 
  1949  010F                     	;# 
  1950  0110                     	;# 
  1951  0111                     	;# 
  1952  0112                     	;# 
  1953  0113                     	;# 
  1954  0114                     	;# 
  1955  0115                     	;# 
  1956  0116                     	;# 
  1957  0117                     	;# 
  1958  0118                     	;# 
  1959  0119                     	;# 
  1960  0119                     	;# 
  1961  0119                     	;# 
  1962  011A                     	;# 
  1963  011A                     	;# 
  1964  011A                     	;# 
  1965  011B                     	;# 
  1966  011B                     	;# 
  1967  011B                     	;# 
  1968  011B                     	;# 
  1969  011B                     	;# 
  1970  011C                     	;# 
  1971  011C                     	;# 
  1972  011C                     	;# 
  1973  011D                     	;# 
  1974  011D                     	;# 
  1975  011D                     	;# 
  1976  011E                     	;# 
  1977  011E                     	;# 
  1978  011E                     	;# 
  1979  011F                     	;# 
  1980  011F                     	;# 
  1981  011F                     	;# 
  1982  011F                     	;# 
  1983  011F                     	;# 
  1984  018C                     	;# 
  1985  018D                     	;# 
  1986  018E                     	;# 
  1987  018F                     	;# 
  1988  0190                     	;# 
  1989  0191                     	;# 
  1990  0192                     	;# 
  1991  0196                     	;# 
  1992  0197                     	;# 
  1993  0198                     	;# 
  1994  0199                     	;# 
  1995  019A                     	;# 
  1996  019B                     	;# 
  1997  019C                     	;# 
  1998  020C                     	;# 
  1999  020D                     	;# 
  2000  020E                     	;# 
  2001  020E                     	;# 
  2002  020F                     	;# 
  2003  020F                     	;# 
  2004  0210                     	;# 
  2005  0210                     	;# 
  2006  0211                     	;# 
  2007  0211                     	;# 
  2008  0212                     	;# 
  2009  0213                     	;# 
  2010  0214                     	;# 
  2011  0214                     	;# 
  2012  0215                     	;# 
  2013  0215                     	;# 
  2014  0216                     	;# 
  2015  0216                     	;# 
  2016  0217                     	;# 
  2017  0217                     	;# 
  2018  0218                     	;# 
  2019  0219                     	;# 
  2020  021A                     	;# 
  2021  021A                     	;# 
  2022  021B                     	;# 
  2023  021B                     	;# 
  2024  021C                     	;# 
  2025  021C                     	;# 
  2026  021D                     	;# 
  2027  021D                     	;# 
  2028  021E                     	;# 
  2029  021F                     	;# 
  2030  028C                     	;# 
  2031  028C                     	;# 
  2032  028D                     	;# 
  2033  028D                     	;# 
  2034  028E                     	;# 
  2035  028F                     	;# 
  2036  0290                     	;# 
  2037  0291                     	;# 
  2038  0292                     	;# 
  2039  0292                     	;# 
  2040  0293                     	;# 
  2041  0293                     	;# 
  2042  0294                     	;# 
  2043  0295                     	;# 
  2044  0296                     	;# 
  2045  0297                     	;# 
  2046  0298                     	;# 
  2047  0298                     	;# 
  2048  0299                     	;# 
  2049  0299                     	;# 
  2050  029A                     	;# 
  2051  029B                     	;# 
  2052  029C                     	;# 
  2053  029D                     	;# 
  2054  029F                     	;# 
  2055  030C                     	;# 
  2056  030C                     	;# 
  2057  030D                     	;# 
  2058  030E                     	;# 
  2059  030F                     	;# 
  2060  0310                     	;# 
  2061  0310                     	;# 
  2062  0311                     	;# 
  2063  0312                     	;# 
  2064  0313                     	;# 
  2065  0314                     	;# 
  2066  0314                     	;# 
  2067  0315                     	;# 
  2068  0316                     	;# 
  2069  0317                     	;# 
  2070  0318                     	;# 
  2071  0318                     	;# 
  2072  0319                     	;# 
  2073  031A                     	;# 
  2074  031B                     	;# 
  2075  038C                     	;# 
  2076  038C                     	;# 
  2077  038D                     	;# 
  2078  038E                     	;# 
  2079  0390                     	;# 
  2080  0390                     	;# 
  2081  0391                     	;# 
  2082  0392                     	;# 
  2083  048C                     	;# 
  2084  048C                     	;# 
  2085  048D                     	;# 
  2086  048E                     	;# 
  2087  048F                     	;# 
  2088  048F                     	;# 
  2089  0490                     	;# 
  2090  0491                     	;# 
  2091  0492                     	;# 
  2092  0492                     	;# 
  2093  0493                     	;# 
  2094  0494                     	;# 
  2095  0495                     	;# 
  2096  0495                     	;# 
  2097  0496                     	;# 
  2098  0497                     	;# 
  2099  0498                     	;# 
  2100  0499                     	;# 
  2101  049A                     	;# 
  2102  049B                     	;# 
  2103  049C                     	;# 
  2104  049D                     	;# 
  2105  058C                     	;# 
  2106  058C                     	;# 
  2107  058D                     	;# 
  2108  058E                     	;# 
  2109  058F                     	;# 
  2110  058F                     	;# 
  2111  0590                     	;# 
  2112  0591                     	;# 
  2113  0592                     	;# 
  2114  0593                     	;# 
  2115  059C                     	;# 
  2116  059C                     	;# 
  2117  059D                     	;# 
  2118  059D                     	;# 
  2119  059E                     	;# 
  2120  059F                     	;# 
  2121  060C                     	;# 
  2122  060C                     	;# 
  2123  060D                     	;# 
  2124  060D                     	;# 
  2125  060E                     	;# 
  2126  060F                     	;# 
  2127  0610                     	;# 
  2128  0611                     	;# 
  2129  0612                     	;# 
  2130  0613                     	;# 
  2131  0614                     	;# 
  2132  0616                     	;# 
  2133  0616                     	;# 
  2134  0617                     	;# 
  2135  0617                     	;# 
  2136  0618                     	;# 
  2137  0619                     	;# 
  2138  061A                     	;# 
  2139  061B                     	;# 
  2140  061C                     	;# 
  2141  061D                     	;# 
  2142  061E                     	;# 
  2143  070C                     	;# 
  2144  070D                     	;# 
  2145  070E                     	;# 
  2146  070F                     	;# 
  2147  0710                     	;# 
  2148  0711                     	;# 
  2149  0712                     	;# 
  2150  0713                     	;# 
  2151  0714                     	;# 
  2152  0716                     	;# 
  2153  0717                     	;# 
  2154  0718                     	;# 
  2155  0719                     	;# 
  2156  071A                     	;# 
  2157  071B                     	;# 
  2158  071C                     	;# 
  2159  071D                     	;# 
  2160  071E                     	;# 
  2161  0796                     	;# 
  2162  0797                     	;# 
  2163  0798                     	;# 
  2164  0799                     	;# 
  2165  079A                     	;# 
  2166  079B                     	;# 
  2167  079C                     	;# 
  2168  079D                     	;# 
  2169  080C                     	;# 
  2170  080D                     	;# 
  2171  080E                     	;# 
  2172  080F                     	;# 
  2173  0810                     	;# 
  2174  0811                     	;# 
  2175  0812                     	;# 
  2176  0813                     	;# 
  2177  0814                     	;# 
  2178  081A                     	;# 
  2179  081A                     	;# 
  2180  081B                     	;# 
  2181  081C                     	;# 
  2182  081C                     	;# 
  2183  081D                     	;# 
  2184  081E                     	;# 
  2185  081F                     	;# 
  2186  088C                     	;# 
  2187  088D                     	;# 
  2188  088E                     	;# 
  2189  088F                     	;# 
  2190  0890                     	;# 
  2191  0891                     	;# 
  2192  0892                     	;# 
  2193  0893                     	;# 
  2194  0895                     	;# 
  2195  0896                     	;# 
  2196  0897                     	;# 
  2197  0898                     	;# 
  2198  0899                     	;# 
  2199  089A                     	;# 
  2200  089B                     	;# 
  2201  090C                     	;# 
  2202  090E                     	;# 
  2203  090F                     	;# 
  2204  091F                     	;# 
  2205  098F                     	;# 
  2206  098F                     	;# 
  2207  0990                     	;# 
  2208  0991                     	;# 
  2209  0992                     	;# 
  2210  0993                     	;# 
  2211  0994                     	;# 
  2212  0995                     	;# 
  2213  0996                     	;# 
  2214  0997                     	;# 
  2215  1E0F                     	;# 
  2216  1E10                     	;# 
  2217  1E11                     	;# 
  2218  1E12                     	;# 
  2219  1E13                     	;# 
  2220  1E14                     	;# 
  2221  1E15                     	;# 
  2222  1E16                     	;# 
  2223  1E17                     	;# 
  2224  1E18                     	;# 
  2225  1E19                     	;# 
  2226  1E1A                     	;# 
  2227  1E1B                     	;# 
  2228  1E1C                     	;# 
  2229  1E1D                     	;# 
  2230  1E1E                     	;# 
  2231  1E1F                     	;# 
  2232  1E20                     	;# 
  2233  1E21                     	;# 
  2234  1E22                     	;# 
  2235  1E23                     	;# 
  2236  1E24                     	;# 
  2237  1E25                     	;# 
  2238  1E26                     	;# 
  2239  1E27                     	;# 
  2240  1E28                     	;# 
  2241  1E29                     	;# 
  2242  1E2A                     	;# 
  2243  1E2B                     	;# 
  2244  1E2C                     	;# 
  2245  1E2D                     	;# 
  2246  1E2E                     	;# 
  2247  1E2F                     	;# 
  2248  1E30                     	;# 
  2249  1E31                     	;# 
  2250  1E32                     	;# 
  2251  1E33                     	;# 
  2252  1E34                     	;# 
  2253  1E35                     	;# 
  2254  1E36                     	;# 
  2255  1E37                     	;# 
  2256  1E8F                     	;# 
  2257  1E90                     	;# 
  2258  1E91                     	;# 
  2259  1E92                     	;# 
  2260  1E93                     	;# 
  2261  1E94                     	;# 
  2262  1E95                     	;# 
  2263  1E96                     	;# 
  2264  1E97                     	;# 
  2265  1E9C                     	;# 
  2266  1E9D                     	;# 
  2267  1E9E                     	;# 
  2268  1EA1                     	;# 
  2269  1EA2                     	;# 
  2270  1EA3                     	;# 
  2271  1EA4                     	;# 
  2272  1EA9                     	;# 
  2273  1EAA                     	;# 
  2274  1EB1                     	;# 
  2275  1EB2                     	;# 
  2276  1EB8                     	;# 
  2277  1EB9                     	;# 
  2278  1EBA                     	;# 
  2279  1EBB                     	;# 
  2280  1EBC                     	;# 
  2281  1EBD                     	;# 
  2282  1EBE                     	;# 
  2283  1EC3                     	;# 
  2284  1EC5                     	;# 
  2285  1EC6                     	;# 
  2286  1EC7                     	;# 
  2287  1EC8                     	;# 
  2288  1EC9                     	;# 
  2289  1ECA                     	;# 
  2290  1ECB                     	;# 
  2291  1ECB                     	;# 
  2292  1ECB                     	;# 
  2293  1ECC                     	;# 
  2294  1ECC                     	;# 
  2295  1ECC                     	;# 
  2296  1F10                     	;# 
  2297  1F11                     	;# 
  2298  1F12                     	;# 
  2299  1F14                     	;# 
  2300  1F15                     	;# 
  2301  1F1C                     	;# 
  2302  1F1D                     	;# 
  2303  1F1E                     	;# 
  2304  1F1F                     	;# 
  2305  1F20                     	;# 
  2306  1F21                     	;# 
  2307  1F22                     	;# 
  2308  1F23                     	;# 
  2309  1F24                     	;# 
  2310  1F25                     	;# 
  2311  1F26                     	;# 
  2312  1F27                     	;# 
  2313  1F38                     	;# 
  2314  1F39                     	;# 
  2315  1F3A                     	;# 
  2316  1F3B                     	;# 
  2317  1F3C                     	;# 
  2318  1F3D                     	;# 
  2319  1F3E                     	;# 
  2320  1F3F                     	;# 
  2321  1F43                     	;# 
  2322  1F44                     	;# 
  2323  1F45                     	;# 
  2324  1F46                     	;# 
  2325  1F47                     	;# 
  2326  1F48                     	;# 
  2327  1F49                     	;# 
  2328  1F4A                     	;# 
  2329  1F4E                     	;# 
  2330  1F4F                     	;# 
  2331  1F50                     	;# 
  2332  1F51                     	;# 
  2333  1F52                     	;# 
  2334  1F53                     	;# 
  2335  1F54                     	;# 
  2336  1F55                     	;# 
  2337  1FE4                     	;# 
  2338  1FE5                     	;# 
  2339  1FE6                     	;# 
  2340  1FE7                     	;# 
  2341  1FE8                     	;# 
  2342  1FE8                     	;# 
  2343  1FE9                     	;# 
  2344  1FEA                     	;# 
  2345  1FEB                     	;# 
  2346  1FED                     	;# 
  2347  1FEE                     	;# 
  2348  1FEF                     	;# 
  2349  0000                     	;# 
  2350  0001                     	;# 
  2351  0002                     	;# 
  2352  0003                     	;# 
  2353  0004                     	;# 
  2354  0005                     	;# 
  2355  0006                     	;# 
  2356  0007                     	;# 
  2357  0008                     	;# 
  2358  0009                     	;# 
  2359  000A                     	;# 
  2360  000B                     	;# 
  2361  000C                     	;# 
  2362  000D                     	;# 
  2363  000E                     	;# 
  2364  0012                     	;# 
  2365  0013                     	;# 
  2366  0014                     	;# 
  2367  0018                     	;# 
  2368  0019                     	;# 
  2369  001A                     	;# 
  2370  008C                     	;# 
  2371  008C                     	;# 
  2372  008D                     	;# 
  2373  008E                     	;# 
  2374  008E                     	;# 
  2375  008F                     	;# 
  2376  0090                     	;# 
  2377  0090                     	;# 
  2378  0091                     	;# 
  2379  0092                     	;# 
  2380  0092                     	;# 
  2381  0093                     	;# 
  2382  0094                     	;# 
  2383  0094                     	;# 
  2384  0095                     	;# 
  2385  0096                     	;# 
  2386  0096                     	;# 
  2387  0097                     	;# 
  2388  0098                     	;# 
  2389  0099                     	;# 
  2390  009A                     	;# 
  2391  009B                     	;# 
  2392  009B                     	;# 
  2393  009C                     	;# 
  2394  009D                     	;# 
  2395  009D                     	;# 
  2396  009E                     	;# 
  2397  009F                     	;# 
  2398  010C                     	;# 
  2399  010C                     	;# 
  2400  010D                     	;# 
  2401  010E                     	;# 
  2402  010F                     	;# 
  2403  010F                     	;# 
  2404  0110                     	;# 
  2405  0111                     	;# 
  2406  0112                     	;# 
  2407  0113                     	;# 
  2408  0114                     	;# 
  2409  0115                     	;# 
  2410  0116                     	;# 
  2411  0117                     	;# 
  2412  0118                     	;# 
  2413  0119                     	;# 
  2414  0119                     	;# 
  2415  0119                     	;# 
  2416  011A                     	;# 
  2417  011A                     	;# 
  2418  011A                     	;# 
  2419  011B                     	;# 
  2420  011B                     	;# 
  2421  011B                     	;# 
  2422  011B                     	;# 
  2423  011B                     	;# 
  2424  011C                     	;# 
  2425  011C                     	;# 
  2426  011C                     	;# 
  2427  011D                     	;# 
  2428  011D                     	;# 
  2429  011D                     	;# 
  2430  011E                     	;# 
  2431  011E                     	;# 
  2432  011E                     	;# 
  2433  011F                     	;# 
  2434  011F                     	;# 
  2435  011F                     	;# 
  2436  011F                     	;# 
  2437  011F                     	;# 
  2438  018C                     	;# 
  2439  018D                     	;# 
  2440  018E                     	;# 
  2441  018F                     	;# 
  2442  0190                     	;# 
  2443  0191                     	;# 
  2444  0192                     	;# 
  2445  0196                     	;# 
  2446  0197                     	;# 
  2447  0198                     	;# 
  2448  0199                     	;# 
  2449  019A                     	;# 
  2450  019B                     	;# 
  2451  019C                     	;# 
  2452  020C                     	;# 
  2453  020D                     	;# 
  2454  020E                     	;# 
  2455  020E                     	;# 
  2456  020F                     	;# 
  2457  020F                     	;# 
  2458  0210                     	;# 
  2459  0210                     	;# 
  2460  0211                     	;# 
  2461  0211                     	;# 
  2462  0212                     	;# 
  2463  0213                     	;# 
  2464  0214                     	;# 
  2465  0214                     	;# 
  2466  0215                     	;# 
  2467  0215                     	;# 
  2468  0216                     	;# 
  2469  0216                     	;# 
  2470  0217                     	;# 
  2471  0217                     	;# 
  2472  0218                     	;# 
  2473  0219                     	;# 
  2474  021A                     	;# 
  2475  021A                     	;# 
  2476  021B                     	;# 
  2477  021B                     	;# 
  2478  021C                     	;# 
  2479  021C                     	;# 
  2480  021D                     	;# 
  2481  021D                     	;# 
  2482  021E                     	;# 
  2483  021F                     	;# 
  2484  028C                     	;# 
  2485  028C                     	;# 
  2486  028D                     	;# 
  2487  028D                     	;# 
  2488  028E                     	;# 
  2489  028F                     	;# 
  2490  0290                     	;# 
  2491  0291                     	;# 
  2492  0292                     	;# 
  2493  0292                     	;# 
  2494  0293                     	;# 
  2495  0293                     	;# 
  2496  0294                     	;# 
  2497  0295                     	;# 
  2498  0296                     	;# 
  2499  0297                     	;# 
  2500  0298                     	;# 
  2501  0298                     	;# 
  2502  0299                     	;# 
  2503  0299                     	;# 
  2504  029A                     	;# 
  2505  029B                     	;# 
  2506  029C                     	;# 
  2507  029D                     	;# 
  2508  029F                     	;# 
  2509  030C                     	;# 
  2510  030C                     	;# 
  2511  030D                     	;# 
  2512  030E                     	;# 
  2513  030F                     	;# 
  2514  0310                     	;# 
  2515  0310                     	;# 
  2516  0311                     	;# 
  2517  0312                     	;# 
  2518  0313                     	;# 
  2519  0314                     	;# 
  2520  0314                     	;# 
  2521  0315                     	;# 
  2522  0316                     	;# 
  2523  0317                     	;# 
  2524  0318                     	;# 
  2525  0318                     	;# 
  2526  0319                     	;# 
  2527  031A                     	;# 
  2528  031B                     	;# 
  2529  038C                     	;# 
  2530  038C                     	;# 
  2531  038D                     	;# 
  2532  038E                     	;# 
  2533  0390                     	;# 
  2534  0390                     	;# 
  2535  0391                     	;# 
  2536  0392                     	;# 
  2537  048C                     	;# 
  2538  048C                     	;# 
  2539  048D                     	;# 
  2540  048E                     	;# 
  2541  048F                     	;# 
  2542  048F                     	;# 
  2543  0490                     	;# 
  2544  0491                     	;# 
  2545  0492                     	;# 
  2546  0492                     	;# 
  2547  0493                     	;# 
  2548  0494                     	;# 
  2549  0495                     	;# 
  2550  0495                     	;# 
  2551  0496                     	;# 
  2552  0497                     	;# 
  2553  0498                     	;# 
  2554  0499                     	;# 
  2555  049A                     	;# 
  2556  049B                     	;# 
  2557  049C                     	;# 
  2558  049D                     	;# 
  2559  058C                     	;# 
  2560  058C                     	;# 
  2561  058D                     	;# 
  2562  058E                     	;# 
  2563  058F                     	;# 
  2564  058F                     	;# 
  2565  0590                     	;# 
  2566  0591                     	;# 
  2567  0592                     	;# 
  2568  0593                     	;# 
  2569  059C                     	;# 
  2570  059C                     	;# 
  2571  059D                     	;# 
  2572  059D                     	;# 
  2573  059E                     	;# 
  2574  059F                     	;# 
  2575  060C                     	;# 
  2576  060C                     	;# 
  2577  060D                     	;# 
  2578  060D                     	;# 
  2579  060E                     	;# 
  2580  060F                     	;# 
  2581  0610                     	;# 
  2582  0611                     	;# 
  2583  0612                     	;# 
  2584  0613                     	;# 
  2585  0614                     	;# 
  2586  0616                     	;# 
  2587  0616                     	;# 
  2588  0617                     	;# 
  2589  0617                     	;# 
  2590  0618                     	;# 
  2591  0619                     	;# 
  2592  061A                     	;# 
  2593  061B                     	;# 
  2594  061C                     	;# 
  2595  061D                     	;# 
  2596  061E                     	;# 
  2597  070C                     	;# 
  2598  070D                     	;# 
  2599  070E                     	;# 
  2600  070F                     	;# 
  2601  0710                     	;# 
  2602  0711                     	;# 
  2603  0712                     	;# 
  2604  0713                     	;# 
  2605  0714                     	;# 
  2606  0716                     	;# 
  2607  0717                     	;# 
  2608  0718                     	;# 
  2609  0719                     	;# 
  2610  071A                     	;# 
  2611  071B                     	;# 
  2612  071C                     	;# 
  2613  071D                     	;# 
  2614  071E                     	;# 
  2615  0796                     	;# 
  2616  0797                     	;# 
  2617  0798                     	;# 
  2618  0799                     	;# 
  2619  079A                     	;# 
  2620  079B                     	;# 
  2621  079C                     	;# 
  2622  079D                     	;# 
  2623  080C                     	;# 
  2624  080D                     	;# 
  2625  080E                     	;# 
  2626  080F                     	;# 
  2627  0810                     	;# 
  2628  0811                     	;# 
  2629  0812                     	;# 
  2630  0813                     	;# 
  2631  0814                     	;# 
  2632  081A                     	;# 
  2633  081A                     	;# 
  2634  081B                     	;# 
  2635  081C                     	;# 
  2636  081C                     	;# 
  2637  081D                     	;# 
  2638  081E                     	;# 
  2639  081F                     	;# 
  2640  088C                     	;# 
  2641  088D                     	;# 
  2642  088E                     	;# 
  2643  088F                     	;# 
  2644  0890                     	;# 
  2645  0891                     	;# 
  2646  0892                     	;# 
  2647  0893                     	;# 
  2648  0895                     	;# 
  2649  0896                     	;# 
  2650  0897                     	;# 
  2651  0898                     	;# 
  2652  0899                     	;# 
  2653  089A                     	;# 
  2654  089B                     	;# 
  2655  090C                     	;# 
  2656  090E                     	;# 
  2657  090F                     	;# 
  2658  091F                     	;# 
  2659  098F                     	;# 
  2660  098F                     	;# 
  2661  0990                     	;# 
  2662  0991                     	;# 
  2663  0992                     	;# 
  2664  0993                     	;# 
  2665  0994                     	;# 
  2666  0995                     	;# 
  2667  0996                     	;# 
  2668  0997                     	;# 
  2669  1E0F                     	;# 
  2670  1E10                     	;# 
  2671  1E11                     	;# 
  2672  1E12                     	;# 
  2673  1E13                     	;# 
  2674  1E14                     	;# 
  2675  1E15                     	;# 
  2676  1E16                     	;# 
  2677  1E17                     	;# 
  2678  1E18                     	;# 
  2679  1E19                     	;# 
  2680  1E1A                     	;# 
  2681  1E1B                     	;# 
  2682  1E1C                     	;# 
  2683  1E1D                     	;# 
  2684  1E1E                     	;# 
  2685  1E1F                     	;# 
  2686  1E20                     	;# 
  2687  1E21                     	;# 
  2688  1E22                     	;# 
  2689  1E23                     	;# 
  2690  1E24                     	;# 
  2691  1E25                     	;# 
  2692  1E26                     	;# 
  2693  1E27                     	;# 
  2694  1E28                     	;# 
  2695  1E29                     	;# 
  2696  1E2A                     	;# 
  2697  1E2B                     	;# 
  2698  1E2C                     	;# 
  2699  1E2D                     	;# 
  2700  1E2E                     	;# 
  2701  1E2F                     	;# 
  2702  1E30                     	;# 
  2703  1E31                     	;# 
  2704  1E32                     	;# 
  2705  1E33                     	;# 
  2706  1E34                     	;# 
  2707  1E35                     	;# 
  2708  1E36                     	;# 
  2709  1E37                     	;# 
  2710  1E8F                     	;# 
  2711  1E90                     	;# 
  2712  1E91                     	;# 
  2713  1E92                     	;# 
  2714  1E93                     	;# 
  2715  1E94                     	;# 
  2716  1E95                     	;# 
  2717  1E96                     	;# 
  2718  1E97                     	;# 
  2719  1E9C                     	;# 
  2720  1E9D                     	;# 
  2721  1E9E                     	;# 
  2722  1EA1                     	;# 
  2723  1EA2                     	;# 
  2724  1EA3                     	;# 
  2725  1EA4                     	;# 
  2726  1EA9                     	;# 
  2727  1EAA                     	;# 
  2728  1EB1                     	;# 
  2729  1EB2                     	;# 
  2730  1EB8                     	;# 
  2731  1EB9                     	;# 
  2732  1EBA                     	;# 
  2733  1EBB                     	;# 
  2734  1EBC                     	;# 
  2735  1EBD                     	;# 
  2736  1EBE                     	;# 
  2737  1EC3                     	;# 
  2738  1EC5                     	;# 
  2739  1EC6                     	;# 
  2740  1EC7                     	;# 
  2741  1EC8                     	;# 
  2742  1EC9                     	;# 
  2743  1ECA                     	;# 
  2744  1ECB                     	;# 
  2745  1ECB                     	;# 
  2746  1ECB                     	;# 
  2747  1ECC                     	;# 
  2748  1ECC                     	;# 
  2749  1ECC                     	;# 
  2750  1F10                     	;# 
  2751  1F11                     	;# 
  2752  1F12                     	;# 
  2753  1F14                     	;# 
  2754  1F15                     	;# 
  2755  1F1C                     	;# 
  2756  1F1D                     	;# 
  2757  1F1E                     	;# 
  2758  1F1F                     	;# 
  2759  1F20                     	;# 
  2760  1F21                     	;# 
  2761  1F22                     	;# 
  2762  1F23                     	;# 
  2763  1F24                     	;# 
  2764  1F25                     	;# 
  2765  1F26                     	;# 
  2766  1F27                     	;# 
  2767  1F38                     	;# 
  2768  1F39                     	;# 
  2769  1F3A                     	;# 
  2770  1F3B                     	;# 
  2771  1F3C                     	;# 
  2772  1F3D                     	;# 
  2773  1F3E                     	;# 
  2774  1F3F                     	;# 
  2775  1F43                     	;# 
  2776  1F44                     	;# 
  2777  1F45                     	;# 
  2778  1F46                     	;# 
  2779  1F47                     	;# 
  2780  1F48                     	;# 
  2781  1F49                     	;# 
  2782  1F4A                     	;# 
  2783  1F4E                     	;# 
  2784  1F4F                     	;# 
  2785  1F50                     	;# 
  2786  1F51                     	;# 
  2787  1F52                     	;# 
  2788  1F53                     	;# 
  2789  1F54                     	;# 
  2790  1F55                     	;# 
  2791  1FE4                     	;# 
  2792  1FE5                     	;# 
  2793  1FE6                     	;# 
  2794  1FE7                     	;# 
  2795  1FE8                     	;# 
  2796  1FE8                     	;# 
  2797  1FE9                     	;# 
  2798  1FEA                     	;# 
  2799  1FEB                     	;# 
  2800  1FED                     	;# 
  2801  1FEE                     	;# 
  2802  1FEF                     	;# 
  2803  0000                     	;# 
  2804  0001                     	;# 
  2805  0002                     	;# 
  2806  0003                     	;# 
  2807  0004                     	;# 
  2808  0005                     	;# 
  2809  0006                     	;# 
  2810  0007                     	;# 
  2811  0008                     	;# 
  2812  0009                     	;# 
  2813  000A                     	;# 
  2814  000B                     	;# 
  2815  000C                     	;# 
  2816  000D                     	;# 
  2817  000E                     	;# 
  2818  0012                     	;# 
  2819  0013                     	;# 
  2820  0014                     	;# 
  2821  0018                     	;# 
  2822  0019                     	;# 
  2823  001A                     	;# 
  2824  008C                     	;# 
  2825  008C                     	;# 
  2826  008D                     	;# 
  2827  008E                     	;# 
  2828  008E                     	;# 
  2829  008F                     	;# 
  2830  0090                     	;# 
  2831  0090                     	;# 
  2832  0091                     	;# 
  2833  0092                     	;# 
  2834  0092                     	;# 
  2835  0093                     	;# 
  2836  0094                     	;# 
  2837  0094                     	;# 
  2838  0095                     	;# 
  2839  0096                     	;# 
  2840  0096                     	;# 
  2841  0097                     	;# 
  2842  0098                     	;# 
  2843  0099                     	;# 
  2844  009A                     	;# 
  2845  009B                     	;# 
  2846  009B                     	;# 
  2847  009C                     	;# 
  2848  009D                     	;# 
  2849  009D                     	;# 
  2850  009E                     	;# 
  2851  009F                     	;# 
  2852  010C                     	;# 
  2853  010C                     	;# 
  2854  010D                     	;# 
  2855  010E                     	;# 
  2856  010F                     	;# 
  2857  010F                     	;# 
  2858  0110                     	;# 
  2859  0111                     	;# 
  2860  0112                     	;# 
  2861  0113                     	;# 
  2862  0114                     	;# 
  2863  0115                     	;# 
  2864  0116                     	;# 
  2865  0117                     	;# 
  2866  0118                     	;# 
  2867  0119                     	;# 
  2868  0119                     	;# 
  2869  0119                     	;# 
  2870  011A                     	;# 
  2871  011A                     	;# 
  2872  011A                     	;# 
  2873  011B                     	;# 
  2874  011B                     	;# 
  2875  011B                     	;# 
  2876  011B                     	;# 
  2877  011B                     	;# 
  2878  011C                     	;# 
  2879  011C                     	;# 
  2880  011C                     	;# 
  2881  011D                     	;# 
  2882  011D                     	;# 
  2883  011D                     	;# 
  2884  011E                     	;# 
  2885  011E                     	;# 
  2886  011E                     	;# 
  2887  011F                     	;# 
  2888  011F                     	;# 
  2889  011F                     	;# 
  2890  011F                     	;# 
  2891  011F                     	;# 
  2892  018C                     	;# 
  2893  018D                     	;# 
  2894  018E                     	;# 
  2895  018F                     	;# 
  2896  0190                     	;# 
  2897  0191                     	;# 
  2898  0192                     	;# 
  2899  0196                     	;# 
  2900  0197                     	;# 
  2901  0198                     	;# 
  2902  0199                     	;# 
  2903  019A                     	;# 
  2904  019B                     	;# 
  2905  019C                     	;# 
  2906  020C                     	;# 
  2907  020D                     	;# 
  2908  020E                     	;# 
  2909  020E                     	;# 
  2910  020F                     	;# 
  2911  020F                     	;# 
  2912  0210                     	;# 
  2913  0210                     	;# 
  2914  0211                     	;# 
  2915  0211                     	;# 
  2916  0212                     	;# 
  2917  0213                     	;# 
  2918  0214                     	;# 
  2919  0214                     	;# 
  2920  0215                     	;# 
  2921  0215                     	;# 
  2922  0216                     	;# 
  2923  0216                     	;# 
  2924  0217                     	;# 
  2925  0217                     	;# 
  2926  0218                     	;# 
  2927  0219                     	;# 
  2928  021A                     	;# 
  2929  021A                     	;# 
  2930  021B                     	;# 
  2931  021B                     	;# 
  2932  021C                     	;# 
  2933  021C                     	;# 
  2934  021D                     	;# 
  2935  021D                     	;# 
  2936  021E                     	;# 
  2937  021F                     	;# 
  2938  028C                     	;# 
  2939  028C                     	;# 
  2940  028D                     	;# 
  2941  028D                     	;# 
  2942  028E                     	;# 
  2943  028F                     	;# 
  2944  0290                     	;# 
  2945  0291                     	;# 
  2946  0292                     	;# 
  2947  0292                     	;# 
  2948  0293                     	;# 
  2949  0293                     	;# 
  2950  0294                     	;# 
  2951  0295                     	;# 
  2952  0296                     	;# 
  2953  0297                     	;# 
  2954  0298                     	;# 
  2955  0298                     	;# 
  2956  0299                     	;# 
  2957  0299                     	;# 
  2958  029A                     	;# 
  2959  029B                     	;# 
  2960  029C                     	;# 
  2961  029D                     	;# 
  2962  029F                     	;# 
  2963  030C                     	;# 
  2964  030C                     	;# 
  2965  030D                     	;# 
  2966  030E                     	;# 
  2967  030F                     	;# 
  2968  0310                     	;# 
  2969  0310                     	;# 
  2970  0311                     	;# 
  2971  0312                     	;# 
  2972  0313                     	;# 
  2973  0314                     	;# 
  2974  0314                     	;# 
  2975  0315                     	;# 
  2976  0316                     	;# 
  2977  0317                     	;# 
  2978  0318                     	;# 
  2979  0318                     	;# 
  2980  0319                     	;# 
  2981  031A                     	;# 
  2982  031B                     	;# 
  2983  038C                     	;# 
  2984  038C                     	;# 
  2985  038D                     	;# 
  2986  038E                     	;# 
  2987  0390                     	;# 
  2988  0390                     	;# 
  2989  0391                     	;# 
  2990  0392                     	;# 
  2991  048C                     	;# 
  2992  048C                     	;# 
  2993  048D                     	;# 
  2994  048E                     	;# 
  2995  048F                     	;# 
  2996  048F                     	;# 
  2997  0490                     	;# 
  2998  0491                     	;# 
  2999  0492                     	;# 
  3000  0492                     	;# 
  3001  0493                     	;# 
  3002  0494                     	;# 
  3003  0495                     	;# 
  3004  0495                     	;# 
  3005  0496                     	;# 
  3006  0497                     	;# 
  3007  0498                     	;# 
  3008  0499                     	;# 
  3009  049A                     	;# 
  3010  049B                     	;# 
  3011  049C                     	;# 
  3012  049D                     	;# 
  3013  058C                     	;# 
  3014  058C                     	;# 
  3015  058D                     	;# 
  3016  058E                     	;# 
  3017  058F                     	;# 
  3018  058F                     	;# 
  3019  0590                     	;# 
  3020  0591                     	;# 
  3021  0592                     	;# 
  3022  0593                     	;# 
  3023  059C                     	;# 
  3024  059C                     	;# 
  3025  059D                     	;# 
  3026  059D                     	;# 
  3027  059E                     	;# 
  3028  059F                     	;# 
  3029  060C                     	;# 
  3030  060C                     	;# 
  3031  060D                     	;# 
  3032  060D                     	;# 
  3033  060E                     	;# 
  3034  060F                     	;# 
  3035  0610                     	;# 
  3036  0611                     	;# 
  3037  0612                     	;# 
  3038  0613                     	;# 
  3039  0614                     	;# 
  3040  0616                     	;# 
  3041  0616                     	;# 
  3042  0617                     	;# 
  3043  0617                     	;# 
  3044  0618                     	;# 
  3045  0619                     	;# 
  3046  061A                     	;# 
  3047  061B                     	;# 
  3048  061C                     	;# 
  3049  061D                     	;# 
  3050  061E                     	;# 
  3051  070C                     	;# 
  3052  070D                     	;# 
  3053  070E                     	;# 
  3054  070F                     	;# 
  3055  0710                     	;# 
  3056  0711                     	;# 
  3057  0712                     	;# 
  3058  0713                     	;# 
  3059  0714                     	;# 
  3060  0716                     	;# 
  3061  0717                     	;# 
  3062  0718                     	;# 
  3063  0719                     	;# 
  3064  071A                     	;# 
  3065  071B                     	;# 
  3066  071C                     	;# 
  3067  071D                     	;# 
  3068  071E                     	;# 
  3069  0796                     	;# 
  3070  0797                     	;# 
  3071  0798                     	;# 
  3072  0799                     	;# 
  3073  079A                     	;# 
  3074  079B                     	;# 
  3075  079C                     	;# 
  3076  079D                     	;# 
  3077  080C                     	;# 
  3078  080D                     	;# 
  3079  080E                     	;# 
  3080  080F                     	;# 
  3081  0810                     	;# 
  3082  0811                     	;# 
  3083  0812                     	;# 
  3084  0813                     	;# 
  3085  0814                     	;# 
  3086  081A                     	;# 
  3087  081A                     	;# 
  3088  081B                     	;# 
  3089  081C                     	;# 
  3090  081C                     	;# 
  3091  081D                     	;# 
  3092  081E                     	;# 
  3093  081F                     	;# 
  3094  088C                     	;# 
  3095  088D                     	;# 
  3096  088E                     	;# 
  3097  088F                     	;# 
  3098  0890                     	;# 
  3099  0891                     	;# 
  3100  0892                     	;# 
  3101  0893                     	;# 
  3102  0895                     	;# 
  3103  0896                     	;# 
  3104  0897                     	;# 
  3105  0898                     	;# 
  3106  0899                     	;# 
  3107  089A                     	;# 
  3108  089B                     	;# 
  3109  090C                     	;# 
  3110  090E                     	;# 
  3111  090F                     	;# 
  3112  091F                     	;# 
  3113  098F                     	;# 
  3114  098F                     	;# 
  3115  0990                     	;# 
  3116  0991                     	;# 
  3117  0992                     	;# 
  3118  0993                     	;# 
  3119  0994                     	;# 
  3120  0995                     	;# 
  3121  0996                     	;# 
  3122  0997                     	;# 
  3123  1E0F                     	;# 
  3124  1E10                     	;# 
  3125  1E11                     	;# 
  3126  1E12                     	;# 
  3127  1E13                     	;# 
  3128  1E14                     	;# 
  3129  1E15                     	;# 
  3130  1E16                     	;# 
  3131  1E17                     	;# 
  3132  1E18                     	;# 
  3133  1E19                     	;# 
  3134  1E1A                     	;# 
  3135  1E1B                     	;# 
  3136  1E1C                     	;# 
  3137  1E1D                     	;# 
  3138  1E1E                     	;# 
  3139  1E1F                     	;# 
  3140  1E20                     	;# 
  3141  1E21                     	;# 
  3142  1E22                     	;# 
  3143  1E23                     	;# 
  3144  1E24                     	;# 
  3145  1E25                     	;# 
  3146  1E26                     	;# 
  3147  1E27                     	;# 
  3148  1E28                     	;# 
  3149  1E29                     	;# 
  3150  1E2A                     	;# 
  3151  1E2B                     	;# 
  3152  1E2C                     	;# 
  3153  1E2D                     	;# 
  3154  1E2E                     	;# 
  3155  1E2F                     	;# 
  3156  1E30                     	;# 
  3157  1E31                     	;# 
  3158  1E32                     	;# 
  3159  1E33                     	;# 
  3160  1E34                     	;# 
  3161  1E35                     	;# 
  3162  1E36                     	;# 
  3163  1E37                     	;# 
  3164  1E8F                     	;# 
  3165  1E90                     	;# 
  3166  1E91                     	;# 
  3167  1E92                     	;# 
  3168  1E93                     	;# 
  3169  1E94                     	;# 
  3170  1E95                     	;# 
  3171  1E96                     	;# 
  3172  1E97                     	;# 
  3173  1E9C                     	;# 
  3174  1E9D                     	;# 
  3175  1E9E                     	;# 
  3176  1EA1                     	;# 
  3177  1EA2                     	;# 
  3178  1EA3                     	;# 
  3179  1EA4                     	;# 
  3180  1EA9                     	;# 
  3181  1EAA                     	;# 
  3182  1EB1                     	;# 
  3183  1EB2                     	;# 
  3184  1EB8                     	;# 
  3185  1EB9                     	;# 
  3186  1EBA                     	;# 
  3187  1EBB                     	;# 
  3188  1EBC                     	;# 
  3189  1EBD                     	;# 
  3190  1EBE                     	;# 
  3191  1EC3                     	;# 
  3192  1EC5                     	;# 
  3193  1EC6                     	;# 
  3194  1EC7                     	;# 
  3195  1EC8                     	;# 
  3196  1EC9                     	;# 
  3197  1ECA                     	;# 
  3198  1ECB                     	;# 
  3199  1ECB                     	;# 
  3200  1ECB                     	;# 
  3201  1ECC                     	;# 
  3202  1ECC                     	;# 
  3203  1ECC                     	;# 
  3204  1F10                     	;# 
  3205  1F11                     	;# 
  3206  1F12                     	;# 
  3207  1F14                     	;# 
  3208  1F15                     	;# 
  3209  1F1C                     	;# 
  3210  1F1D                     	;# 
  3211  1F1E                     	;# 
  3212  1F1F                     	;# 
  3213  1F20                     	;# 
  3214  1F21                     	;# 
  3215  1F22                     	;# 
  3216  1F23                     	;# 
  3217  1F24                     	;# 
  3218  1F25                     	;# 
  3219  1F26                     	;# 
  3220  1F27                     	;# 
  3221  1F38                     	;# 
  3222  1F39                     	;# 
  3223  1F3A                     	;# 
  3224  1F3B                     	;# 
  3225  1F3C                     	;# 
  3226  1F3D                     	;# 
  3227  1F3E                     	;# 
  3228  1F3F                     	;# 
  3229  1F43                     	;# 
  3230  1F44                     	;# 
  3231  1F45                     	;# 
  3232  1F46                     	;# 
  3233  1F47                     	;# 
  3234  1F48                     	;# 
  3235  1F49                     	;# 
  3236  1F4A                     	;# 
  3237  1F4E                     	;# 
  3238  1F4F                     	;# 
  3239  1F50                     	;# 
  3240  1F51                     	;# 
  3241  1F52                     	;# 
  3242  1F53                     	;# 
  3243  1F54                     	;# 
  3244  1F55                     	;# 
  3245  1FE4                     	;# 
  3246  1FE5                     	;# 
  3247  1FE6                     	;# 
  3248  1FE7                     	;# 
  3249  1FE8                     	;# 
  3250  1FE8                     	;# 
  3251  1FE9                     	;# 
  3252  1FEA                     	;# 
  3253  1FEB                     	;# 
  3254  1FED                     	;# 
  3255  1FEE                     	;# 
  3256  1FEF                     	;# 
  3257                           
  3258                           	psect	idataCOMMON
  3259  03B5                     __pidataCOMMON:
  3260                           
  3261                           ;initializer for _I2C1_slaveWriteData
  3262  03B5  3455               	retlw	85
  3263                           
  3264                           	psect	idataBANK0
  3265  036A                     __pidataBANK0:
  3266                           
  3267                           ;initializer for _sensorAPI
  3268  036A  34DB               	retlw	low _Power_Init
  3269  036B  3402               	retlw	high _Power_Init
  3270  036C  34AE               	retlw	low _Power_Measure
  3271  036D  3403               	retlw	high _Power_Measure
  3272  036E  340D               	retlw	low _Power_Loop
  3273  036F  3403               	retlw	high _Power_Loop
  3274  0370  3424               	retlw	low _Power_GetData
  3275  0371  3403               	retlw	high _Power_GetData
  3276  0372  34F5               	retlw	low _Power_SetThreshold
  3277  0373  3402               	retlw	high _Power_SetThreshold
  3278                           
  3279                           ;initializer for _SensorInterruptHandler
  3280  0374  34B6               	retlw	low _DefaultSensorInterruptHandler
  3281  0375  3403               	retlw	high _DefaultSensorInterruptHandler
  3282  001A                     _LATC	set	26
  3283  0019                     _LATB	set	25
  3284  0018                     _LATA	set	24
  3285  0014                     _TRISC	set	20
  3286  0013                     _TRISB	set	19
  3287  0012                     _TRISA	set	18
  3288  000B                     _INTCONbits	set	11
  3289  0013                     _TRISBbits	set	19
  3290  0014                     _TRISCbits	set	20
  3291  001A                     _LATCbits	set	26
  3292  0019                     _LATBbits	set	25
  3293  0090                     _ADERRL	set	144
  3294  0091                     _ADERRH	set	145
  3295  009B                     _ADPREVL	set	155
  3296  009C                     _ADPREVH	set	156
  3297  0094                     _ADFLTRL	set	148
  3298  0095                     _ADFLTRH	set	149
  3299  0096                     _ADACCL	set	150
  3300  0097                     _ADACCH	set	151
  3301  0099                     _ADCNT	set	153
  3302  009D                     _ADRESL	set	157
  3303  009E                     _ADRESH	set	158
  3304  009F                     _ADPCH	set	159
  3305  009A                     _ADRPT	set	154
  3306  0098                     _ADACCU	set	152
  3307  0093                     _ADSTPTH	set	147
  3308  0092                     _ADSTPTL	set	146
  3309  008F                     _ADUTHH	set	143
  3310  008E                     _ADUTHL	set	142
  3311  008D                     _ADLTHH	set	141
  3312  008C                     _ADLTHL	set	140
  3313  0112                     _ADCON1bits	set	274
  3314  0115                     _ADSTATbits	set	277
  3315  0113                     _ADCON2bits	set	275
  3316  0114                     _ADCON3bits	set	276
  3317  0111                     _ADCON0bits	set	273
  3318  0111                     _ADCON0	set	273
  3319  0118                     _ADCLK	set	280
  3320  0117                     _ADACT	set	279
  3321  0116                     _ADREF	set	278
  3322  0115                     _ADSTAT	set	277
  3323  0114                     _ADCON3	set	276
  3324  0113                     _ADCON2	set	275
  3325  0112                     _ADCON1	set	274
  3326  0110                     _ADPREH	set	272
  3327  010F                     _ADPREL	set	271
  3328  010E                     _ADCAP	set	270
  3329  010D                     _ADACQH	set	269
  3330  010C                     _ADACQL	set	268
  3331  0190                     _SSP1CON1bits	set	400
  3332  0191                     _SSP1CON2bits	set	401
  3333  018F                     _SSP1STATbits	set	399
  3334  018C                     _SSP1BUF	set	396
  3335  018D                     _SSP1ADD	set	397
  3336  018E                     _SSP1MSK	set	398
  3337  0192                     _SSP1CON3bits	set	402
  3338  0192                     _SSP1CON3	set	402
  3339  0191                     _SSP1CON2	set	401
  3340  0190                     _SSP1CON1	set	400
  3341  018F                     _SSP1STAT	set	399
  3342  070D                     _PIR1bits	set	1805
  3343  0717                     _PIE1bits	set	1815
  3344  0719                     _PIE3bits	set	1817
  3345  070F                     _PIR3bits	set	1807
  3346  079D                     _PMD7	set	1949
  3347  079C                     _PMD6	set	1948
  3348  079B                     _PMD5	set	1947
  3349  079A                     _PMD4	set	1946
  3350  0799                     _PMD3	set	1945
  3351  0798                     _PMD2	set	1944
  3352  0797                     _PMD1	set	1943
  3353  0796                     _PMD0bits	set	1942
  3354  0796                     _PMD0	set	1942
  3355  079C                     _PMD6bits	set	1948
  3356  0812                     _VREGCONbits	set	2066
  3357  0893                     _OSCFRQ	set	2195
  3358  088D                     _OSCCON1	set	2189
  3359  088C                     _CPUDOZEbits	set	2188
  3360  090C                     _FVRCON	set	2316
  3361  1EC6                     _SSP1DATPPS	set	7878
  3362  1EC5                     _SSP1CLKPPS	set	7877
  3363  1F4E                     _ANSELC	set	8014
  3364  1F43                     _ANSELB	set	8003
  3365  1F38                     _ANSELA	set	7992
  3366  1F1D                     _RB5PPS	set	7965
  3367  1F1F                     _RB7PPS	set	7967
  3368  1F4E                     _ANSELCbits	set	8014
  3369  1F43                     _ANSELBbits	set	8003
  3370                           
  3371                           	psect	cinit
  3372  002D                     start_initialization:	
  3373                           ; #config settings
  3374                           
  3375  002D                     __initialization:
  3376                           
  3377                           ; Initialize objects allocated to COMMON
  3378  002D  3183  23B5  3180   	fcall	__pidataCOMMON	;fetch initializer
  3379  0030  00F9               	movwf	__pdataCOMMON& (0+127)
  3380                           
  3381                           ; Initialize objects allocated to BANK0
  3382  0031  306A               	movlw	low __pidataBANK0
  3383  0032  0084               	movwf	4
  3384  0033  3083               	movlw	(high __pidataBANK0)| (0+128)
  3385  0034  0085               	movwf	5
  3386  0035  3061               	movlw	low __pdataBANK0
  3387  0036  0086               	movwf	6
  3388  0037  3000               	movlw	high __pdataBANK0
  3389  0038  0087               	movwf	7
  3390  0039  300C               	movlw	12
  3391  003A  3183  239C  3180   	fcall	init_ram
  3392                           
  3393                           ; Clear objects allocated to COMMON
  3394  003D  01F6               	clrf	__pbssCOMMON& (0+127)
  3395  003E  01F7               	clrf	(__pbssCOMMON+1)& (0+127)
  3396  003F  01F8               	clrf	(__pbssCOMMON+2)& (0+127)
  3397                           
  3398                           ; Clear objects allocated to BANK0
  3399  0040  3020               	movlw	low __pbssBANK0
  3400  0041  0084               	movwf	4
  3401  0042  3000               	movlw	high __pbssBANK0
  3402  0043  0085               	movwf	5
  3403  0044  3023               	movlw	35
  3404  0045  3183  23A2  3180   	fcall	clear_ram0
  3405                           
  3406                           ; Clear objects allocated to BANK1
  3407  0048  30A0               	movlw	low __pbssBANK1
  3408  0049  0084               	movwf	4
  3409  004A  3000               	movlw	high __pbssBANK1
  3410  004B  0085               	movwf	5
  3411  004C  3040               	movlw	64
  3412  004D  3183  23A2  3180   	fcall	clear_ram0
  3413  0050                     end_of_initialization:	
  3414                           ;End of C runtime variable initialization code
  3415                           
  3416  0050                     __end_of__initialization:
  3417  0050  107E               	bcf	int$flags,0	;clear compiler interrupt flag (level 1)
  3418  0051  0140               	movlb	0
  3419  0052  3180  2854         	ljmp	_main	;jump to C main() function
  3420                           
  3421                           	psect	bssCOMMON
  3422  0076                     __pbssCOMMON:
  3423  0076                     _txCnt:
  3424  0076                     	ds	1
  3425  0077                     _rxLen:
  3426  0077                     	ds	1
  3427  0078                     _batteryundervoltage:
  3428  0078                     	ds	1
  3429                           
  3430                           	psect	dataCOMMON
  3431  0079                     __pdataCOMMON:
  3432  0079                     _I2C1_slaveWriteData:
  3433  0079                     	ds	1
  3434                           
  3435                           	psect	bssBANK0
  3436  0020                     __pbssBANK0:
  3437  0020                     _measurementData:
  3438  0020                     	ds	6
  3439  0026                     _floatbatvoltage:
  3440  0026                     	ds	3
  3441  0029                     _floatsolvoltage:
  3442  0029                     	ds	3
  3443  002C                     _errno:
  3444  002C                     	ds	2
  3445  002E                     _ADCC_ADI_InterruptHandler:
  3446  002E                     	ds	2
  3447  0030                     _tempValue:
  3448  0030                     	ds	2
  3449  0032                     I2C1_StatusCallback@slaveWriteType:
  3450  0032                     	ds	1
  3451  0033                     _txLen:
  3452  0033                     	ds	1
  3453  0034                     _cmdReceived:
  3454  0034                     	ds	1
  3455  0035                     _cmdByte:
  3456  0035                     	ds	1
  3457  0036                     _measurementRunning:
  3458  0036                     	ds	1
  3459  0037                     _startMeasurement:
  3460  0037                     	ds	1
  3461  0038                     _mData:
  3462  0038                     	ds	6
  3463  003E                     _batvoltage:
  3464  003E                     	ds	2
  3465  0040                     _solvoltage:
  3466  0040                     	ds	2
  3467  0042                     _mDataLength:
  3468  0042                     	ds	1
  3469                           
  3470                           	psect	dataBANK0
  3471  0061                     __pdataBANK0:
  3472  0061                     _sensorAPI:
  3473  0061                     	ds	10
  3474  006B                     _SensorInterruptHandler:
  3475  006B                     	ds	2
  3476                           
  3477                           	psect	bssBANK1
  3478  00A0                     __pbssBANK1:
  3479  00A0                     _i2c1_tx_buffer:
  3480  00A0                     	ds	32
  3481  00C0                     _i2c1_rx_buffer:
  3482  00C0                     	ds	32
  3483                           
  3484                           	psect	inittext
  3485  039C                     init_ram:
  3486  039C  00FE               	movwf	btemp
  3487  039D                     initloop:
  3488  039D  0012               	moviw fsr0++
  3489  039E  001E               	movwi fsr1++
  3490  039F  0BFE               	decfsz	btemp,f
  3491  03A0  2B9D               	goto	initloop
  3492  03A1  3400               	retlw	0
  3493                           
  3494                           	psect	clrtext
  3495  03A2                     clear_ram0:	
  3496                           ;	Called with FSR0 containing the base address, and
  3497                           ;	WREG with the size to clear
  3498                           
  3499  03A2  0064               	clrwdt	;clear the watchdog before getting into this loop
  3500  03A3                     clrloop0:
  3501  03A3  0180               	clrf	0	;clear RAM location pointed to by FSR
  3502  03A4  3101               	addfsr 0,1
  3503  03A5  0B89               	decfsz	9,f	;Have we reached the end of clearing yet?
  3504  03A6  2BA3               	goto	clrloop0	;have we reached the end yet?
  3505  03A7  3400               	retlw	0	;all done for this memory range, return
  3506                           
  3507                           	psect	cstackCOMMON
  3508  0070                     __pcstackCOMMON:
  3509  0070                     ?_generateIntPower:
  3510  0070                     ?_SYSTEM_Initialize:	
  3511                           ; 1 bytes @ 0x0
  3512                           
  3513  0070                     ?_I2C1_CommandReceived:	
  3514                           ; 1 bytes @ 0x0
  3515                           
  3516  0070                     ?_I2C1_GetCommand:	
  3517                           ; 1 bytes @ 0x0
  3518                           
  3519  0070                     ?_I2C1_TxBufferEmpty:	
  3520                           ; 1 bytes @ 0x0
  3521                           
  3522  0070                     ?_toggleInt:	
  3523                           ; 1 bytes @ 0x0
  3524                           
  3525  0070                     ?_I2C1_StatusCallback:	
  3526                           ; 1 bytes @ 0x0
  3527                           
  3528  0070                     ??_I2C1_StatusCallback:	
  3529                           ; 1 bytes @ 0x0
  3530                           
  3531  0070                     ?_DefaultSensorInterruptHandler:	
  3532                           ; 1 bytes @ 0x0
  3533                           
  3534  0070                     ??_DefaultSensorInterruptHandler:	
  3535                           ; 1 bytes @ 0x0
  3536                           
  3537  0070                     ?_ADCC_ISR:	
  3538                           ; 1 bytes @ 0x0
  3539                           
  3540  0070                     ??_ADCC_ISR:	
  3541                           ; 1 bytes @ 0x0
  3542                           
  3543  0070                     ?_PMD_Initialize:	
  3544                           ; 1 bytes @ 0x0
  3545                           
  3546  0070                     ?_OSCILLATOR_Initialize:	
  3547                           ; 1 bytes @ 0x0
  3548                           
  3549  0070                     ?_ADCC_DefaultInterruptHandler:	
  3550                           ; 1 bytes @ 0x0
  3551                           
  3552  0070                     ??_ADCC_DefaultInterruptHandler:	
  3553                           ; 1 bytes @ 0x0
  3554                           
  3555  0070                     ?_LED_Blink:	
  3556                           ; 1 bytes @ 0x0
  3557                           
  3558  0070                     ?_Enter_sleep:	
  3559                           ; 1 bytes @ 0x0
  3560                           
  3561  0070                     ?_Power_Init:	
  3562                           ; 1 bytes @ 0x0
  3563                           
  3564  0070                     ?_Power_Measure:	
  3565                           ; 1 bytes @ 0x0
  3566                           
  3567  0070                     ?_Power_Loop:	
  3568                           ; 1 bytes @ 0x0
  3569                           
  3570  0070                     ?_main:	
  3571                           ; 1 bytes @ 0x0
  3572                           
  3573  0070                     ?_I2C1_Initialize:	
  3574                           ; 1 bytes @ 0x0
  3575                           
  3576  0070                     ?_I2C1_ISR:	
  3577                           ; 1 bytes @ 0x0
  3578                           
  3579  0070                     ?_Interrupt_Handler:	
  3580                           ; 1 bytes @ 0x0
  3581                           
  3582                           
  3583                           ; 1 bytes @ 0x0
  3584  0070                     	ds	1
  3585  0071                     I2C1_StatusCallback@i2c_bus_state:
  3586                           
  3587                           ; 1 bytes @ 0x1
  3588  0071                     	ds	1
  3589  0072                     ??_I2C1_ISR:
  3590                           
  3591                           ; 1 bytes @ 0x2
  3592  0072                     	ds	1
  3593  0073                     I2C1_ISR@i2c_data:
  3594                           
  3595                           ; 1 bytes @ 0x3
  3596  0073                     	ds	1
  3597  0074                     ??_generateIntPower:
  3598  0074                     ?_I2C1_SetTransmitData:	
  3599                           ; 1 bytes @ 0x4
  3600                           
  3601  0074                     ??_I2C1_CommandReceived:	
  3602                           ; 1 bytes @ 0x4
  3603                           
  3604  0074                     ??_I2C1_GetCommand:	
  3605                           ; 1 bytes @ 0x4
  3606                           
  3607  0074                     ??_I2C1_TxBufferEmpty:	
  3608                           ; 1 bytes @ 0x4
  3609                           
  3610  0074                     ??_toggleInt:	
  3611                           ; 1 bytes @ 0x4
  3612                           
  3613  0074                     ?_I2C1_GetCommandData:	
  3614                           ; 1 bytes @ 0x4
  3615                           
  3616  0074                     ??_PMD_Initialize:	
  3617                           ; 1 bytes @ 0x4
  3618                           
  3619  0074                     ??_OSCILLATOR_Initialize:	
  3620                           ; 1 bytes @ 0x4
  3621                           
  3622  0074                     ??_LED_Blink:	
  3623                           ; 1 bytes @ 0x4
  3624                           
  3625  0074                     ??_Enter_sleep:	
  3626                           ; 1 bytes @ 0x4
  3627                           
  3628  0074                     ??_Power_Measure:	
  3629                           ; 1 bytes @ 0x4
  3630                           
  3631  0074                     ?_Power_GetData:	
  3632                           ; 1 bytes @ 0x4
  3633                           
  3634  0074                     ?_Power_SetThreshold:	
  3635                           ; 1 bytes @ 0x4
  3636                           
  3637  0074                     ??_I2C1_Initialize:	
  3638                           ; 1 bytes @ 0x4
  3639                           
  3640  0074                     ??_Interrupt_Handler:	
  3641                           ; 1 bytes @ 0x4
  3642                           
  3643  0074                     Power_GetData@data:	
  3644                           ; 1 bytes @ 0x4
  3645                           
  3646  0074                     Power_SetThreshold@metric:	
  3647                           ; 1 bytes @ 0x4
  3648                           
  3649  0074                     I2C1_Initialize@slave_address:	
  3650                           ; 1 bytes @ 0x4
  3651                           
  3652  0074                     I2C1_GetCommandData@len:	
  3653                           ; 1 bytes @ 0x4
  3654                           
  3655  0074                     I2C1_SetTransmitData@len:	
  3656                           ; 1 bytes @ 0x4
  3657                           
  3658                           
  3659                           ; 1 bytes @ 0x4
  3660  0074                     	ds	1
  3661  0075                     ??_SYSTEM_Initialize:
  3662  0075                     ??_I2C1_GetCommandData:	
  3663                           ; 1 bytes @ 0x5
  3664                           
  3665  0075                     ??_Power_Loop:	
  3666                           ; 1 bytes @ 0x5
  3667                           
  3668  0075                     Power_GetData@length:	
  3669                           ; 1 bytes @ 0x5
  3670                           
  3671  0075                     Power_SetThreshold@thresholdData:	
  3672                           ; 1 bytes @ 0x5
  3673                           
  3674  0075                     I2C1_GetCommand@cmd:	
  3675                           ; 1 bytes @ 0x5
  3676                           
  3677  0075                     I2C1_SetTransmitData@data:	
  3678                           ; 1 bytes @ 0x5
  3679                           
  3680  0075                     SYSTEM_Initialize@slave_address:	
  3681                           ; 1 bytes @ 0x5
  3682                           
  3683                           
  3684                           ; 1 bytes @ 0x5
  3685  0075                     	ds	1
  3686  0076                     ??_Power_Init:
  3687  0076                     ??_Power_SetThreshold:	
  3688                           ; 1 bytes @ 0x6
  3689                           
  3690                           
  3691                           	psect	cstackBANK0
  3692  0043                     __pcstackBANK0:	
  3693                           ; 1 bytes @ 0x6
  3694                           
  3695  0043                     ??_I2C1_SetTransmitData:
  3696  0043                     ??_Power_GetData:	
  3697                           ; 1 bytes @ 0x0
  3698                           
  3699  0043                     I2C1_GetCommandData@data:	
  3700                           ; 1 bytes @ 0x0
  3701                           
  3702                           
  3703                           ; 1 bytes @ 0x0
  3704  0043                     	ds	2
  3705  0045                     ??_main:
  3706                           
  3707                           ; 1 bytes @ 0x2
  3708  0045                     	ds	2
  3709  0047                     main@data:
  3710                           
  3711                           ; 20 bytes @ 0x4
  3712  0047                     	ds	20
  3713  005B                     main@retries:
  3714                           
  3715                           ; 1 bytes @ 0x18
  3716  005B                     	ds	1
  3717  005C                     main@ack:
  3718                           
  3719                           ; 1 bytes @ 0x19
  3720  005C                     	ds	1
  3721  005D                     main@type:
  3722                           
  3723                           ; 1 bytes @ 0x1A
  3724  005D                     	ds	1
  3725  005E                     main@mnr:
  3726                           
  3727                           ; 1 bytes @ 0x1B
  3728  005E                     	ds	1
  3729  005F                     main@cmd:
  3730                           
  3731                           ; 1 bytes @ 0x1C
  3732  005F                     	ds	1
  3733  0060                     main@len:
  3734                           
  3735                           ; 1 bytes @ 0x1D
  3736  0060                     	ds	1
  3737                           
  3738                           	psect	maintext
  3739  0054                     __pmaintext:	
  3740 ;;
  3741 ;;Main: autosize = 0, tempsize = 2, incstack = 0, save=0
  3742 ;;
  3743 ;; *************** function _main *****************
  3744 ;; Defined at:
  3745 ;;		line 53 in file "main.c"
  3746 ;; Parameters:    Size  Location     Type
  3747 ;;		None
  3748 ;; Auto vars:     Size  Location     Type
  3749 ;;  data           20    4[BANK0 ] unsigned char [20]
  3750 ;;  len             1   29[BANK0 ] unsigned char 
  3751 ;;  retries         1   24[BANK0 ] unsigned char 
  3752 ;;  mnr             1   27[BANK0 ] unsigned char 
  3753 ;;  type            1   26[BANK0 ] unsigned char 
  3754 ;;  ack             1   25[BANK0 ] unsigned char 
  3755 ;;  cmd             1   28[BANK0 ] unsigned char 
  3756 ;; Return value:  Size  Location     Type
  3757 ;;                  1    wreg      void 
  3758 ;; Registers used:
  3759 ;;		wreg, fsr0l, fsr0h, fsr1l, fsr1h, status,2, status,0, pclath, cstack
  3760 ;; Tracked objects:
  3761 ;;		On entry : B3F/0
  3762 ;;		On exit  : 0/0
  3763 ;;		Unchanged: 0/0
  3764 ;; Data sizes:     COMMON   BANK0   BANK1   BANK2   BANK3   BANK4   BANK5   BANK6   BANK7   BANK8   BANK9  BANK10  BANK1
      +1  BANK12  BANK13  BANK14  BANK15  BANK16  BANK17  BANK18  BANK19  BANK20  BANK21  BANK22  BANK23  BANK24  BANK25
  3765 ;;      Params:         0       0       0       0       0       0       0       0       0       0       0       0       
      +0       0       0       0       0       0       0       0       0       0       0       0       0       0       0
  3766 ;;      Locals:         0      26       0       0       0       0       0       0       0       0       0       0       
      +0       0       0       0       0       0       0       0       0       0       0       0       0       0       0
  3767 ;;      Temps:          0       2       0       0       0       0       0       0       0       0       0       0       
      +0       0       0       0       0       0       0       0       0       0       0       0       0       0       0
  3768 ;;      Totals:         0      28       0       0       0       0       0       0       0       0       0       0       
      +0       0       0       0       0       0       0       0       0       0       0       0       0       0       0
  3769 ;;Total ram usage:       28 bytes
  3770 ;; Hardware stack levels required when called:    5
  3771 ;; This function calls:
  3772 ;;		_I2C1_CommandReceived
  3773 ;;		_I2C1_GetCommand
  3774 ;;		_I2C1_GetCommandData
  3775 ;;		_I2C1_SetTransmitData
  3776 ;;		_I2C1_TxBufferEmpty
  3777 ;;		_Power_GetData
  3778 ;;		_Power_Init
  3779 ;;		_Power_Loop
  3780 ;;		_Power_Measure
  3781 ;;		_Power_SetThreshold
  3782 ;;		_SYSTEM_Initialize
  3783 ;;		_toggleInt
  3784 ;; This function is called by:
  3785 ;;		Startup code after reset
  3786 ;; This function uses a non-reentrant model
  3787 ;;
  3788                           
  3789                           
  3790                           ;psect for function _main
  3791  0054                     _main:
  3792  0054                     l2585:	
  3793                           ;incstack = 0
  3794                           ; Regs used in _main: [wreg-fsr1h+status,2+status,0+pclath+cstack]
  3795                           
  3796                           
  3797                           ;main.c: 56: SYSTEM_Initialize(0x45);
  3798  0054  3045               	movlw	69
  3799  0055  3182  229E  3180   	fcall	_SYSTEM_Initialize
  3800                           
  3801                           ;main.c: 58: sensorAPI.Init();
  3802  0058  0140               	movlb	0	; select bank0
  3803  0059  0862               	movf	_sensorAPI+1,w
  3804  005A  008A               	movwf	10
  3805  005B  0861               	movf	_sensorAPI,w
  3806  005C  000A               	callw
  3807  005D  3180               	pagesel	$
  3808  005E                     l2587:
  3809                           
  3810                           ;main.c: 61: sensorAPI.Loop();
  3811  005E  3004               	movlw	4
  3812  005F  3E61               	addlw	(low (_sensorAPI| 0))& (0+255)
  3813  0060  0086               	movwf	6
  3814  0061  0187               	clrf	7
  3815  0062  3F41               	moviw [1]fsr1
  3816  0063  008A               	movwf	10
  3817  0064  3F40               	moviw [0]fsr1
  3818  0065  000A               	callw
  3819  0066  3180               	pagesel	$
  3820  0067                     l2589:
  3821                           
  3822                           ;main.c: 62: sensorAPI.GetData(mData, &mDataLength);
  3823  0067  3038               	movlw	(low (_mData| 0))& (0+255)
  3824  0068  0140               	movlb	0	; select bank0
  3825  0069  00C5               	movwf	??_main
  3826  006A  0845               	movf	??_main,w
  3827  006B  00F4               	movwf	Power_GetData@data
  3828  006C  3042               	movlw	(low (_mDataLength| 0))& (0+255)
  3829  006D  00C6               	movwf	??_main+1
  3830  006E  0846               	movf	??_main+1,w
  3831  006F  00F5               	movwf	Power_GetData@length
  3832  0070  3006               	movlw	6
  3833  0071  3E61               	addlw	(low (_sensorAPI| 0))& (0+255)
  3834  0072  0086               	movwf	6
  3835  0073  0187               	clrf	7
  3836  0074  3F41               	moviw [1]fsr1
  3837  0075  008A               	movwf	10
  3838  0076  3F40               	moviw [0]fsr1
  3839  0077  000A               	callw
  3840  0078  3180               	pagesel	$
  3841  0079                     l2591:
  3842                           
  3843                           ;main.c: 63: I2C1_SetTransmitData(mData, mDataLength);
  3844  0079  0140               	movlb	0	; select bank0
  3845  007A  0842               	movf	_mDataLength,w
  3846  007B  00C5               	movwf	??_main
  3847  007C  0845               	movf	??_main,w
  3848  007D  00F4               	movwf	I2C1_SetTransmitData@len
  3849  007E  3038               	movlw	(low (_mData| 0))& (0+255)
  3850  007F  3182  2276  3180   	fcall	_I2C1_SetTransmitData
  3851  0082                     l2593:
  3852                           
  3853                           ;main.c: 66: if(I2C1_CommandReceived()){
  3854  0082  3183  23B2  3180   	fcall	_I2C1_CommandReceived
  3855  0085  3A00               	xorlw	0
  3856  0086  1903               	skipnz
  3857  0087  2889               	goto	u1411
  3858  0088  288A               	goto	u1410
  3859  0089                     u1411:
  3860  0089  285E               	goto	l2587
  3861  008A                     u1410:
  3862  008A                     l2595:
  3863                           
  3864                           ;main.c: 67: uint8_t cmd;;main.c: 68: I2C1_GetCommand(&cmd);
  3865  008A  305F               	movlw	(low (main@cmd| 0))& (0+255)
  3866  008B  3183  2382  3180   	fcall	_I2C1_GetCommand
  3867                           
  3868                           ;main.c: 70: switch(cmd){
  3869  008E  2906               	goto	l2629
  3870  008F                     l2597:
  3871                           
  3872                           ;main.c: 74: uint8_t ack = 0xAA;
  3873  008F  30AA               	movlw	170
  3874  0090  00C5               	movwf	??_main
  3875  0091  0845               	movf	??_main,w
  3876  0092  00DC               	movwf	main@ack
  3877  0093                     l2599:
  3878                           
  3879                           ;main.c: 75: I2C1_SetTransmitData(&ack, 1);
  3880  0093  01F4               	clrf	I2C1_SetTransmitData@len
  3881  0094  0AF4               	incf	I2C1_SetTransmitData@len,f
  3882  0095  305C               	movlw	(low (main@ack| 0))& (0+255)
  3883  0096  3182  2276  3180   	fcall	_I2C1_SetTransmitData
  3884                           
  3885                           ;main.c: 76: } break;
  3886  0099  285E               	goto	l2587
  3887  009A                     l249:	
  3888                           ;main.c: 79: case 0x11:{
  3889                           
  3890                           
  3891                           ;main.c: 81: uint8_t type = 0x01;
  3892  009A  01DD               	clrf	main@type
  3893  009B  0ADD               	incf	main@type,f
  3894  009C                     l2601:
  3895                           
  3896                           ;main.c: 82: I2C1_SetTransmitData(&type, 1);
  3897  009C  01F4               	clrf	I2C1_SetTransmitData@len
  3898  009D  0AF4               	incf	I2C1_SetTransmitData@len,f
  3899  009E  305D               	movlw	(low (main@type| 0))& (0+255)
  3900  009F  3182  2276  3180   	fcall	_I2C1_SetTransmitData
  3901                           
  3902                           ;main.c: 83: } break;
  3903  00A2  285E               	goto	l2587
  3904  00A3                     l2603:
  3905                           
  3906                           ;main.c: 88: uint8_t mnr = 0x03;
  3907  00A3  3003               	movlw	3
  3908  00A4  00C5               	movwf	??_main
  3909  00A5  0845               	movf	??_main,w
  3910  00A6  00DE               	movwf	main@mnr
  3911  00A7                     l2605:
  3912                           
  3913                           ;main.c: 89: I2C1_SetTransmitData(&mnr, 1);
  3914  00A7  01F4               	clrf	I2C1_SetTransmitData@len
  3915  00A8  0AF4               	incf	I2C1_SetTransmitData@len,f
  3916  00A9  305E               	movlw	(low (main@mnr| 0))& (0+255)
  3917  00AA  3182  2276  3180   	fcall	_I2C1_SetTransmitData
  3918                           
  3919                           ;main.c: 90: } break;
  3920  00AD  285E               	goto	l2587
  3921  00AE                     l2607:
  3922                           
  3923                           ;main.c: 95: sensorAPI.Measure();
  3924  00AE  3002               	movlw	2
  3925  00AF  3E61               	addlw	(low (_sensorAPI| 0))& (0+255)
  3926  00B0  0086               	movwf	6
  3927  00B1  0187               	clrf	7
  3928  00B2  3F41               	moviw [1]fsr1
  3929  00B3  008A               	movwf	10
  3930  00B4  3F40               	moviw [0]fsr1
  3931  00B5  000A               	callw
  3932  00B6  3180               	pagesel	$
  3933                           
  3934                           ;main.c: 96: } break;
  3935  00B7  285E               	goto	l2587
  3936  00B8                     l2609:
  3937                           
  3938                           ;main.c: 101: uint8_t retries = 20;
  3939  00B8  3014               	movlw	20
  3940  00B9  00C5               	movwf	??_main
  3941  00BA  0845               	movf	??_main,w
  3942  00BB  00DB               	movwf	main@retries
  3943                           
  3944                           ;main.c: 102: while(!I2C1_TxBufferEmpty() && retries--){
  3945  00BC  28C6               	goto	l2613
  3946  00BD                     l2611:
  3947                           
  3948                           ;main.c: 103: _delay((unsigned long)((1)*(32000000/4000.0)));
  3949  00BD  300B               	movlw	11
  3950  00BE  0140               	movlb	0	; select bank0
  3951  00BF  00C5               	movwf	??_main
  3952  00C0  3062               	movlw	98
  3953  00C1                     u1457:
  3954  00C1  0B89               	decfsz	9,f
  3955  00C2  28C1               	goto	u1457
  3956  00C3  0BC5               	decfsz	??_main,f
  3957  00C4  28C1               	goto	u1457
  3958  00C5  0000               	nop
  3959  00C6                     l2613:
  3960  00C6  3183  238D  3180   	fcall	_I2C1_TxBufferEmpty
  3961  00C9  3A00               	xorlw	0
  3962  00CA  1D03               	skipz
  3963  00CB  28CD               	goto	u1421
  3964  00CC  28CE               	goto	u1420
  3965  00CD                     u1421:
  3966  00CD  291E               	goto	l245
  3967  00CE                     u1420:
  3968  00CE                     l2615:
  3969  00CE  3001               	movlw	1
  3970  00CF  0140               	movlb	0	; select bank0
  3971  00D0  02DB               	subwf	main@retries,f
  3972  00D1  0A5B               	incf	main@retries,w
  3973  00D2  1D03               	btfss	3,2
  3974  00D3  28D5               	goto	u1431
  3975  00D4  28D6               	goto	u1430
  3976  00D5                     u1431:
  3977  00D5  28BD               	goto	l2611
  3978  00D6                     u1430:
  3979  00D6  285E               	goto	l2587
  3980  00D7                     l2617:
  3981                           
  3982                           ;main.c: 109: toggleInt();
  3983  00D7  3183  235D  3180   	fcall	_toggleInt
  3984                           
  3985                           ;main.c: 110: } break;
  3986  00DA  285E               	goto	l2587
  3987  00DB                     l2619:
  3988                           
  3989                           ;main.c: 114: _delay((unsigned long)((2)*(32000000/4000.0)));
  3990  00DB  3015               	movlw	21
  3991  00DC  0140               	movlb	0	; select bank0
  3992  00DD  00C5               	movwf	??_main
  3993  00DE  30C6               	movlw	198
  3994  00DF                     u1467:
  3995  00DF  0B89               	decfsz	9,f
  3996  00E0  28DF               	goto	u1467
  3997  00E1  0BC5               	decfsz	??_main,f
  3998  00E2  28DF               	goto	u1467
  3999  00E3  0000               	nop
  4000  00E4                     l2621:
  4001                           
  4002                           ;main.c: 115: uint8_t len;;main.c: 116: uint8_t data[20];;main.c: 117: I2C1_GetCommandDa
      +                          ta(data, &len);
  4003  00E4  3060               	movlw	(low (main@len| 0))& (0+255)
  4004  00E5  0140               	movlb	0	; select bank0
  4005  00E6  00C5               	movwf	??_main
  4006  00E7  0845               	movf	??_main,w
  4007  00E8  00F4               	movwf	I2C1_GetCommandData@len
  4008  00E9  3047               	movlw	(low (main@data| 0))& (0+255)
  4009  00EA  3182  22BF  3180   	fcall	_I2C1_GetCommandData
  4010  00ED                     l2623:
  4011                           
  4012                           ;main.c: 118: if(len == 6){
  4013  00ED  3006               	movlw	6
  4014  00EE  0140               	movlb	0	; select bank0
  4015  00EF  0660               	xorwf	main@len,w
  4016  00F0  1D03               	btfss	3,2
  4017  00F1  28F3               	goto	u1441
  4018  00F2  28F4               	goto	u1440
  4019  00F3                     u1441:
  4020  00F3  291E               	goto	l245
  4021  00F4                     u1440:
  4022  00F4                     l2625:
  4023                           
  4024                           ;main.c: 119: sensorAPI.UpdateThreshold(data[0], data+1);
  4025  00F4  0847               	movf	main@data,w
  4026  00F5  00C5               	movwf	??_main
  4027  00F6  0845               	movf	??_main,w
  4028  00F7  00F4               	movwf	Power_SetThreshold@metric
  4029  00F8  3048               	movlw	(low ((main@data| 0+1)))& (0+255)
  4030  00F9  00C6               	movwf	??_main+1
  4031  00FA  0846               	movf	??_main+1,w
  4032  00FB  00F5               	movwf	Power_SetThreshold@thresholdData
  4033  00FC  3008               	movlw	8
  4034  00FD  3E61               	addlw	(low (_sensorAPI| 0))& (0+255)
  4035  00FE  0086               	movwf	6
  4036  00FF  0187               	clrf	7
  4037  0100  3F41               	moviw [1]fsr1
  4038  0101  008A               	movwf	10
  4039  0102  3F40               	moviw [0]fsr1
  4040  0103  000A               	callw
  4041  0104  3180               	pagesel	$
  4042  0105  285E               	goto	l2587
  4043  0106                     l2629:
  4044  0106  0140               	movlb	0	; select bank0
  4045  0107  085F               	movf	main@cmd,w
  4046                           
  4047                           ; Switch size 1, requested type "simple"
  4048                           ; Number of cases is 7, Range of values is 16 to 36
  4049                           ; switch strategies available:
  4050                           ; Name         Instructions Cycles
  4051                           ; simple_byte           22    12 (average)
  4052                           ; direct_byte           51     9 (fixed)
  4053                           ; jumptable            263     9 (fixed)
  4054                           ;	Chosen strategy is simple_byte
  4055  0108  3A10               	xorlw	16	; case 16
  4056  0109  1903               	skipnz
  4057  010A  288F               	goto	l2597
  4058  010B  3A01               	xorlw	1	; case 17
  4059  010C  1903               	skipnz
  4060  010D  289A               	goto	l249
  4061  010E  3A02               	xorlw	2	; case 19
  4062  010F  1903               	skipnz
  4063  0110  28AE               	goto	l2607
  4064  0111  3A07               	xorlw	7	; case 20
  4065  0112  1903               	skipnz
  4066  0113  28B8               	goto	l2609
  4067  0114  3A01               	xorlw	1	; case 21
  4068  0115  1903               	skipnz
  4069  0116  28D7               	goto	l2617
  4070  0117  3A36               	xorlw	54	; case 35
  4071  0118  1903               	skipnz
  4072  0119  28A3               	goto	l2603
  4073  011A  3A07               	xorlw	7	; case 36
  4074  011B  1903               	skipnz
  4075  011C  28DB               	goto	l2619
  4076  011D  291E               	goto	l245
  4077  011E                     l245:
  4078  011E  285E               	goto	l2587
  4079  011F  3180  282B         	ljmp	start
  4080  0121                     __end_of_main:
  4081                           
  4082                           	psect	text1
  4083  035D                     __ptext1:	
  4084 ;; *************** function _toggleInt *****************
  4085 ;; Defined at:
  4086 ;;		line 131 in file "main.c"
  4087 ;; Parameters:    Size  Location     Type
  4088 ;;		None
  4089 ;; Auto vars:     Size  Location     Type
  4090 ;;		None
  4091 ;; Return value:  Size  Location     Type
  4092 ;;                  1    wreg      void 
  4093 ;; Registers used:
  4094 ;;		status,0
  4095 ;; Tracked objects:
  4096 ;;		On entry : 0/0
  4097 ;;		On exit  : 0/0
  4098 ;;		Unchanged: 0/0
  4099 ;; Data sizes:     COMMON   BANK0   BANK1   BANK2   BANK3   BANK4   BANK5   BANK6   BANK7   BANK8   BANK9  BANK10  BANK1
      +1  BANK12  BANK13  BANK14  BANK15  BANK16  BANK17  BANK18  BANK19  BANK20  BANK21  BANK22  BANK23  BANK24  BANK25
  4100 ;;      Params:         0       0       0       0       0       0       0       0       0       0       0       0       
      +0       0       0       0       0       0       0       0       0       0       0       0       0       0       0
  4101 ;;      Locals:         0       0       0       0       0       0       0       0       0       0       0       0       
      +0       0       0       0       0       0       0       0       0       0       0       0       0       0       0
  4102 ;;      Temps:          0       0       0       0       0       0       0       0       0       0       0       0       
      +0       0       0       0       0       0       0       0       0       0       0       0       0       0       0
  4103 ;;      Totals:         0       0       0       0       0       0       0       0       0       0       0       0       
      +0       0       0       0       0       0       0       0       0       0       0       0       0       0       0
  4104 ;;Total ram usage:        0 bytes
  4105 ;; Hardware stack levels used:    1
  4106 ;; Hardware stack levels required when called:    3
  4107 ;; This function calls:
  4108 ;;		Nothing
  4109 ;; This function is called by:
  4110 ;;		_main
  4111 ;; This function uses a non-reentrant model
  4112 ;;
  4113                           
  4114                           
  4115                           ;psect for function _toggleInt
  4116  035D                     _toggleInt:
  4117  035D                     l267:	
  4118                           ;incstack = 0
  4119                           ; Regs used in _toggleInt: [status,0]
  4120                           ;main.c: 132: do { LATCbits.LATC7 = ~LATCbits.LATC7; } while(0);
  4121                           
  4122  035D                     l2143:
  4123  035D  1003               	clrc
  4124  035E  0140               	movlb	0	; select bank0
  4125  035F  1F9A               	btfss	26,7	;volatile
  4126  0360  1403               	setc
  4127  0361  1803               	btfsc	3,0
  4128  0362  2B64               	goto	u751
  4129  0363  2B67               	goto	u750
  4130  0364                     u751:
  4131  0364  0140               	movlb	0	; select bank0
  4132  0365  179A               	bsf	26,7	;volatile
  4133  0366  2B69               	goto	u764
  4134  0367                     u750:
  4135  0367  0140               	movlb	0	; select bank0
  4136  0368  139A               	bcf	26,7	;volatile
  4137  0369                     u764:
  4138  0369                     l269:
  4139  0369  0008               	return
  4140  036A                     __end_of_toggleInt:
  4141                           
  4142                           	psect	text2
  4143  029E                     __ptext2:	
  4144 ;; *************** function _SYSTEM_Initialize *****************
  4145 ;; Defined at:
  4146 ;;		line 32 in file "system/system.c"
  4147 ;; Parameters:    Size  Location     Type
  4148 ;;  slave_addres    1    wreg     unsigned char 
  4149 ;; Auto vars:     Size  Location     Type
  4150 ;;  slave_addres    1    5[COMMON] unsigned char 
  4151 ;; Return value:  Size  Location     Type
  4152 ;;                  1    wreg      void 
  4153 ;; Registers used:
  4154 ;;		wreg, status,2, status,0, pclath, cstack
  4155 ;; Tracked objects:
  4156 ;;		On entry : 0/0
  4157 ;;		On exit  : 0/0
  4158 ;;		Unchanged: 0/0
  4159 ;; Data sizes:     COMMON   BANK0   BANK1   BANK2   BANK3   BANK4   BANK5   BANK6   BANK7   BANK8   BANK9  BANK10  BANK1
      +1  BANK12  BANK13  BANK14  BANK15  BANK16  BANK17  BANK18  BANK19  BANK20  BANK21  BANK22  BANK23  BANK24  BANK25
  4160 ;;      Params:         0       0       0       0       0       0       0       0       0       0       0       0       
      +0       0       0       0       0       0       0       0       0       0       0       0       0       0       0
  4161 ;;      Locals:         1       0       0       0       0       0       0       0       0       0       0       0       
      +0       0       0       0       0       0       0       0       0       0       0       0       0       0       0
  4162 ;;      Temps:          0       0       0       0       0       0       0       0       0       0       0       0       
      +0       0       0       0       0       0       0       0       0       0       0       0       0       0       0
  4163 ;;      Totals:         1       0       0       0       0       0       0       0       0       0       0       0       
      +0       0       0       0       0       0       0       0       0       0       0       0       0       0       0
  4164 ;;Total ram usage:        1 bytes
  4165 ;; Hardware stack levels used:    1
  4166 ;; Hardware stack levels required when called:    4
  4167 ;; This function calls:
  4168 ;;		_I2C1_Initialize
  4169 ;;		_OSCILLATOR_Initialize
  4170 ;;		_PMD_Initialize
  4171 ;; This function is called by:
  4172 ;;		_main
  4173 ;; This function uses a non-reentrant model
  4174 ;;
  4175                           
  4176                           
  4177                           ;psect for function _SYSTEM_Initialize
  4178  029E                     _SYSTEM_Initialize:
  4179                           
  4180                           ;incstack = 0
  4181                           ; Regs used in _SYSTEM_Initialize: [wreg+status,2+status,0+pclath+cstack]
  4182                           ;SYSTEM_Initialize@slave_address stored from wreg
  4183  029E  00F5               	movwf	SYSTEM_Initialize@slave_address
  4184  029F                     l2083:
  4185                           
  4186                           ;system.c: 34: PMD_Initialize();
  4187  029F  3183  233B  3182   	fcall	_PMD_Initialize
  4188                           
  4189                           ;system.c: 35: OSCILLATOR_Initialize();
  4190  02A2  3183  23A8  3182   	fcall	_OSCILLATOR_Initialize
  4191  02A5                     l2085:
  4192                           
  4193                           ;system.c: 37: VREGCONbits.VREGPM = 1;
  4194  02A5  0150               	movlb	16	; select bank16
  4195  02A6  1492               	bsf	18,1	;volatile
  4196  02A7                     l2087:
  4197                           
  4198                           ;system.c: 42: ANSELA = 0x00;
  4199  02A7  017E               	movlb	62	; select bank62
  4200  02A8  01B8               	clrf	56	;volatile
  4201  02A9                     l2089:
  4202                           
  4203                           ;system.c: 43: ANSELB = 0x00;
  4204  02A9  01C3               	clrf	67	;volatile
  4205  02AA                     l2091:
  4206                           
  4207                           ;system.c: 44: ANSELC = 0x00;
  4208  02AA  01CE               	clrf	78	;volatile
  4209  02AB                     l2093:
  4210                           
  4211                           ;system.c: 45: ANSELCbits.ANSC1 = 1;
  4212  02AB  14CE               	bsf	78,1	;volatile
  4213  02AC                     l2095:
  4214                           
  4215                           ;system.c: 47: TRISA = 0x00;
  4216  02AC  0140               	movlb	0	; select bank0
  4217  02AD  0192               	clrf	18	;volatile
  4218  02AE                     l2097:
  4219                           
  4220                           ;system.c: 48: TRISB = 0x00;
  4221  02AE  0193               	clrf	19	;volatile
  4222  02AF                     l2099:
  4223                           
  4224                           ;system.c: 49: TRISC = 0x00;
  4225  02AF  0194               	clrf	20	;volatile
  4226  02B0                     l2101:
  4227                           
  4228                           ;system.c: 50: TRISCbits.TRISC1 = 1;
  4229  02B0  1494               	bsf	20,1	;volatile
  4230  02B1                     l2103:
  4231                           
  4232                           ;system.c: 52: LATA = 0xFF;
  4233  02B1  30FF               	movlw	255
  4234  02B2  0098               	movwf	24	;volatile
  4235  02B3                     l2105:
  4236                           
  4237                           ;system.c: 53: LATB = 0xFF;
  4238  02B3  30FF               	movlw	255
  4239  02B4  0099               	movwf	25	;volatile
  4240  02B5                     l2107:
  4241                           
  4242                           ;system.c: 54: LATC = 0xFF;
  4243  02B5  30FF               	movlw	255
  4244  02B6  009A               	movwf	26	;volatile
  4245  02B7                     l2109:
  4246                           
  4247                           ;system.c: 55: LATCbits.LATC1 = 0;
  4248  02B7  109A               	bcf	26,1	;volatile
  4249  02B8                     l2111:
  4250                           
  4251                           ;system.c: 57: I2C1_Initialize(slave_address);
  4252  02B8  0875               	movf	SYSTEM_Initialize@slave_address,w
  4253  02B9  3182  224E  3182   	fcall	_I2C1_Initialize
  4254  02BC                     l2113:
  4255                           
  4256                           ;system.c: 59: (INTCONbits.GIE = 1);
  4257  02BC  178B               	bsf	11,7	;volatile
  4258  02BD                     l2115:
  4259                           
  4260                           ;system.c: 60: (INTCONbits.PEIE = 1);
  4261  02BD  170B               	bsf	11,6	;volatile
  4262  02BE                     l483:
  4263  02BE  0008               	return
  4264  02BF                     __end_of_SYSTEM_Initialize:
  4265                           
  4266                           	psect	text3
  4267  033B                     __ptext3:	
  4268 ;; *************** function _PMD_Initialize *****************
  4269 ;; Defined at:
  4270 ;;		line 78 in file "system/system.c"
  4271 ;; Parameters:    Size  Location     Type
  4272 ;;		None
  4273 ;; Auto vars:     Size  Location     Type
  4274 ;;		None
  4275 ;; Return value:  Size  Location     Type
  4276 ;;                  1    wreg      void 
  4277 ;; Registers used:
  4278 ;;		wreg
  4279 ;; Tracked objects:
  4280 ;;		On entry : 0/0
  4281 ;;		On exit  : 0/0
  4282 ;;		Unchanged: 0/0
  4283 ;; Data sizes:     COMMON   BANK0   BANK1   BANK2   BANK3   BANK4   BANK5   BANK6   BANK7   BANK8   BANK9  BANK10  BANK1
      +1  BANK12  BANK13  BANK14  BANK15  BANK16  BANK17  BANK18  BANK19  BANK20  BANK21  BANK22  BANK23  BANK24  BANK25
  4284 ;;      Params:         0       0       0       0       0       0       0       0       0       0       0       0       
      +0       0       0       0       0       0       0       0       0       0       0       0       0       0       0
  4285 ;;      Locals:         0       0       0       0       0       0       0       0       0       0       0       0       
      +0       0       0       0       0       0       0       0       0       0       0       0       0       0       0
  4286 ;;      Temps:          0       0       0       0       0       0       0       0       0       0       0       0       
      +0       0       0       0       0       0       0       0       0       0       0       0       0       0       0
  4287 ;;      Totals:         0       0       0       0       0       0       0       0       0       0       0       0       
      +0       0       0       0       0       0       0       0       0       0       0       0       0       0       0
  4288 ;;Total ram usage:        0 bytes
  4289 ;; Hardware stack levels used:    1
  4290 ;; Hardware stack levels required when called:    3
  4291 ;; This function calls:
  4292 ;;		Nothing
  4293 ;; This function is called by:
  4294 ;;		_SYSTEM_Initialize
  4295 ;; This function uses a non-reentrant model
  4296 ;;
  4297                           
  4298                           
  4299                           ;psect for function _PMD_Initialize
  4300  033B                     _PMD_Initialize:
  4301  033B                     l1925:	
  4302                           ;incstack = 0
  4303                           ; Regs used in _PMD_Initialize: [wreg]
  4304                           
  4305                           
  4306                           ;system.c: 80: PMD0 = 0xFF;
  4307  033B  30FF               	movlw	255
  4308  033C  014F               	movlb	15	; select bank15
  4309  033D  0096               	movwf	22	;volatile
  4310  033E                     l1927:
  4311                           
  4312                           ;system.c: 82: PMD0bits.SYSCMD = 0;
  4313  033E  1396               	bcf	22,7	;volatile
  4314                           
  4315                           ;system.c: 84: PMD1 = 0xFF;
  4316  033F  30FF               	movlw	255
  4317  0340  0097               	movwf	23	;volatile
  4318                           
  4319                           ;system.c: 85: PMD2 = 0xFF;
  4320  0341  30FF               	movlw	255
  4321  0342  0098               	movwf	24	;volatile
  4322                           
  4323                           ;system.c: 86: PMD3 = 0xFF;
  4324  0343  30FF               	movlw	255
  4325  0344  0099               	movwf	25	;volatile
  4326                           
  4327                           ;system.c: 87: PMD4 = 0xFF;
  4328  0345  30FF               	movlw	255
  4329  0346  009A               	movwf	26	;volatile
  4330                           
  4331                           ;system.c: 88: PMD5 = 0xFF;
  4332  0347  30FF               	movlw	255
  4333  0348  009B               	movwf	27	;volatile
  4334                           
  4335                           ;system.c: 89: PMD6 = 0xFF;
  4336  0349  30FF               	movlw	255
  4337  034A  009C               	movwf	28	;volatile
  4338                           
  4339                           ;system.c: 90: PMD7 = 0xFF;
  4340  034B  30FF               	movlw	255
  4341  034C  009D               	movwf	29	;volatile
  4342  034D                     l492:
  4343  034D  0008               	return
  4344  034E                     __end_of_PMD_Initialize:
  4345                           
  4346                           	psect	text4
  4347  03A8                     __ptext4:	
  4348 ;; *************** function _OSCILLATOR_Initialize *****************
  4349 ;; Defined at:
  4350 ;;		line 70 in file "system/system.c"
  4351 ;; Parameters:    Size  Location     Type
  4352 ;;		None
  4353 ;; Auto vars:     Size  Location     Type
  4354 ;;		None
  4355 ;; Return value:  Size  Location     Type
  4356 ;;                  1    wreg      void 
  4357 ;; Registers used:
  4358 ;;		wreg
  4359 ;; Tracked objects:
  4360 ;;		On entry : 0/0
  4361 ;;		On exit  : 0/0
  4362 ;;		Unchanged: 0/0
  4363 ;; Data sizes:     COMMON   BANK0   BANK1   BANK2   BANK3   BANK4   BANK5   BANK6   BANK7   BANK8   BANK9  BANK10  BANK1
      +1  BANK12  BANK13  BANK14  BANK15  BANK16  BANK17  BANK18  BANK19  BANK20  BANK21  BANK22  BANK23  BANK24  BANK25
  4364 ;;      Params:         0       0       0       0       0       0       0       0       0       0       0       0       
      +0       0       0       0       0       0       0       0       0       0       0       0       0       0       0
  4365 ;;      Locals:         0       0       0       0       0       0       0       0       0       0       0       0       
      +0       0       0       0       0       0       0       0       0       0       0       0       0       0       0
  4366 ;;      Temps:          0       0       0       0       0       0       0       0       0       0       0       0       
      +0       0       0       0       0       0       0       0       0       0       0       0       0       0       0
  4367 ;;      Totals:         0       0       0       0       0       0       0       0       0       0       0       0       
      +0       0       0       0       0       0       0       0       0       0       0       0       0       0       0
  4368 ;;Total ram usage:        0 bytes
  4369 ;; Hardware stack levels used:    1
  4370 ;; Hardware stack levels required when called:    3
  4371 ;; This function calls:
  4372 ;;		Nothing
  4373 ;; This function is called by:
  4374 ;;		_SYSTEM_Initialize
  4375 ;; This function uses a non-reentrant model
  4376 ;;
  4377                           
  4378                           
  4379                           ;psect for function _OSCILLATOR_Initialize
  4380  03A8                     _OSCILLATOR_Initialize:
  4381  03A8                     l1929:	
  4382                           ;incstack = 0
  4383                           ; Regs used in _OSCILLATOR_Initialize: [wreg]
  4384                           
  4385                           
  4386                           ;system.c: 72: OSCCON1 = 0x60;
  4387  03A8  3060               	movlw	96
  4388  03A9  0151               	movlb	17	; select bank17
  4389  03AA  008D               	movwf	13	;volatile
  4390                           
  4391                           ;system.c: 74: OSCFRQ = 0x06;
  4392  03AB  3006               	movlw	6
  4393  03AC  0093               	movwf	19	;volatile
  4394  03AD                     l489:
  4395  03AD  0008               	return
  4396  03AE                     __end_of_OSCILLATOR_Initialize:
  4397                           
  4398                           	psect	text5
  4399  024E                     __ptext5:	
  4400 ;; *************** function _I2C1_Initialize *****************
  4401 ;; Defined at:
  4402 ;;		line 91 in file "system/i2c1.c"
  4403 ;; Parameters:    Size  Location     Type
  4404 ;;  slave_addres    1    wreg     unsigned char 
  4405 ;; Auto vars:     Size  Location     Type
  4406 ;;  slave_addres    1    4[COMMON] unsigned char 
  4407 ;; Return value:  Size  Location     Type
  4408 ;;                  1    wreg      void 
  4409 ;; Registers used:
  4410 ;;		wreg, status,2, status,0
  4411 ;; Tracked objects:
  4412 ;;		On entry : 0/0
  4413 ;;		On exit  : 0/0
  4414 ;;		Unchanged: 0/0
  4415 ;; Data sizes:     COMMON   BANK0   BANK1   BANK2   BANK3   BANK4   BANK5   BANK6   BANK7   BANK8   BANK9  BANK10  BANK1
      +1  BANK12  BANK13  BANK14  BANK15  BANK16  BANK17  BANK18  BANK19  BANK20  BANK21  BANK22  BANK23  BANK24  BANK25
  4416 ;;      Params:         0       0       0       0       0       0       0       0       0       0       0       0       
      +0       0       0       0       0       0       0       0       0       0       0       0       0       0       0
  4417 ;;      Locals:         1       0       0       0       0       0       0       0       0       0       0       0       
      +0       0       0       0       0       0       0       0       0       0       0       0       0       0       0
  4418 ;;      Temps:          0       0       0       0       0       0       0       0       0       0       0       0       
      +0       0       0       0       0       0       0       0       0       0       0       0       0       0       0
  4419 ;;      Totals:         1       0       0       0       0       0       0       0       0       0       0       0       
      +0       0       0       0       0       0       0       0       0       0       0       0       0       0       0
  4420 ;;Total ram usage:        1 bytes
  4421 ;; Hardware stack levels used:    1
  4422 ;; Hardware stack levels required when called:    3
  4423 ;; This function calls:
  4424 ;;		Nothing
  4425 ;; This function is called by:
  4426 ;;		_SYSTEM_Initialize
  4427 ;; This function uses a non-reentrant model
  4428 ;;
  4429                           
  4430                           
  4431                           ;psect for function _I2C1_Initialize
  4432  024E                     _I2C1_Initialize:
  4433                           
  4434                           ;incstack = 0
  4435                           ; Regs used in _I2C1_Initialize: [wreg+status,2+status,0]
  4436                           ;I2C1_Initialize@slave_address stored from wreg
  4437  024E  00F4               	movwf	I2C1_Initialize@slave_address
  4438  024F                     l1869:
  4439                           
  4440                           ;i2c1.c: 93: PMD6bits.MSSP1MD = 0;
  4441  024F  014F               	movlb	15	; select bank15
  4442  0250  101C               	bcf	28,0	;volatile
  4443                           
  4444                           ;i2c1.c: 95: ANSELBbits.ANSB5 = 0;
  4445  0251  017E               	movlb	62	; select bank62
  4446  0252  12C3               	bcf	67,5	;volatile
  4447                           
  4448                           ;i2c1.c: 96: ANSELBbits.ANSB7 = 0;
  4449  0253  13C3               	bcf	67,7	;volatile
  4450                           
  4451                           ;i2c1.c: 98: TRISBbits.TRISB5 = 1;
  4452  0254  0140               	movlb	0	; select bank0
  4453  0255  1693               	bsf	19,5	;volatile
  4454                           
  4455                           ;i2c1.c: 99: TRISBbits.TRISB7 = 1;
  4456  0256  1793               	bsf	19,7	;volatile
  4457  0257                     l1871:
  4458                           
  4459                           ;i2c1.c: 101: SSP1CLKPPS = 0x0F;
  4460  0257  300F               	movlw	15
  4461  0258  017D               	movlb	61	; select bank61
  4462  0259  00C5               	movwf	69	;volatile
  4463                           
  4464                           ;i2c1.c: 102: RB7PPS = 0x13;
  4465  025A  3013               	movlw	19
  4466  025B  017E               	movlb	62	; select bank62
  4467  025C  009F               	movwf	31	;volatile
  4468                           
  4469                           ;i2c1.c: 103: RB5PPS = 0x14;
  4470  025D  3014               	movlw	20
  4471  025E  009D               	movwf	29	;volatile
  4472                           
  4473                           ;i2c1.c: 104: SSP1DATPPS = 0x0D;
  4474  025F  300D               	movlw	13
  4475  0260  017D               	movlb	61	; select bank61
  4476  0261  00C6               	movwf	70	;volatile
  4477  0262                     l1873:
  4478                           
  4479                           ;i2c1.c: 107: SSP1STAT = 0x00;
  4480  0262  0143               	movlb	3	; select bank3
  4481  0263  018F               	clrf	15	;volatile
  4482  0264                     l1875:
  4483                           
  4484                           ;i2c1.c: 109: SSP1CON1 = 0x26;
  4485  0264  3026               	movlw	38
  4486  0265  0090               	movwf	16	;volatile
  4487  0266                     l1877:
  4488                           
  4489                           ;i2c1.c: 111: SSP1CON2 = 0x01;
  4490  0266  3001               	movlw	1
  4491  0267  0091               	movwf	17	;volatile
  4492  0268                     l1879:
  4493                           
  4494                           ;i2c1.c: 113: SSP1CON3 = 0x00;
  4495  0268  0192               	clrf	18	;volatile
  4496  0269                     l1881:
  4497                           
  4498                           ;i2c1.c: 115: SSP1CON3bits.DHEN = 1;
  4499  0269  1412               	bsf	18,0	;volatile
  4500                           
  4501                           ;i2c1.c: 117: SSP1MSK = (0x7F << 1);
  4502  026A  30FE               	movlw	254
  4503  026B  008E               	movwf	14	;volatile
  4504  026C                     l1883:
  4505                           
  4506                           ;i2c1.c: 119: SSP1ADD = (slave_address << 1);
  4507  026C  3574               	lslf	I2C1_Initialize@slave_address,w
  4508  026D  008D               	movwf	13	;volatile
  4509  026E                     l1885:
  4510                           
  4511                           ;i2c1.c: 123: PIR3bits.SSP1IF = 0;
  4512  026E  014E               	movlb	14	; select bank14
  4513  026F  100F               	bcf	15,0	;volatile
  4514  0270                     l1887:
  4515                           
  4516                           ;i2c1.c: 125: PIE3bits.SSP1IE = 1;
  4517  0270  1419               	bsf	25,0	;volatile
  4518  0271                     l1889:
  4519                           
  4520                           ;i2c1.c: 127: txCnt = 0;
  4521  0271  01F6               	clrf	_txCnt
  4522  0272                     l1891:
  4523                           
  4524                           ;i2c1.c: 128: rxLen = 0;
  4525  0272  01F7               	clrf	_rxLen
  4526  0273                     l1893:
  4527                           
  4528                           ;i2c1.c: 129: cmdReceived = 0;
  4529  0273  0140               	movlb	0	; select bank0
  4530  0274  01B4               	clrf	_cmdReceived
  4531  0275                     l332:
  4532  0275  0008               	return
  4533  0276                     __end_of_I2C1_Initialize:
  4534                           
  4535                           	psect	text6
  4536  02F5                     __ptext6:	
  4537 ;; *************** function _Power_SetThreshold *****************
  4538 ;; Defined at:
  4539 ;;		line 292 in file "sensor/power.c"
  4540 ;; Parameters:    Size  Location     Type
  4541 ;;  metric          1    4[COMMON] unsigned char 
  4542 ;;  thresholdDat    1    5[COMMON] PTR unsigned char 
  4543 ;;		 -> main@data(20), 
  4544 ;; Auto vars:     Size  Location     Type
  4545 ;;		None
  4546 ;; Return value:  Size  Location     Type
  4547 ;;                  1    wreg      void 
  4548 ;; Registers used:
  4549 ;;		wreg, fsr1l, fsr1h, status,2, status,0
  4550 ;; Tracked objects:
  4551 ;;		On entry : 0/0
  4552 ;;		On exit  : 0/0
  4553 ;;		Unchanged: 0/0
  4554 ;; Data sizes:     COMMON   BANK0   BANK1   BANK2   BANK3   BANK4   BANK5   BANK6   BANK7   BANK8   BANK9  BANK10  BANK1
      +1  BANK12  BANK13  BANK14  BANK15  BANK16  BANK17  BANK18  BANK19  BANK20  BANK21  BANK22  BANK23  BANK24  BANK25
  4555 ;;      Params:         2       0       0       0       0       0       0       0       0       0       0       0       
      +0       0       0       0       0       0       0       0       0       0       0       0       0       0       0
  4556 ;;      Locals:         0       0       0       0       0       0       0       0       0       0       0       0       
      +0       0       0       0       0       0       0       0       0       0       0       0       0       0       0
  4557 ;;      Temps:          0       0       0       0       0       0       0       0       0       0       0       0       
      +0       0       0       0       0       0       0       0       0       0       0       0       0       0       0
  4558 ;;      Totals:         2       0       0       0       0       0       0       0       0       0       0       0       
      +0       0       0       0       0       0       0       0       0       0       0       0       0       0       0
  4559 ;;Total ram usage:        2 bytes
  4560 ;; Hardware stack levels used:    1
  4561 ;; Hardware stack levels required when called:    3
  4562 ;; This function calls:
  4563 ;;		Nothing
  4564 ;; This function is called by:
  4565 ;;		_main
  4566 ;; This function uses a non-reentrant model
  4567 ;;
  4568                           
  4569                           
  4570                           ;psect for function _Power_SetThreshold
  4571  02F5                     _Power_SetThreshold:
  4572  02F5                     l2075:	
  4573                           ;incstack = 0
  4574                           ; Regs used in _Power_SetThreshold: [wreg+fsr1l+fsr1h+status,2+status,0]
  4575                           
  4576                           
  4577                           ;power.c: 295: thresholdData[0] = 0;
  4578  02F5  0875               	movf	Power_SetThreshold@thresholdData,w
  4579  02F6  0086               	movwf	6
  4580  02F7  0187               	clrf	7
  4581  02F8  0181               	clrf	1
  4582                           
  4583                           ;power.c: 296: thresholdData[1] = 0;
  4584  02F9  0A75               	incf	Power_SetThreshold@thresholdData,w
  4585  02FA  0086               	movwf	6
  4586  02FB  0187               	clrf	7
  4587  02FC  0181               	clrf	1
  4588  02FD                     l2077:
  4589                           
  4590                           ;power.c: 297: thresholdData[2] = 0;
  4591  02FD  0875               	movf	Power_SetThreshold@thresholdData,w
  4592  02FE  3E02               	addlw	2
  4593  02FF  0086               	movwf	6
  4594  0300  0187               	clrf	7
  4595  0301  0181               	clrf	1
  4596  0302                     l2079:
  4597                           
  4598                           ;power.c: 298: thresholdData[3] = 0;
  4599  0302  0875               	movf	Power_SetThreshold@thresholdData,w
  4600  0303  3E03               	addlw	3
  4601  0304  0086               	movwf	6
  4602  0305  0187               	clrf	7
  4603  0306  0181               	clrf	1
  4604  0307                     l2081:
  4605                           
  4606                           ;power.c: 299: thresholdData[4] = 0;
  4607  0307  0875               	movf	Power_SetThreshold@thresholdData,w
  4608  0308  3E04               	addlw	4
  4609  0309  0086               	movwf	6
  4610  030A  0187               	clrf	7
  4611  030B  0181               	clrf	1
  4612  030C                     l198:
  4613  030C  0008               	return
  4614  030D                     __end_of_Power_SetThreshold:
  4615                           
  4616                           	psect	text7
  4617  03AE                     __ptext7:	
  4618 ;; *************** function _Power_Measure *****************
  4619 ;; Defined at:
  4620 ;;		line 195 in file "sensor/power.c"
  4621 ;; Parameters:    Size  Location     Type
  4622 ;;		None
  4623 ;; Auto vars:     Size  Location     Type
  4624 ;;		None
  4625 ;; Return value:  Size  Location     Type
  4626 ;;                  1    wreg      void 
  4627 ;; Registers used:
  4628 ;;		None
  4629 ;; Tracked objects:
  4630 ;;		On entry : 0/0
  4631 ;;		On exit  : 0/0
  4632 ;;		Unchanged: 0/0
  4633 ;; Data sizes:     COMMON   BANK0   BANK1   BANK2   BANK3   BANK4   BANK5   BANK6   BANK7   BANK8   BANK9  BANK10  BANK1
      +1  BANK12  BANK13  BANK14  BANK15  BANK16  BANK17  BANK18  BANK19  BANK20  BANK21  BANK22  BANK23  BANK24  BANK25
  4634 ;;      Params:         0       0       0       0       0       0       0       0       0       0       0       0       
      +0       0       0       0       0       0       0       0       0       0       0       0       0       0       0
  4635 ;;      Locals:         0       0       0       0       0       0       0       0       0       0       0       0       
      +0       0       0       0       0       0       0       0       0       0       0       0       0       0       0
  4636 ;;      Temps:          0       0       0       0       0       0       0       0       0       0       0       0       
      +0       0       0       0       0       0       0       0       0       0       0       0       0       0       0
  4637 ;;      Totals:         0       0       0       0       0       0       0       0       0       0       0       0       
      +0       0       0       0       0       0       0       0       0       0       0       0       0       0       0
  4638 ;;Total ram usage:        0 bytes
  4639 ;; Hardware stack levels used:    1
  4640 ;; Hardware stack levels required when called:    3
  4641 ;; This function calls:
  4642 ;;		Nothing
  4643 ;; This function is called by:
  4644 ;;		_main
  4645 ;; This function uses a non-reentrant model
  4646 ;;
  4647                           
  4648                           
  4649                           ;psect for function _Power_Measure
  4650  03AE                     _Power_Measure:
  4651  03AE                     l2057:	
  4652                           ;incstack = 0
  4653                           ; Regs used in _Power_Measure: []
  4654                           
  4655                           
  4656                           ;power.c: 196: startMeasurement = 1;
  4657  03AE  0140               	movlb	0	; select bank0
  4658  03AF  01B7               	clrf	_startMeasurement
  4659  03B0  0AB7               	incf	_startMeasurement,f
  4660  03B1                     l165:
  4661  03B1  0008               	return
  4662  03B2                     __end_of_Power_Measure:
  4663                           
  4664                           	psect	text8
  4665  030D                     __ptext8:	
  4666 ;; *************** function _Power_Loop *****************
  4667 ;; Defined at:
  4668 ;;		line 268 in file "sensor/power.c"
  4669 ;; Parameters:    Size  Location     Type
  4670 ;;		None
  4671 ;; Auto vars:     Size  Location     Type
  4672 ;;		None
  4673 ;; Return value:  Size  Location     Type
  4674 ;;                  1    wreg      void 
  4675 ;; Registers used:
  4676 ;;		wreg, status,2, status,0, pclath, cstack
  4677 ;; Tracked objects:
  4678 ;;		On entry : 0/0
  4679 ;;		On exit  : 0/0
  4680 ;;		Unchanged: 0/0
  4681 ;; Data sizes:     COMMON   BANK0   BANK1   BANK2   BANK3   BANK4   BANK5   BANK6   BANK7   BANK8   BANK9  BANK10  BANK1
      +1  BANK12  BANK13  BANK14  BANK15  BANK16  BANK17  BANK18  BANK19  BANK20  BANK21  BANK22  BANK23  BANK24  BANK25
  4682 ;;      Params:         0       0       0       0       0       0       0       0       0       0       0       0       
      +0       0       0       0       0       0       0       0       0       0       0       0       0       0       0
  4683 ;;      Locals:         0       0       0       0       0       0       0       0       0       0       0       0       
      +0       0       0       0       0       0       0       0       0       0       0       0       0       0       0
  4684 ;;      Temps:          0       0       0       0       0       0       0       0       0       0       0       0       
      +0       0       0       0       0       0       0       0       0       0       0       0       0       0       0
  4685 ;;      Totals:         0       0       0       0       0       0       0       0       0       0       0       0       
      +0       0       0       0       0       0       0       0       0       0       0       0       0       0       0
  4686 ;;Total ram usage:        0 bytes
  4687 ;; Hardware stack levels used:    1
  4688 ;; Hardware stack levels required when called:    4
  4689 ;; This function calls:
  4690 ;;		_Enter_sleep
  4691 ;;		_generateIntPower
  4692 ;; This function is called by:
  4693 ;;		_main
  4694 ;; This function uses a non-reentrant model
  4695 ;;
  4696                           
  4697                           
  4698                           ;psect for function _Power_Loop
  4699  030D                     _Power_Loop:
  4700  030D                     l2059:	
  4701                           ;incstack = 0
  4702                           ; Regs used in _Power_Loop: [wreg+status,2+status,0+pclath+cstack]
  4703                           
  4704                           
  4705                           ;power.c: 271: if(startMeasurement && !measurementRunning){
  4706  030D  0140               	movlb	0	; select bank0
  4707  030E  0837               	movf	_startMeasurement,w
  4708  030F  1903               	btfsc	3,2
  4709  0310  2B12               	goto	u691
  4710  0311  2B13               	goto	u690
  4711  0312                     u691:
  4712  0312  2B20               	goto	l2071
  4713  0313                     u690:
  4714  0313                     l2061:
  4715  0313  0836               	movf	_measurementRunning,w
  4716  0314  1D03               	btfss	3,2
  4717  0315  2B17               	goto	u701
  4718  0316  2B18               	goto	u700
  4719  0317                     u701:
  4720  0317  2B20               	goto	l2071
  4721  0318                     u700:
  4722  0318                     l2063:
  4723                           
  4724                           ;power.c: 272: startMeasurement = 0;
  4725  0318  01B7               	clrf	_startMeasurement
  4726  0319                     l2065:
  4727                           
  4728                           ;power.c: 273: measurementRunning = 1;
  4729  0319  01B6               	clrf	_measurementRunning
  4730  031A  0AB6               	incf	_measurementRunning,f
  4731  031B                     l2067:
  4732                           
  4733                           ;power.c: 277: generateIntPower();
  4734  031B  3183  2376  3183   	fcall	_generateIntPower
  4735  031E                     l2069:
  4736                           
  4737                           ;power.c: 278: measurementRunning = 0;
  4738  031E  0140               	movlb	0	; select bank0
  4739  031F  01B6               	clrf	_measurementRunning
  4740  0320                     l2071:
  4741                           
  4742                           ;power.c: 279: };power.c: 281: Enter_sleep();
  4743  0320  3183  2395  3183   	fcall	_Enter_sleep
  4744  0323                     l192:
  4745  0323  0008               	return
  4746  0324                     __end_of_Power_Loop:
  4747                           
  4748                           	psect	text9
  4749  0376                     __ptext9:	
  4750 ;; *************** function _generateIntPower *****************
  4751 ;; Defined at:
  4752 ;;		line 305 in file "sensor/power.c"
  4753 ;; Parameters:    Size  Location     Type
  4754 ;;		None
  4755 ;; Auto vars:     Size  Location     Type
  4756 ;;		None
  4757 ;; Return value:  Size  Location     Type
  4758 ;;                  1    wreg      void 
  4759 ;; Registers used:
  4760 ;;		wreg
  4761 ;; Tracked objects:
  4762 ;;		On entry : 0/0
  4763 ;;		On exit  : 0/0
  4764 ;;		Unchanged: 0/0
  4765 ;; Data sizes:     COMMON   BANK0   BANK1   BANK2   BANK3   BANK4   BANK5   BANK6   BANK7   BANK8   BANK9  BANK10  BANK1
      +1  BANK12  BANK13  BANK14  BANK15  BANK16  BANK17  BANK18  BANK19  BANK20  BANK21  BANK22  BANK23  BANK24  BANK25
  4766 ;;      Params:         0       0       0       0       0       0       0       0       0       0       0       0       
      +0       0       0       0       0       0       0       0       0       0       0       0       0       0       0
  4767 ;;      Locals:         0       0       0       0       0       0       0       0       0       0       0       0       
      +0       0       0       0       0       0       0       0       0       0       0       0       0       0       0
  4768 ;;      Temps:          1       0       0       0       0       0       0       0       0       0       0       0       
      +0       0       0       0       0       0       0       0       0       0       0       0       0       0       0
  4769 ;;      Totals:         1       0       0       0       0       0       0       0       0       0       0       0       
      +0       0       0       0       0       0       0       0       0       0       0       0       0       0       0
  4770 ;;Total ram usage:        1 bytes
  4771 ;; Hardware stack levels used:    1
  4772 ;; Hardware stack levels required when called:    3
  4773 ;; This function calls:
  4774 ;;		Nothing
  4775 ;; This function is called by:
  4776 ;;		_Power_Loop
  4777 ;; This function uses a non-reentrant model
  4778 ;;
  4779                           
  4780                           
  4781                           ;psect for function _generateIntPower
  4782  0376                     _generateIntPower:
  4783  0376                     l201:	
  4784                           ;incstack = 0
  4785                           ; Regs used in _generateIntPower: [wreg]
  4786                           ;power.c: 306: do { LATCbits.LATC7 = 0; } while(0);
  4787                           
  4788  0376  0140               	movlb	0	; select bank0
  4789  0377  139A               	bcf	26,7	;volatile
  4790  0378                     l1865:
  4791                           
  4792                           ;power.c: 307: _delay((unsigned long)((5)*(32000000/4000.0)));
  4793  0378  3034               	movlw	52
  4794  0379  00F4               	movwf	??_generateIntPower
  4795  037A  30F2               	movlw	242
  4796  037B                     u1477:
  4797  037B  0B89               	decfsz	9,f
  4798  037C  2B7B               	goto	u1477
  4799  037D  0BF4               	decfsz	??_generateIntPower,f
  4800  037E  2B7B               	goto	u1477
  4801  037F                     l1867:
  4802  037F  0140               	movlb	0	; select bank0
  4803  0380  179A               	bsf	26,7	;volatile
  4804  0381                     l205:
  4805  0381  0008               	return
  4806  0382                     __end_of_generateIntPower:
  4807                           
  4808                           	psect	text10
  4809  0395                     __ptext10:	
  4810 ;; *************** function _Enter_sleep *****************
  4811 ;; Defined at:
  4812 ;;		line 143 in file "sensor/power.c"
  4813 ;; Parameters:    Size  Location     Type
  4814 ;;		None
  4815 ;; Auto vars:     Size  Location     Type
  4816 ;;		None
  4817 ;; Return value:  Size  Location     Type
  4818 ;;                  1    wreg      void 
  4819 ;; Registers used:
  4820 ;;		None
  4821 ;; Tracked objects:
  4822 ;;		On entry : 0/0
  4823 ;;		On exit  : 0/0
  4824 ;;		Unchanged: 0/0
  4825 ;; Data sizes:     COMMON   BANK0   BANK1   BANK2   BANK3   BANK4   BANK5   BANK6   BANK7   BANK8   BANK9  BANK10  BANK1
      +1  BANK12  BANK13  BANK14  BANK15  BANK16  BANK17  BANK18  BANK19  BANK20  BANK21  BANK22  BANK23  BANK24  BANK25
  4826 ;;      Params:         0       0       0       0       0       0       0       0       0       0       0       0       
      +0       0       0       0       0       0       0       0       0       0       0       0       0       0       0
  4827 ;;      Locals:         0       0       0       0       0       0       0       0       0       0       0       0       
      +0       0       0       0       0       0       0       0       0       0       0       0       0       0       0
  4828 ;;      Temps:          0       0       0       0       0       0       0       0       0       0       0       0       
      +0       0       0       0       0       0       0       0       0       0       0       0       0       0       0
  4829 ;;      Totals:         0       0       0       0       0       0       0       0       0       0       0       0       
      +0       0       0       0       0       0       0       0       0       0       0       0       0       0       0
  4830 ;;Total ram usage:        0 bytes
  4831 ;; Hardware stack levels used:    1
  4832 ;; Hardware stack levels required when called:    3
  4833 ;; This function calls:
  4834 ;;		Nothing
  4835 ;; This function is called by:
  4836 ;;		_Power_Loop
  4837 ;; This function uses a non-reentrant model
  4838 ;;
  4839                           
  4840                           
  4841                           ;psect for function _Enter_sleep
  4842  0395                     _Enter_sleep:
  4843  0395                     l1863:	
  4844                           ;incstack = 0
  4845                           ; Regs used in _Enter_sleep: []
  4846                           
  4847                           
  4848                           ;power.c: 145: CPUDOZEbits.IDLEN = 0;
  4849  0395  0151               	movlb	17	; select bank17
  4850  0396  138C               	bcf	12,7	;volatile
  4851                           
  4852                           ;power.c: 146: __nop();
  4853  0397  0000               	nop
  4854  0398  0063               	sleep	;# 
  4855                           
  4856                           ;power.c: 148: __nop();
  4857  0399  0000               	nop
  4858                           
  4859                           ;power.c: 149: __nop();
  4860  039A  0000               	nop
  4861  039B                     l129:
  4862  039B  0008               	return
  4863  039C                     __end_of_Enter_sleep:
  4864                           
  4865                           	psect	text11
  4866  02DB                     __ptext11:	
  4867 ;; *************** function _Power_Init *****************
  4868 ;; Defined at:
  4869 ;;		line 153 in file "sensor/power.c"
  4870 ;; Parameters:    Size  Location     Type
  4871 ;;		None
  4872 ;; Auto vars:     Size  Location     Type
  4873 ;;		None
  4874 ;; Return value:  Size  Location     Type
  4875 ;;                  1    wreg      void 
  4876 ;; Registers used:
  4877 ;;		wreg, status,2, status,0, pclath, cstack
  4878 ;; Tracked objects:
  4879 ;;		On entry : 0/0
  4880 ;;		On exit  : 0/0
  4881 ;;		Unchanged: 0/0
  4882 ;; Data sizes:     COMMON   BANK0   BANK1   BANK2   BANK3   BANK4   BANK5   BANK6   BANK7   BANK8   BANK9  BANK10  BANK1
      +1  BANK12  BANK13  BANK14  BANK15  BANK16  BANK17  BANK18  BANK19  BANK20  BANK21  BANK22  BANK23  BANK24  BANK25
  4883 ;;      Params:         0       0       0       0       0       0       0       0       0       0       0       0       
      +0       0       0       0       0       0       0       0       0       0       0       0       0       0       0
  4884 ;;      Locals:         0       0       0       0       0       0       0       0       0       0       0       0       
      +0       0       0       0       0       0       0       0       0       0       0       0       0       0       0
  4885 ;;      Temps:          0       0       0       0       0       0       0       0       0       0       0       0       
      +0       0       0       0       0       0       0       0       0       0       0       0       0       0       0
  4886 ;;      Totals:         0       0       0       0       0       0       0       0       0       0       0       0       
      +0       0       0       0       0       0       0       0       0       0       0       0       0       0       0
  4887 ;;Total ram usage:        0 bytes
  4888 ;; Hardware stack levels used:    1
  4889 ;; Hardware stack levels required when called:    4
  4890 ;; This function calls:
  4891 ;;		_LED_Blink
  4892 ;; This function is called by:
  4893 ;;		_main
  4894 ;; This function uses a non-reentrant model
  4895 ;;
  4896                           
  4897                           
  4898                           ;psect for function _Power_Init
  4899  02DB                     _Power_Init:
  4900  02DB                     l132:	
  4901                           ;incstack = 0
  4902                           ; Regs used in _Power_Init: [wreg+status,2+status,0+pclath+cstack]
  4903                           ;power.c: 155: do { TRISCbits.TRISC7 = 0; } while(0);
  4904                           
  4905  02DB  0140               	movlb	0	; select bank0
  4906  02DC  1394               	bcf	20,7	;volatile
  4907  02DD                     l134:	
  4908                           ;power.c: 156: do { LATCbits.LATC7 = 1; } while(0);
  4909                           
  4910  02DD  179A               	bsf	26,7	;volatile
  4911  02DE                     l136:	
  4912                           ;power.c: 163: do { TRISCbits.TRISC0 = 0; } while(0);
  4913                           
  4914  02DE  1014               	bcf	20,0	;volatile
  4915  02DF                     l138:	
  4916                           ;power.c: 164: do { TRISCbits.TRISC6 = 0; } while(0);
  4917                           
  4918  02DF  1314               	bcf	20,6	;volatile
  4919  02E0                     l140:	
  4920                           ;power.c: 166: do { ANSELBbits.ANSB6 = 0; } while(0);
  4921                           
  4922  02E0  017E               	movlb	62	; select bank62
  4923  02E1  1343               	bcf	67,6	;volatile
  4924  02E2                     l142:	
  4925                           ;power.c: 168: do { TRISBbits.TRISB6 = 0; } while(0);
  4926                           
  4927  02E2  0140               	movlb	0	; select bank0
  4928  02E3  1313               	bcf	19,6	;volatile
  4929  02E4                     l144:	
  4930                           ;power.c: 169: do { TRISCbits.TRISC1 = 0; } while(0);
  4931                           
  4932  02E4  1094               	bcf	20,1	;volatile
  4933  02E5                     l146:	
  4934                           ;power.c: 172: do { LATBbits.LATB6 = 0; } while(0);
  4935                           
  4936  02E5  1319               	bcf	25,6	;volatile
  4937  02E6                     l148:	
  4938                           ;power.c: 173: do { LATCbits.LATC1 = 0; } while(0);
  4939                           
  4940  02E6  109A               	bcf	26,1	;volatile
  4941  02E7                     l2043:
  4942                           
  4943                           ;power.c: 176: LED_Blink();
  4944  02E7  3181  2121  3182   	fcall	_LED_Blink
  4945  02EA                     l2045:
  4946  02EA  0140               	movlb	0	; select bank0
  4947  02EB  101A               	bcf	26,0	;volatile
  4948  02EC                     l2047:
  4949  02EC  131A               	bcf	26,6	;volatile
  4950  02ED                     l2049:
  4951  02ED  1594               	bsf	20,3	;volatile
  4952  02EE                     l2051:
  4953  02EE  017E               	movlb	62	; select bank62
  4954  02EF  15CE               	bsf	78,3	;volatile
  4955  02F0                     l2053:
  4956  02F0  0140               	movlb	0	; select bank0
  4957  02F1  1614               	bsf	20,4	;volatile
  4958  02F2                     l2055:
  4959  02F2  017E               	movlb	62	; select bank62
  4960  02F3  164E               	bsf	78,4	;volatile
  4961  02F4                     l162:
  4962  02F4  0008               	return
  4963  02F5                     __end_of_Power_Init:
  4964                           
  4965                           	psect	text12
  4966  0121                     __ptext12:	
  4967 ;; *************** function _LED_Blink *****************
  4968 ;; Defined at:
  4969 ;;		line 46 in file "sensor/power.c"
  4970 ;; Parameters:    Size  Location     Type
  4971 ;;		None
  4972 ;; Auto vars:     Size  Location     Type
  4973 ;;		None
  4974 ;; Return value:  Size  Location     Type
  4975 ;;                  1    wreg      void 
  4976 ;; Registers used:
  4977 ;;		wreg
  4978 ;; Tracked objects:
  4979 ;;		On entry : 0/0
  4980 ;;		On exit  : 0/0
  4981 ;;		Unchanged: 0/0
  4982 ;; Data sizes:     COMMON   BANK0   BANK1   BANK2   BANK3   BANK4   BANK5   BANK6   BANK7   BANK8   BANK9  BANK10  BANK1
      +1  BANK12  BANK13  BANK14  BANK15  BANK16  BANK17  BANK18  BANK19  BANK20  BANK21  BANK22  BANK23  BANK24  BANK25
  4983 ;;      Params:         0       0       0       0       0       0       0       0       0       0       0       0       
      +0       0       0       0       0       0       0       0       0       0       0       0       0       0       0
  4984 ;;      Locals:         0       0       0       0       0       0       0       0       0       0       0       0       
      +0       0       0       0       0       0       0       0       0       0       0       0       0       0       0
  4985 ;;      Temps:          2       0       0       0       0       0       0       0       0       0       0       0       
      +0       0       0       0       0       0       0       0       0       0       0       0       0       0       0
  4986 ;;      Totals:         2       0       0       0       0       0       0       0       0       0       0       0       
      +0       0       0       0       0       0       0       0       0       0       0       0       0       0       0
  4987 ;;Total ram usage:        2 bytes
  4988 ;; Hardware stack levels used:    1
  4989 ;; Hardware stack levels required when called:    3
  4990 ;; This function calls:
  4991 ;;		Nothing
  4992 ;; This function is called by:
  4993 ;;		_Power_Init
  4994 ;; This function uses a non-reentrant model
  4995 ;;
  4996                           
  4997                           
  4998                           ;psect for function _LED_Blink
  4999  0121                     _LED_Blink:
  5000  0121                     l91:	
  5001                           ;incstack = 0
  5002                           ; Regs used in _LED_Blink: [wreg]
  5003                           ;power.c: 49: do { LATBbits.LATB6 = 1; } while(0);
  5004                           
  5005  0121  0140               	movlb	0	; select bank0
  5006  0122  1719               	bsf	25,6	;volatile
  5007  0123                     l1839:
  5008                           
  5009                           ;power.c: 50: _delay((unsigned long)((100)*(32000000/4000.0)));
  5010  0123  3005               	movlw	5
  5011  0124  00F5               	movwf	??_LED_Blink+1
  5012  0125  300F               	movlw	15
  5013  0126  00F4               	movwf	??_LED_Blink
  5014  0127  30F1               	movlw	241
  5015  0128                     u1487:
  5016  0128  0B89               	decfsz	9,f
  5017  0129  2928               	goto	u1487
  5018  012A  0BF4               	decfsz	??_LED_Blink,f
  5019  012B  2928               	goto	u1487
  5020  012C  0BF5               	decfsz	??_LED_Blink+1,f
  5021  012D  2928               	goto	u1487
  5022  012E  0000               	nop
  5023  012F                     l1841:
  5024  012F  0140               	movlb	0	; select bank0
  5025  0130  1319               	bcf	25,6	;volatile
  5026  0131                     l94:
  5027                           
  5028                           ;power.c: 52: _delay((unsigned long)((100)*(32000000/4000.0)));
  5029  0131  3005               	movlw	5
  5030  0132  00F5               	movwf	??_LED_Blink+1
  5031  0133  300F               	movlw	15
  5032  0134  00F4               	movwf	??_LED_Blink
  5033  0135  30F1               	movlw	241
  5034  0136                     u1497:
  5035  0136  0B89               	decfsz	9,f
  5036  0137  2936               	goto	u1497
  5037  0138  0BF4               	decfsz	??_LED_Blink,f
  5038  0139  2936               	goto	u1497
  5039  013A  0BF5               	decfsz	??_LED_Blink+1,f
  5040  013B  2936               	goto	u1497
  5041  013C  0000               	nop
  5042  013D                     l1843:
  5043  013D  0140               	movlb	0	; select bank0
  5044  013E  1719               	bsf	25,6	;volatile
  5045  013F                     l96:
  5046                           
  5047                           ;power.c: 54: _delay((unsigned long)((100)*(32000000/4000.0)));
  5048  013F  3005               	movlw	5
  5049  0140  00F5               	movwf	??_LED_Blink+1
  5050  0141  300F               	movlw	15
  5051  0142  00F4               	movwf	??_LED_Blink
  5052  0143  30F1               	movlw	241
  5053  0144                     u1507:
  5054  0144  0B89               	decfsz	9,f
  5055  0145  2944               	goto	u1507
  5056  0146  0BF4               	decfsz	??_LED_Blink,f
  5057  0147  2944               	goto	u1507
  5058  0148  0BF5               	decfsz	??_LED_Blink+1,f
  5059  0149  2944               	goto	u1507
  5060  014A  0000               	nop
  5061  014B                     l1845:
  5062  014B  0140               	movlb	0	; select bank0
  5063  014C  1319               	bcf	25,6	;volatile
  5064  014D                     l98:
  5065                           
  5066                           ;power.c: 56: _delay((unsigned long)((100)*(32000000/4000.0)));
  5067  014D  3005               	movlw	5
  5068  014E  00F5               	movwf	??_LED_Blink+1
  5069  014F  300F               	movlw	15
  5070  0150  00F4               	movwf	??_LED_Blink
  5071  0151  30F1               	movlw	241
  5072  0152                     u1517:
  5073  0152  0B89               	decfsz	9,f
  5074  0153  2952               	goto	u1517
  5075  0154  0BF4               	decfsz	??_LED_Blink,f
  5076  0155  2952               	goto	u1517
  5077  0156  0BF5               	decfsz	??_LED_Blink+1,f
  5078  0157  2952               	goto	u1517
  5079  0158  0000               	nop
  5080  0159                     l1847:
  5081  0159  0140               	movlb	0	; select bank0
  5082  015A  1719               	bsf	25,6	;volatile
  5083  015B                     l100:
  5084                           
  5085                           ;power.c: 58: _delay((unsigned long)((100)*(32000000/4000.0)));
  5086  015B  3005               	movlw	5
  5087  015C  00F5               	movwf	??_LED_Blink+1
  5088  015D  300F               	movlw	15
  5089  015E  00F4               	movwf	??_LED_Blink
  5090  015F  30F1               	movlw	241
  5091  0160                     u1527:
  5092  0160  0B89               	decfsz	9,f
  5093  0161  2960               	goto	u1527
  5094  0162  0BF4               	decfsz	??_LED_Blink,f
  5095  0163  2960               	goto	u1527
  5096  0164  0BF5               	decfsz	??_LED_Blink+1,f
  5097  0165  2960               	goto	u1527
  5098  0166  0000               	nop
  5099  0167                     l1849:
  5100  0167  0140               	movlb	0	; select bank0
  5101  0168  1319               	bcf	25,6	;volatile
  5102  0169                     l102:
  5103                           
  5104                           ;power.c: 60: _delay((unsigned long)((500)*(32000000/4000.0)));
  5105  0169  3015               	movlw	21
  5106  016A  00F5               	movwf	??_LED_Blink+1
  5107  016B  304B               	movlw	75
  5108  016C  00F4               	movwf	??_LED_Blink
  5109  016D  30BE               	movlw	190
  5110  016E                     u1537:
  5111  016E  0B89               	decfsz	9,f
  5112  016F  296E               	goto	u1537
  5113  0170  0BF4               	decfsz	??_LED_Blink,f
  5114  0171  296E               	goto	u1537
  5115  0172  0BF5               	decfsz	??_LED_Blink+1,f
  5116  0173  296E               	goto	u1537
  5117  0174  3200               	nop2
  5118  0175                     l1851:
  5119  0175  0140               	movlb	0	; select bank0
  5120  0176  149A               	bsf	26,1	;volatile
  5121  0177                     l104:
  5122                           
  5123                           ;power.c: 63: _delay((unsigned long)((100)*(32000000/4000.0)));
  5124  0177  3005               	movlw	5
  5125  0178  00F5               	movwf	??_LED_Blink+1
  5126  0179  300F               	movlw	15
  5127  017A  00F4               	movwf	??_LED_Blink
  5128  017B  30F1               	movlw	241
  5129  017C                     u1547:
  5130  017C  0B89               	decfsz	9,f
  5131  017D  297C               	goto	u1547
  5132  017E  0BF4               	decfsz	??_LED_Blink,f
  5133  017F  297C               	goto	u1547
  5134  0180  0BF5               	decfsz	??_LED_Blink+1,f
  5135  0181  297C               	goto	u1547
  5136  0182  0000               	nop
  5137  0183                     l1853:
  5138  0183  0140               	movlb	0	; select bank0
  5139  0184  109A               	bcf	26,1	;volatile
  5140  0185                     l106:
  5141                           
  5142                           ;power.c: 65: _delay((unsigned long)((100)*(32000000/4000.0)));
  5143  0185  3005               	movlw	5
  5144  0186  00F5               	movwf	??_LED_Blink+1
  5145  0187  300F               	movlw	15
  5146  0188  00F4               	movwf	??_LED_Blink
  5147  0189  30F1               	movlw	241
  5148  018A                     u1557:
  5149  018A  0B89               	decfsz	9,f
  5150  018B  298A               	goto	u1557
  5151  018C  0BF4               	decfsz	??_LED_Blink,f
  5152  018D  298A               	goto	u1557
  5153  018E  0BF5               	decfsz	??_LED_Blink+1,f
  5154  018F  298A               	goto	u1557
  5155  0190  0000               	nop
  5156  0191                     l1855:
  5157  0191  0140               	movlb	0	; select bank0
  5158  0192  149A               	bsf	26,1	;volatile
  5159  0193                     l108:
  5160                           
  5161                           ;power.c: 67: _delay((unsigned long)((100)*(32000000/4000.0)));
  5162  0193  3005               	movlw	5
  5163  0194  00F5               	movwf	??_LED_Blink+1
  5164  0195  300F               	movlw	15
  5165  0196  00F4               	movwf	??_LED_Blink
  5166  0197  30F1               	movlw	241
  5167  0198                     u1567:
  5168  0198  0B89               	decfsz	9,f
  5169  0199  2998               	goto	u1567
  5170  019A  0BF4               	decfsz	??_LED_Blink,f
  5171  019B  2998               	goto	u1567
  5172  019C  0BF5               	decfsz	??_LED_Blink+1,f
  5173  019D  2998               	goto	u1567
  5174  019E  0000               	nop
  5175  019F                     l1857:
  5176  019F  0140               	movlb	0	; select bank0
  5177  01A0  109A               	bcf	26,1	;volatile
  5178  01A1                     l110:
  5179                           
  5180                           ;power.c: 69: _delay((unsigned long)((100)*(32000000/4000.0)));
  5181  01A1  3005               	movlw	5
  5182  01A2  00F5               	movwf	??_LED_Blink+1
  5183  01A3  300F               	movlw	15
  5184  01A4  00F4               	movwf	??_LED_Blink
  5185  01A5  30F1               	movlw	241
  5186  01A6                     u1577:
  5187  01A6  0B89               	decfsz	9,f
  5188  01A7  29A6               	goto	u1577
  5189  01A8  0BF4               	decfsz	??_LED_Blink,f
  5190  01A9  29A6               	goto	u1577
  5191  01AA  0BF5               	decfsz	??_LED_Blink+1,f
  5192  01AB  29A6               	goto	u1577
  5193  01AC  0000               	nop
  5194  01AD                     l1859:
  5195  01AD  0140               	movlb	0	; select bank0
  5196  01AE  149A               	bsf	26,1	;volatile
  5197  01AF                     l112:
  5198                           
  5199                           ;power.c: 71: _delay((unsigned long)((100)*(32000000/4000.0)));
  5200  01AF  3005               	movlw	5
  5201  01B0  00F5               	movwf	??_LED_Blink+1
  5202  01B1  300F               	movlw	15
  5203  01B2  00F4               	movwf	??_LED_Blink
  5204  01B3  30F1               	movlw	241
  5205  01B4                     u1587:
  5206  01B4  0B89               	decfsz	9,f
  5207  01B5  29B4               	goto	u1587
  5208  01B6  0BF4               	decfsz	??_LED_Blink,f
  5209  01B7  29B4               	goto	u1587
  5210  01B8  0BF5               	decfsz	??_LED_Blink+1,f
  5211  01B9  29B4               	goto	u1587
  5212  01BA  0000               	nop
  5213  01BB                     l1861:
  5214  01BB  0140               	movlb	0	; select bank0
  5215  01BC  109A               	bcf	26,1	;volatile
  5216  01BD                     l115:
  5217  01BD  0008               	return
  5218  01BE                     __end_of_LED_Blink:
  5219                           
  5220                           	psect	text13
  5221  0324                     __ptext13:	
  5222 ;; *************** function _Power_GetData *****************
  5223 ;; Defined at:
  5224 ;;		line 285 in file "sensor/power.c"
  5225 ;; Parameters:    Size  Location     Type
  5226 ;;  data            1    4[COMMON] PTR unsigned char 
  5227 ;;		 -> mData(6), 
  5228 ;;  length          1    5[COMMON] PTR unsigned char 
  5229 ;;		 -> mDataLength(1), 
  5230 ;; Auto vars:     Size  Location     Type
  5231 ;;		None
  5232 ;; Return value:  Size  Location     Type
  5233 ;;                  1    wreg      void 
  5234 ;; Registers used:
  5235 ;;		wreg, fsr1l, fsr1h
  5236 ;; Tracked objects:
  5237 ;;		On entry : 0/0
  5238 ;;		On exit  : 0/0
  5239 ;;		Unchanged: 0/0
  5240 ;; Data sizes:     COMMON   BANK0   BANK1   BANK2   BANK3   BANK4   BANK5   BANK6   BANK7   BANK8   BANK9  BANK10  BANK1
      +1  BANK12  BANK13  BANK14  BANK15  BANK16  BANK17  BANK18  BANK19  BANK20  BANK21  BANK22  BANK23  BANK24  BANK25
  5241 ;;      Params:         2       0       0       0       0       0       0       0       0       0       0       0       
      +0       0       0       0       0       0       0       0       0       0       0       0       0       0       0
  5242 ;;      Locals:         0       0       0       0       0       0       0       0       0       0       0       0       
      +0       0       0       0       0       0       0       0       0       0       0       0       0       0       0
  5243 ;;      Temps:          0       1       0       0       0       0       0       0       0       0       0       0       
      +0       0       0       0       0       0       0       0       0       0       0       0       0       0       0
  5244 ;;      Totals:         2       1       0       0       0       0       0       0       0       0       0       0       
      +0       0       0       0       0       0       0       0       0       0       0       0       0       0       0
  5245 ;;Total ram usage:        3 bytes
  5246 ;; Hardware stack levels used:    1
  5247 ;; Hardware stack levels required when called:    3
  5248 ;; This function calls:
  5249 ;;		Nothing
  5250 ;; This function is called by:
  5251 ;;		_main
  5252 ;; This function uses a non-reentrant model
  5253 ;;
  5254                           
  5255                           
  5256                           ;psect for function _Power_GetData
  5257  0324                     _Power_GetData:
  5258  0324                     l2565:	
  5259                           ;incstack = 0
  5260                           ; Regs used in _Power_GetData: [wregfsr1]
  5261                           
  5262                           
  5263                           ;power.c: 286: *length = 2;
  5264  0324  3002               	movlw	2
  5265  0325  0140               	movlb	0	; select bank0
  5266  0326  00C3               	movwf	??_Power_GetData
  5267  0327  0875               	movf	Power_GetData@length,w
  5268  0328  0086               	movwf	6
  5269  0329  0187               	clrf	7
  5270  032A  0843               	movf	??_Power_GetData,w
  5271  032B  0081               	movwf	1
  5272                           
  5273                           ;power.c: 287: data[0] = measurementData[0];
  5274  032C  0820               	movf	_measurementData,w	;volatile
  5275  032D  00C3               	movwf	??_Power_GetData
  5276  032E  0874               	movf	Power_GetData@data,w
  5277  032F  0086               	movwf	6
  5278  0330  0187               	clrf	7
  5279  0331  0843               	movf	??_Power_GetData,w
  5280  0332  0081               	movwf	1
  5281                           
  5282                           ;power.c: 288: data[1] = measurementData[1];
  5283  0333  0821               	movf	_measurementData+1,w	;volatile
  5284  0334  00C3               	movwf	??_Power_GetData
  5285  0335  0A74               	incf	Power_GetData@data,w
  5286  0336  0086               	movwf	6
  5287  0337  0187               	clrf	7
  5288  0338  0843               	movf	??_Power_GetData,w
  5289  0339  0081               	movwf	1
  5290  033A                     l195:
  5291  033A  0008               	return
  5292  033B                     __end_of_Power_GetData:
  5293                           
  5294                           	psect	text14
  5295  038D                     __ptext14:	
  5296 ;; *************** function _I2C1_TxBufferEmpty *****************
  5297 ;; Defined at:
  5298 ;;		line 179 in file "system/i2c1.c"
  5299 ;; Parameters:    Size  Location     Type
  5300 ;;		None
  5301 ;; Auto vars:     Size  Location     Type
  5302 ;;		None
  5303 ;; Return value:  Size  Location     Type
  5304 ;;                  1    wreg      unsigned char 
  5305 ;; Registers used:
  5306 ;;		wreg, status,2, status,0
  5307 ;; Tracked objects:
  5308 ;;		On entry : 0/0
  5309 ;;		On exit  : 0/0
  5310 ;;		Unchanged: 0/0
  5311 ;; Data sizes:     COMMON   BANK0   BANK1   BANK2   BANK3   BANK4   BANK5   BANK6   BANK7   BANK8   BANK9  BANK10  BANK1
      +1  BANK12  BANK13  BANK14  BANK15  BANK16  BANK17  BANK18  BANK19  BANK20  BANK21  BANK22  BANK23  BANK24  BANK25
  5312 ;;      Params:         0       0       0       0       0       0       0       0       0       0       0       0       
      +0       0       0       0       0       0       0       0       0       0       0       0       0       0       0
  5313 ;;      Locals:         0       0       0       0       0       0       0       0       0       0       0       0       
      +0       0       0       0       0       0       0       0       0       0       0       0       0       0       0
  5314 ;;      Temps:          0       0       0       0       0       0       0       0       0       0       0       0       
      +0       0       0       0       0       0       0       0       0       0       0       0       0       0       0
  5315 ;;      Totals:         0       0       0       0       0       0       0       0       0       0       0       0       
      +0       0       0       0       0       0       0       0       0       0       0       0       0       0       0
  5316 ;;Total ram usage:        0 bytes
  5317 ;; Hardware stack levels used:    1
  5318 ;; Hardware stack levels required when called:    3
  5319 ;; This function calls:
  5320 ;;		Nothing
  5321 ;; This function is called by:
  5322 ;;		_main
  5323 ;; This function uses a non-reentrant model
  5324 ;;
  5325                           
  5326                           
  5327                           ;psect for function _I2C1_TxBufferEmpty
  5328  038D                     _I2C1_TxBufferEmpty:
  5329  038D                     l2139:	
  5330                           ;incstack = 0
  5331                           ; Regs used in _I2C1_TxBufferEmpty: [wreg+status,2+status,0]
  5332                           
  5333                           
  5334                           ;i2c1.c: 180: return (txCnt != 0);
  5335  038D  0876               	movf	_txCnt,w
  5336  038E  1D03               	btfss	3,2
  5337  038F  2B91               	goto	u731
  5338  0390  2B93               	goto	u730
  5339  0391                     u731:
  5340  0391  3001               	movlw	1
  5341  0392  2B94               	goto	u740
  5342  0393                     u730:
  5343  0393  3000               	movlw	0
  5344  0394                     u740:
  5345  0394                     l350:
  5346  0394  0008               	return
  5347  0395                     __end_of_I2C1_TxBufferEmpty:
  5348                           
  5349                           	psect	text15
  5350  0276                     __ptext15:	
  5351 ;; *************** function _I2C1_SetTransmitData *****************
  5352 ;; Defined at:
  5353 ;;		line 193 in file "system/i2c1.c"
  5354 ;; Parameters:    Size  Location     Type
  5355 ;;  data            1    wreg     PTR unsigned char 
  5356 ;;		 -> main@mnr(1), main@type(1), main@ack(1), mData(6), 
  5357 ;;  len             1    4[COMMON] unsigned char 
  5358 ;; Auto vars:     Size  Location     Type
  5359 ;;  data            1    5[COMMON] PTR unsigned char 
  5360 ;;		 -> main@mnr(1), main@type(1), main@ack(1), mData(6), 
  5361 ;; Return value:  Size  Location     Type
  5362 ;;                  1    wreg      void 
  5363 ;; Registers used:
  5364 ;;		wreg, fsr1l, fsr1h, status,2, status,0
  5365 ;; Tracked objects:
  5366 ;;		On entry : 0/0
  5367 ;;		On exit  : 0/0
  5368 ;;		Unchanged: 0/0
  5369 ;; Data sizes:     COMMON   BANK0   BANK1   BANK2   BANK3   BANK4   BANK5   BANK6   BANK7   BANK8   BANK9  BANK10  BANK1
      +1  BANK12  BANK13  BANK14  BANK15  BANK16  BANK17  BANK18  BANK19  BANK20  BANK21  BANK22  BANK23  BANK24  BANK25
  5370 ;;      Params:         1       0       0       0       0       0       0       0       0       0       0       0       
      +0       0       0       0       0       0       0       0       0       0       0       0       0       0       0
  5371 ;;      Locals:         1       0       0       0       0       0       0       0       0       0       0       0       
      +0       0       0       0       0       0       0       0       0       0       0       0       0       0       0
  5372 ;;      Temps:          0       2       0       0       0       0       0       0       0       0       0       0       
      +0       0       0       0       0       0       0       0       0       0       0       0       0       0       0
  5373 ;;      Totals:         2       2       0       0       0       0       0       0       0       0       0       0       
      +0       0       0       0       0       0       0       0       0       0       0       0       0       0       0
  5374 ;;Total ram usage:        4 bytes
  5375 ;; Hardware stack levels used:    1
  5376 ;; Hardware stack levels required when called:    3
  5377 ;; This function calls:
  5378 ;;		Nothing
  5379 ;; This function is called by:
  5380 ;;		_main
  5381 ;; This function uses a non-reentrant model
  5382 ;;
  5383                           
  5384                           
  5385                           ;psect for function _I2C1_SetTransmitData
  5386  0276                     _I2C1_SetTransmitData:
  5387                           
  5388                           ;incstack = 0
  5389                           ; Regs used in _I2C1_SetTransmitData: [wreg+fsr1l+fsr1h+status,2+status,0]
  5390                           ;I2C1_SetTransmitData@data stored from wreg
  5391  0276  00F5               	movwf	I2C1_SetTransmitData@data
  5392  0277                     l2567:
  5393                           
  5394                           ;i2c1.c: 195: while((txCnt < len) && (txCnt < 32)){
  5395  0277  2A8B               	goto	l2573
  5396  0278                     l2569:
  5397                           
  5398                           ;i2c1.c: 196: i2c1_tx_buffer[txCnt] = data[txCnt];
  5399  0278  0876               	movf	_txCnt,w
  5400  0279  0775               	addwf	I2C1_SetTransmitData@data,w
  5401  027A  0140               	movlb	0	; select bank0
  5402  027B  00C3               	movwf	??_I2C1_SetTransmitData
  5403  027C  0843               	movf	??_I2C1_SetTransmitData,w
  5404  027D  0086               	movwf	6
  5405  027E  0187               	clrf	7
  5406  027F  0801               	movf	1,w
  5407  0280  00C4               	movwf	??_I2C1_SetTransmitData+1
  5408  0281  0876               	movf	_txCnt,w
  5409  0282  3EA0               	addlw	(low (_i2c1_tx_buffer| 0))& (0+255)
  5410  0283  0086               	movwf	6
  5411  0284  0187               	clrf	7
  5412  0285  0844               	movf	??_I2C1_SetTransmitData+1,w
  5413  0286  0081               	movwf	1
  5414  0287                     l2571:
  5415                           
  5416                           ;i2c1.c: 197: txCnt++;
  5417  0287  3001               	movlw	1
  5418  0288  00C3               	movwf	??_I2C1_SetTransmitData
  5419  0289  0843               	movf	??_I2C1_SetTransmitData,w
  5420  028A  07F6               	addwf	_txCnt,f
  5421  028B                     l2573:
  5422  028B  0874               	movf	I2C1_SetTransmitData@len,w
  5423  028C  0276               	subwf	_txCnt,w
  5424  028D  1803               	skipnc
  5425  028E  2A90               	goto	u1381
  5426  028F  2A91               	goto	u1380
  5427  0290                     u1381:
  5428  0290  2A97               	goto	l2577
  5429  0291                     u1380:
  5430  0291                     l2575:
  5431  0291  3020               	movlw	32
  5432  0292  0276               	subwf	_txCnt,w
  5433  0293  1C03               	skipc
  5434  0294  2A96               	goto	u1391
  5435  0295  2A97               	goto	u1390
  5436  0296                     u1391:
  5437  0296  2A78               	goto	l2569
  5438  0297                     u1390:
  5439  0297                     l2577:
  5440                           
  5441                           ;i2c1.c: 198: };i2c1.c: 199: txLen = txCnt;
  5442  0297  0876               	movf	_txCnt,w
  5443  0298  0140               	movlb	0	; select bank0
  5444  0299  00C3               	movwf	??_I2C1_SetTransmitData
  5445  029A  0843               	movf	??_I2C1_SetTransmitData,w
  5446  029B  00B3               	movwf	_txLen
  5447  029C                     l2579:
  5448                           
  5449                           ;i2c1.c: 200: txCnt = 0;
  5450  029C  01F6               	clrf	_txCnt
  5451  029D                     l364:
  5452  029D  0008               	return
  5453  029E                     __end_of_I2C1_SetTransmitData:
  5454                           
  5455                           	psect	text16
  5456  02BF                     __ptext16:	
  5457 ;; *************** function _I2C1_GetCommandData *****************
  5458 ;; Defined at:
  5459 ;;		line 188 in file "system/i2c1.c"
  5460 ;; Parameters:    Size  Location     Type
  5461 ;;  data            1    wreg     PTR unsigned char 
  5462 ;;		 -> main@data(20), 
  5463 ;;  len             1    4[COMMON] PTR unsigned char 
  5464 ;;		 -> main@len(1), 
  5465 ;; Auto vars:     Size  Location     Type
  5466 ;;  data            1    0[BANK0 ] PTR unsigned char 
  5467 ;;		 -> main@data(20), 
  5468 ;; Return value:  Size  Location     Type
  5469 ;;                  1    wreg      void 
  5470 ;; Registers used:
  5471 ;;		wreg, fsr0l, fsr0h, fsr1l, fsr1h
  5472 ;; Tracked objects:
  5473 ;;		On entry : 0/0
  5474 ;;		On exit  : 0/0
  5475 ;;		Unchanged: 0/0
  5476 ;; Data sizes:     COMMON   BANK0   BANK1   BANK2   BANK3   BANK4   BANK5   BANK6   BANK7   BANK8   BANK9  BANK10  BANK1
      +1  BANK12  BANK13  BANK14  BANK15  BANK16  BANK17  BANK18  BANK19  BANK20  BANK21  BANK22  BANK23  BANK24  BANK25
  5477 ;;      Params:         1       0       0       0       0       0       0       0       0       0       0       0       
      +0       0       0       0       0       0       0       0       0       0       0       0       0       0       0
  5478 ;;      Locals:         0       1       0       0       0       0       0       0       0       0       0       0       
      +0       0       0       0       0       0       0       0       0       0       0       0       0       0       0
  5479 ;;      Temps:          1       0       0       0       0       0       0       0       0       0       0       0       
      +0       0       0       0       0       0       0       0       0       0       0       0       0       0       0
  5480 ;;      Totals:         2       1       0       0       0       0       0       0       0       0       0       0       
      +0       0       0       0       0       0       0       0       0       0       0       0       0       0       0
  5481 ;;Total ram usage:        3 bytes
  5482 ;; Hardware stack levels used:    1
  5483 ;; Hardware stack levels required when called:    3
  5484 ;; This function calls:
  5485 ;;		Nothing
  5486 ;; This function is called by:
  5487 ;;		_main
  5488 ;; This function uses a non-reentrant model
  5489 ;;
  5490                           
  5491                           
  5492                           ;psect for function _I2C1_GetCommandData
  5493  02BF                     _I2C1_GetCommandData:
  5494                           
  5495                           ;incstack = 0
  5496                           ; Regs used in _I2C1_GetCommandData: [wreg-fsr1h]
  5497                           ;I2C1_GetCommandData@data stored from wreg
  5498  02BF  0140               	movlb	0	; select bank0
  5499  02C0  00C3               	movwf	I2C1_GetCommandData@data
  5500  02C1                     l2581:
  5501                           
  5502                           ;i2c1.c: 189: __builtin_memcpy(data,i2c1_rx_buffer,rxLen);
  5503  02C1  0843               	movf	I2C1_GetCommandData@data,w
  5504  02C2  0086               	movwf	6
  5505  02C3  0187               	clrf	7
  5506  02C4  2AD2               	goto	mcp0
  5507  02C5                     mcp0b:
  5508  02C5  30C0               	movlw	low (_i2c1_rx_buffer| 0)
  5509  02C6  0084               	movwf	4
  5510  02C7  0185               	clrf	5
  5511  02C8  0877               	movf	_rxLen,w
  5512  02C9  00F5               	movwf	??_I2C1_GetCommandData
  5513  02CA  0875               	movf	??_I2C1_GetCommandData,w
  5514  02CB  1903               	skipnz
  5515  02CC  2AD3               	goto	mcp0z
  5516  02CD                     u140m0:
  5517  02CD  0012               	moviw fsr0++
  5518  02CE  001E               	movwi fsr1++
  5519  02CF  0BF5               	decfsz	??_I2C1_GetCommandData,f
  5520  02D0  2ACD               	goto	u140m0
  5521  02D1  2AD3               	goto	u140m1
  5522  02D2                     mcp0:
  5523  02D2  2AC5               	goto	mcp0b
  5524  02D3                     u140m1:
  5525  02D3                     mcp0z:
  5526  02D3                     l2583:
  5527                           
  5528                           ;i2c1.c: 190: *len = rxLen;
  5529  02D3  0877               	movf	_rxLen,w
  5530  02D4  00F5               	movwf	??_I2C1_GetCommandData
  5531  02D5  0874               	movf	I2C1_GetCommandData@len,w
  5532  02D6  0086               	movwf	6
  5533  02D7  0187               	clrf	7
  5534  02D8  0875               	movf	??_I2C1_GetCommandData,w
  5535  02D9  0081               	movwf	1
  5536  02DA                     l356:
  5537  02DA  0008               	return
  5538  02DB                     __end_of_I2C1_GetCommandData:
  5539                           
  5540                           	psect	text17
  5541  0382                     __ptext17:	
  5542 ;; *************** function _I2C1_GetCommand *****************
  5543 ;; Defined at:
  5544 ;;		line 183 in file "system/i2c1.c"
  5545 ;; Parameters:    Size  Location     Type
  5546 ;;  cmd             1    wreg     PTR unsigned char 
  5547 ;;		 -> main@cmd(1), 
  5548 ;; Auto vars:     Size  Location     Type
  5549 ;;  cmd             1    5[COMMON] PTR unsigned char 
  5550 ;;		 -> main@cmd(1), 
  5551 ;; Return value:  Size  Location     Type
  5552 ;;                  1    wreg      void 
  5553 ;; Registers used:
  5554 ;;		wreg, fsr1l, fsr1h, status,2
  5555 ;; Tracked objects:
  5556 ;;		On entry : 0/0
  5557 ;;		On exit  : 0/0
  5558 ;;		Unchanged: 0/0
  5559 ;; Data sizes:     COMMON   BANK0   BANK1   BANK2   BANK3   BANK4   BANK5   BANK6   BANK7   BANK8   BANK9  BANK10  BANK1
      +1  BANK12  BANK13  BANK14  BANK15  BANK16  BANK17  BANK18  BANK19  BANK20  BANK21  BANK22  BANK23  BANK24  BANK25
  5560 ;;      Params:         0       0       0       0       0       0       0       0       0       0       0       0       
      +0       0       0       0       0       0       0       0       0       0       0       0       0       0       0
  5561 ;;      Locals:         1       0       0       0       0       0       0       0       0       0       0       0       
      +0       0       0       0       0       0       0       0       0       0       0       0       0       0       0
  5562 ;;      Temps:          1       0       0       0       0       0       0       0       0       0       0       0       
      +0       0       0       0       0       0       0       0       0       0       0       0       0       0       0
  5563 ;;      Totals:         2       0       0       0       0       0       0       0       0       0       0       0       
      +0       0       0       0       0       0       0       0       0       0       0       0       0       0       0
  5564 ;;Total ram usage:        2 bytes
  5565 ;; Hardware stack levels used:    1
  5566 ;; Hardware stack levels required when called:    3
  5567 ;; This function calls:
  5568 ;;		Nothing
  5569 ;; This function is called by:
  5570 ;;		_main
  5571 ;; This function uses a non-reentrant model
  5572 ;;
  5573                           
  5574                           
  5575                           ;psect for function _I2C1_GetCommand
  5576  0382                     _I2C1_GetCommand:
  5577                           
  5578                           ;incstack = 0
  5579                           ; Regs used in _I2C1_GetCommand: [wreg+fsr1l+fsr1h+status,2]
  5580                           ;I2C1_GetCommand@cmd stored from wreg
  5581  0382  00F5               	movwf	I2C1_GetCommand@cmd
  5582  0383                     l2135:
  5583                           
  5584                           ;i2c1.c: 184: *cmd = cmdByte;
  5585  0383  0140               	movlb	0	; select bank0
  5586  0384  0835               	movf	_cmdByte,w
  5587  0385  00F4               	movwf	??_I2C1_GetCommand
  5588  0386  0875               	movf	I2C1_GetCommand@cmd,w
  5589  0387  0086               	movwf	6
  5590  0388  0187               	clrf	7
  5591  0389  0874               	movf	??_I2C1_GetCommand,w
  5592  038A  0081               	movwf	1
  5593  038B                     l2137:
  5594                           
  5595                           ;i2c1.c: 185: cmdReceived = 0;
  5596  038B  01B4               	clrf	_cmdReceived
  5597  038C                     l353:
  5598  038C  0008               	return
  5599  038D                     __end_of_I2C1_GetCommand:
  5600                           
  5601                           	psect	text18
  5602  03B2                     __ptext18:	
  5603 ;; *************** function _I2C1_CommandReceived *****************
  5604 ;; Defined at:
  5605 ;;		line 175 in file "system/i2c1.c"
  5606 ;; Parameters:    Size  Location     Type
  5607 ;;		None
  5608 ;; Auto vars:     Size  Location     Type
  5609 ;;		None
  5610 ;; Return value:  Size  Location     Type
  5611 ;;                  1    wreg      unsigned char 
  5612 ;; Registers used:
  5613 ;;		wreg
  5614 ;; Tracked objects:
  5615 ;;		On entry : 0/0
  5616 ;;		On exit  : 0/0
  5617 ;;		Unchanged: 0/0
  5618 ;; Data sizes:     COMMON   BANK0   BANK1   BANK2   BANK3   BANK4   BANK5   BANK6   BANK7   BANK8   BANK9  BANK10  BANK1
      +1  BANK12  BANK13  BANK14  BANK15  BANK16  BANK17  BANK18  BANK19  BANK20  BANK21  BANK22  BANK23  BANK24  BANK25
  5619 ;;      Params:         0       0       0       0       0       0       0       0       0       0       0       0       
      +0       0       0       0       0       0       0       0       0       0       0       0       0       0       0
  5620 ;;      Locals:         0       0       0       0       0       0       0       0       0       0       0       0       
      +0       0       0       0       0       0       0       0       0       0       0       0       0       0       0
  5621 ;;      Temps:          0       0       0       0       0       0       0       0       0       0       0       0       
      +0       0       0       0       0       0       0       0       0       0       0       0       0       0       0
  5622 ;;      Totals:         0       0       0       0       0       0       0       0       0       0       0       0       
      +0       0       0       0       0       0       0       0       0       0       0       0       0       0       0
  5623 ;;Total ram usage:        0 bytes
  5624 ;; Hardware stack levels used:    1
  5625 ;; Hardware stack levels required when called:    3
  5626 ;; This function calls:
  5627 ;;		Nothing
  5628 ;; This function is called by:
  5629 ;;		_main
  5630 ;; This function uses a non-reentrant model
  5631 ;;
  5632                           
  5633                           
  5634                           ;psect for function _I2C1_CommandReceived
  5635  03B2                     _I2C1_CommandReceived:
  5636  03B2                     l2131:	
  5637                           ;incstack = 0
  5638                           ; Regs used in _I2C1_CommandReceived: [wreg]
  5639                           
  5640                           
  5641                           ;i2c1.c: 176: return cmdReceived;
  5642  03B2  0140               	movlb	0	; select bank0
  5643  03B3  0834               	movf	_cmdReceived,w
  5644  03B4                     l347:
  5645  03B4  0008               	return
  5646  03B5                     __end_of_I2C1_CommandReceived:
  5647                           
  5648                           	psect	intentry
  5649  0004                     __pintentry:	
  5650 ;; *************** function _Interrupt_Handler *****************
  5651 ;; Defined at:
  5652 ;;		line 10 in file "system/interrupt.c"
  5653 ;; Parameters:    Size  Location     Type
  5654 ;;		None
  5655 ;; Auto vars:     Size  Location     Type
  5656 ;;		None
  5657 ;; Return value:  Size  Location     Type
  5658 ;;                  1    wreg      void 
  5659 ;; Registers used:
  5660 ;;		wreg, fsr0l, fsr0h, fsr1l, fsr1h, status,2, status,0, pclath, cstack
  5661 ;; Tracked objects:
  5662 ;;		On entry : 0/0
  5663 ;;		On exit  : 0/0
  5664 ;;		Unchanged: 0/0
  5665 ;; Data sizes:     COMMON   BANK0   BANK1   BANK2   BANK3   BANK4   BANK5   BANK6   BANK7   BANK8   BANK9  BANK10  BANK1
      +1  BANK12  BANK13  BANK14  BANK15  BANK16  BANK17  BANK18  BANK19  BANK20  BANK21  BANK22  BANK23  BANK24  BANK25
  5666 ;;      Params:         0       0       0       0       0       0       0       0       0       0       0       0       
      +0       0       0       0       0       0       0       0       0       0       0       0       0       0       0
  5667 ;;      Locals:         0       0       0       0       0       0       0       0       0       0       0       0       
      +0       0       0       0       0       0       0       0       0       0       0       0       0       0       0
  5668 ;;      Temps:          0       0       0       0       0       0       0       0       0       0       0       0       
      +0       0       0       0       0       0       0       0       0       0       0       0       0       0       0
  5669 ;;      Totals:         0       0       0       0       0       0       0       0       0       0       0       0       
      +0       0       0       0       0       0       0       0       0       0       0       0       0       0       0
  5670 ;;Total ram usage:        0 bytes
  5671 ;; Hardware stack levels used:    1
  5672 ;; Hardware stack levels required when called:    2
  5673 ;; This function calls:
  5674 ;;		_ADCC_ISR
  5675 ;;		_DefaultSensorInterruptHandler
  5676 ;;		_I2C1_ISR
  5677 ;; This function is called by:
  5678 ;;		Interrupt level 1
  5679 ;; This function uses a non-reentrant model
  5680 ;;
  5681                           
  5682  0004                     _Interrupt_Handler:
  5683                           
  5684                           ;incstack = 0
  5685  0004  147E               	bsf	int$flags,0	;set compiler interrupt flag (level 1)
  5686                           
  5687                           ; Regs used in _Interrupt_Handler: [wreg-fsr1h+status,2+status,0+pclath+cstack]
  5688  0005  3180               	pagesel	$
  5689  0006                     i1l2405:
  5690                           
  5691                           ;interrupt.c: 14: SensorInterruptHandler();
  5692  0006  0140               	movlb	0	; select bank0
  5693  0007  086C               	movf	_SensorInterruptHandler+1,w
  5694  0008  008A               	movwf	10
  5695  0009  086B               	movf	_SensorInterruptHandler,w
  5696  000A  000A               	callw
  5697  000B  3180               	pagesel	$
  5698  000C                     i1l2407:
  5699                           
  5700                           ;interrupt.c: 22: if(INTCONbits.PEIE == 1)
  5701  000C  1F0B               	btfss	11,6	;volatile
  5702  000D  280F               	goto	u110_21
  5703  000E  2810               	goto	u110_20
  5704  000F                     u110_21:
  5705  000F  2829               	goto	i1l416
  5706  0010                     u110_20:
  5707  0010                     i1l2409:
  5708                           
  5709                           ;interrupt.c: 23: {;interrupt.c: 24: if(PIE3bits.SSP1IE == 1 && PIR3bits.SSP1IF == 1)
  5710  0010  014E               	movlb	14	; select bank14
  5711  0011  1C19               	btfss	25,0	;volatile
  5712  0012  2814               	goto	u111_21
  5713  0013  2815               	goto	u111_20
  5714  0014                     u111_21:
  5715  0014  281D               	goto	i1l411
  5716  0015                     u111_20:
  5717  0015                     i1l2411:
  5718  0015  1C0F               	btfss	15,0	;volatile
  5719  0016  2818               	goto	u112_21
  5720  0017  2819               	goto	u112_20
  5721  0018                     u112_21:
  5722  0018  281D               	goto	i1l411
  5723  0019                     u112_20:
  5724  0019                     i1l2413:
  5725                           
  5726                           ;interrupt.c: 25: {;interrupt.c: 26: I2C1_ISR();
  5727  0019  3182  220F  3180   	fcall	_I2C1_ISR
  5728                           
  5729                           ;interrupt.c: 27: }
  5730  001C  2829               	goto	i1l416
  5731  001D                     i1l411:
  5732                           
  5733                           ;interrupt.c: 28: else if(PIE1bits.ADIE == 1 && PIR1bits.ADIF == 1)
  5734  001D  1C17               	btfss	23,0	;volatile
  5735  001E  2820               	goto	u113_21
  5736  001F  2821               	goto	u113_20
  5737  0020                     u113_21:
  5738  0020  2829               	goto	i1l412
  5739  0021                     u113_20:
  5740  0021                     i1l2415:
  5741  0021  1C0D               	btfss	13,0	;volatile
  5742  0022  2824               	goto	u114_21
  5743  0023  2825               	goto	u114_20
  5744  0024                     u114_21:
  5745  0024  2829               	goto	i1l412
  5746  0025                     u114_20:
  5747  0025                     i1l2417:
  5748                           
  5749                           ;interrupt.c: 29: {;interrupt.c: 30: ADCC_ISR();
  5750  0025  3183  234E  3180   	fcall	_ADCC_ISR
  5751                           
  5752                           ;interrupt.c: 31: }
  5753  0028  2829               	goto	i1l416
  5754  0029                     i1l412:
  5755  0029                     i1l416:	
  5756                           ;interrupt.c: 35: };interrupt.c: 36: }
  5757                           
  5758  0029  107E               	bcf	int$flags,0	;clear compiler interrupt flag (level 1)
  5759  002A  0009               	retfie
  5760  002B                     __end_of_Interrupt_Handler:
  5761                           
  5762                           	psect	text20
  5763  020F                     __ptext20:	
  5764 ;; *************** function _I2C1_ISR *****************
  5765 ;; Defined at:
  5766 ;;		line 132 in file "system/i2c1.c"
  5767 ;; Parameters:    Size  Location     Type
  5768 ;;		None
  5769 ;; Auto vars:     Size  Location     Type
  5770 ;;  i2c_data        1    3[COMMON] unsigned char 
  5771 ;; Return value:  Size  Location     Type
  5772 ;;                  1    wreg      void 
  5773 ;; Registers used:
  5774 ;;		wreg, fsr0l, fsr0h, fsr1l, fsr1h, status,2, status,0, pclath, cstack
  5775 ;; Tracked objects:
  5776 ;;		On entry : 0/0
  5777 ;;		On exit  : 0/0
  5778 ;;		Unchanged: 0/0
  5779 ;; Data sizes:     COMMON   BANK0   BANK1   BANK2   BANK3   BANK4   BANK5   BANK6   BANK7   BANK8   BANK9  BANK10  BANK1
      +1  BANK12  BANK13  BANK14  BANK15  BANK16  BANK17  BANK18  BANK19  BANK20  BANK21  BANK22  BANK23  BANK24  BANK25
  5780 ;;      Params:         0       0       0       0       0       0       0       0       0       0       0       0       
      +0       0       0       0       0       0       0       0       0       0       0       0       0       0       0
  5781 ;;      Locals:         1       0       0       0       0       0       0       0       0       0       0       0       
      +0       0       0       0       0       0       0       0       0       0       0       0       0       0       0
  5782 ;;      Temps:          1       0       0       0       0       0       0       0       0       0       0       0       
      +0       0       0       0       0       0       0       0       0       0       0       0       0       0       0
  5783 ;;      Totals:         2       0       0       0       0       0       0       0       0       0       0       0       
      +0       0       0       0       0       0       0       0       0       0       0       0       0       0       0
  5784 ;;Total ram usage:        2 bytes
  5785 ;; Hardware stack levels used:    1
  5786 ;; Hardware stack levels required when called:    1
  5787 ;; This function calls:
  5788 ;;		_I2C1_StatusCallback
  5789 ;; This function is called by:
  5790 ;;		_Interrupt_Handler
  5791 ;; This function uses a non-reentrant model
  5792 ;;
  5793                           
  5794                           
  5795                           ;psect for function _I2C1_ISR
  5796  020F                     _I2C1_ISR:
  5797  020F                     i1l2149:	
  5798                           ;incstack = 0
  5799                           ; Regs used in _I2C1_ISR: [wreg-fsr1h+status,2+status,0+pclath+cstack]
  5800                           
  5801  020F                     i1l2151:
  5802                           
  5803                           ;i2c1.c: 138: PIE3bits.SSP1IE = 0;
  5804  020F  014E               	movlb	14	; select bank14
  5805  0210  1019               	bcf	25,0	;volatile
  5806  0211                     i1l2153:
  5807                           
  5808                           ;i2c1.c: 139: PIR3bits.SSP1IF = 0;
  5809  0211  100F               	bcf	15,0	;volatile
  5810  0212                     i1l2155:
  5811                           
  5812                           ;i2c1.c: 140: i2c_data = SSP1BUF;
  5813  0212  0143               	movlb	3	; select bank3
  5814  0213  080C               	movf	12,w	;volatile
  5815  0214  00F2               	movwf	??_I2C1_ISR
  5816  0215  0872               	movf	??_I2C1_ISR,w
  5817  0216  00F3               	movwf	I2C1_ISR@i2c_data
  5818  0217                     i1l2157:
  5819                           
  5820                           ;i2c1.c: 141: if(1 == SSP1STATbits.R_nW){
  5821  0217  1D0F               	btfss	15,2	;volatile
  5822  0218  2A1A               	goto	u78_21
  5823  0219  2A1B               	goto	u78_20
  5824  021A                     u78_21:
  5825  021A  2A2F               	goto	i1l335
  5826  021B                     u78_20:
  5827  021B                     i1l2159:
  5828                           
  5829                           ;i2c1.c: 142: if((1 == SSP1STATbits.D_nA) && (1 == SSP1CON2bits.ACKSTAT)){
  5830  021B  1E8F               	btfss	15,5	;volatile
  5831  021C  2A1E               	goto	u79_21
  5832  021D  2A1F               	goto	u79_20
  5833  021E                     u79_21:
  5834  021E  2A28               	goto	i1l2165
  5835  021F                     u79_20:
  5836  021F                     i1l2161:
  5837  021F  1F11               	btfss	17,6	;volatile
  5838  0220  2A22               	goto	u80_21
  5839  0221  2A23               	goto	u80_20
  5840  0222                     u80_21:
  5841  0222  2A28               	goto	i1l2165
  5842  0223                     u80_20:
  5843  0223                     i1l2163:
  5844                           
  5845                           ;i2c1.c: 144: I2C1_StatusCallback(I2C1_SLAVE_READ_COMPLETED);
  5846  0223  3003               	movlw	3
  5847  0224  3181  21BE  3182   	fcall	_I2C1_StatusCallback
  5848                           
  5849                           ;i2c1.c: 145: }
  5850  0227  2A47               	goto	i1l338
  5851  0228                     i1l2165:
  5852                           
  5853                           ;i2c1.c: 146: else{;i2c1.c: 148: I2C1_StatusCallback(I2C1_SLAVE_READ_REQUEST);
  5854  0228  3001               	movlw	1
  5855  0229  3181  21BE  3182   	fcall	_I2C1_StatusCallback
  5856  022C                     i1l2167:
  5857                           
  5858                           ;i2c1.c: 149: SSP1CON1bits.CKP = 1;
  5859  022C  0143               	movlb	3	; select bank3
  5860  022D  1610               	bsf	16,4	;volatile
  5861  022E  2A47               	goto	i1l338
  5862  022F                     i1l335:
  5863                           
  5864                           ;i2c1.c: 153: else if(0 == SSP1STATbits.D_nA){
  5865  022F  1A8F               	btfsc	15,5	;volatile
  5866  0230  2A32               	goto	u81_21
  5867  0231  2A33               	goto	u81_20
  5868  0232                     u81_21:
  5869  0232  2A38               	goto	i1l2171
  5870  0233                     u81_20:
  5871  0233                     i1l2169:
  5872                           
  5873                           ;i2c1.c: 157: I2C1_StatusCallback(I2C1_SLAVE_WRITE_REQUEST);
  5874  0233  3000               	movlw	0
  5875  0234  3181  21BE  3182   	fcall	_I2C1_StatusCallback
  5876                           
  5877                           ;i2c1.c: 158: }
  5878  0237  2A47               	goto	i1l338
  5879  0238                     i1l2171:
  5880                           
  5881                           ;i2c1.c: 159: else{;i2c1.c: 160: I2C1_slaveWriteData = i2c_data;
  5882  0238  0873               	movf	I2C1_ISR@i2c_data,w
  5883  0239  00F2               	movwf	??_I2C1_ISR
  5884  023A  0872               	movf	??_I2C1_ISR,w
  5885  023B  00F9               	movwf	_I2C1_slaveWriteData	;volatile
  5886  023C                     i1l2173:
  5887                           
  5888                           ;i2c1.c: 163: I2C1_StatusCallback(I2C1_SLAVE_WRITE_COMPLETED);
  5889  023C  3002               	movlw	2
  5890  023D  3181  21BE  3182   	fcall	_I2C1_StatusCallback
  5891  0240                     i1l2175:
  5892                           
  5893                           ;i2c1.c: 164: SSP1CON1bits.CKP = 1;
  5894  0240  0143               	movlb	3	; select bank3
  5895  0241  1610               	bsf	16,4	;volatile
  5896  0242                     i1l341:	
  5897                           ;i2c1.c: 165: while(!PIR3bits.SSP1IF);
  5898                           
  5899  0242  014E               	movlb	14	; select bank14
  5900  0243  1C0F               	btfss	15,0	;volatile
  5901  0244  2A46               	goto	u82_21
  5902  0245  2A47               	goto	u82_20
  5903  0246                     u82_21:
  5904  0246  2A42               	goto	i1l341
  5905  0247                     u82_20:
  5906  0247                     i1l338:
  5907                           
  5908                           ;i2c1.c: 166: };i2c1.c: 169: PIR3bits.SSP1IF = 0;
  5909  0247  014E               	movlb	14	; select bank14
  5910  0248  100F               	bcf	15,0	;volatile
  5911                           
  5912                           ;i2c1.c: 170: SSP1CON1bits.CKP = 1;
  5913  0249  0143               	movlb	3	; select bank3
  5914  024A  1610               	bsf	16,4	;volatile
  5915                           
  5916                           ;i2c1.c: 172: PIE3bits.SSP1IE = 1;
  5917  024B  014E               	movlb	14	; select bank14
  5918  024C  1419               	bsf	25,0	;volatile
  5919  024D                     i1l344:
  5920  024D  0008               	return
  5921  024E                     __end_of_I2C1_ISR:
  5922                           
  5923                           	psect	text21
  5924  01BE                     __ptext21:	
  5925 ;; *************** function _I2C1_StatusCallback *****************
  5926 ;; Defined at:
  5927 ;;		line 209 in file "system/i2c1.c"
  5928 ;; Parameters:    Size  Location     Type
  5929 ;;  i2c_bus_stat    1    wreg     enum E10841
  5930 ;; Auto vars:     Size  Location     Type
  5931 ;;  i2c_bus_stat    1    1[COMMON] enum E10841
  5932 ;; Return value:  Size  Location     Type
  5933 ;;                  1    wreg      void 
  5934 ;; Registers used:
  5935 ;;		wreg, fsr0l, fsr0h, fsr1l, fsr1h, status,2, status,0
  5936 ;; Tracked objects:
  5937 ;;		On entry : 0/0
  5938 ;;		On exit  : 0/0
  5939 ;;		Unchanged: 0/0
  5940 ;; Data sizes:     COMMON   BANK0   BANK1   BANK2   BANK3   BANK4   BANK5   BANK6   BANK7   BANK8   BANK9  BANK10  BANK1
      +1  BANK12  BANK13  BANK14  BANK15  BANK16  BANK17  BANK18  BANK19  BANK20  BANK21  BANK22  BANK23  BANK24  BANK25
  5941 ;;      Params:         0       0       0       0       0       0       0       0       0       0       0       0       
      +0       0       0       0       0       0       0       0       0       0       0       0       0       0       0
  5942 ;;      Locals:         1       0       0       0       0       0       0       0       0       0       0       0       
      +0       0       0       0       0       0       0       0       0       0       0       0       0       0       0
  5943 ;;      Temps:          1       0       0       0       0       0       0       0       0       0       0       0       
      +0       0       0       0       0       0       0       0       0       0       0       0       0       0       0
  5944 ;;      Totals:         2       0       0       0       0       0       0       0       0       0       0       0       
      +0       0       0       0       0       0       0       0       0       0       0       0       0       0       0
  5945 ;;Total ram usage:        2 bytes
  5946 ;; Hardware stack levels used:    1
  5947 ;; This function calls:
  5948 ;;		Nothing
  5949 ;; This function is called by:
  5950 ;;		_I2C1_ISR
  5951 ;; This function uses a non-reentrant model
  5952 ;;
  5953                           
  5954                           
  5955                           ;psect for function _I2C1_StatusCallback
  5956  01BE                     _I2C1_StatusCallback:
  5957                           
  5958                           ;incstack = 0
  5959                           ; Regs used in _I2C1_StatusCallback: [wreg-fsr1h+status,2+status,0]
  5960                           ;I2C1_StatusCallback@i2c_bus_state stored from wreg
  5961  01BE  00F1               	movwf	I2C1_StatusCallback@i2c_bus_state
  5962  01BF                     i1l1895:
  5963                           
  5964                           ;i2c1.c: 211: static uint8_t slaveWriteType = SLAVE_COMMAND_DATA;;i2c1.c: 214: switch (i
      +                          2c_bus_state){
  5965  01BF  2A00               	goto	i1l1923
  5966  01C0                     i1l373:	
  5967                           ;i2c1.c: 216: case I2C1_SLAVE_WRITE_REQUEST:
  5968                           
  5969                           
  5970                           ;i2c1.c: 218: slaveWriteType = SLAVE_COMMAND;
  5971  01C0  0140               	movlb	0	; select bank0
  5972  01C1  01B2               	clrf	I2C1_StatusCallback@slaveWriteType
  5973  01C2  0AB2               	incf	I2C1_StatusCallback@slaveWriteType,f
  5974                           
  5975                           ;i2c1.c: 219: break;
  5976  01C3  2A0E               	goto	i1l387
  5977  01C4                     i1l1897:
  5978                           
  5979                           ;i2c1.c: 226: cmdByte = I2C1_slaveWriteData;
  5980  01C4  0879               	movf	_I2C1_slaveWriteData,w	;volatile
  5981  01C5  00F0               	movwf	??_I2C1_StatusCallback
  5982  01C6  0870               	movf	??_I2C1_StatusCallback,w
  5983  01C7  00B5               	movwf	_cmdByte
  5984  01C8                     i1l1899:
  5985                           
  5986                           ;i2c1.c: 227: rxLen = 0;
  5987  01C8  01F7               	clrf	_rxLen
  5988  01C9                     i1l1901:
  5989                           
  5990                           ;i2c1.c: 228: cmdReceived = 1;
  5991  01C9  01B4               	clrf	_cmdReceived
  5992  01CA  0AB4               	incf	_cmdReceived,f
  5993                           
  5994                           ;i2c1.c: 229: break;
  5995  01CB  29E8               	goto	i1l1913
  5996  01CC                     i1l1903:
  5997                           
  5998                           ;i2c1.c: 234: if(rxLen <= 32)
  5999  01CC  3021               	movlw	33
  6000  01CD  0277               	subwf	_rxLen,w
  6001  01CE  1803               	skipnc
  6002  01CF  29D1               	goto	u32_21
  6003  01D0  29D2               	goto	u32_20
  6004  01D1                     u32_21:
  6005  01D1  29E8               	goto	i1l1913
  6006  01D2                     u32_20:
  6007  01D2                     i1l1905:
  6008                           
  6009                           ;i2c1.c: 235: {;i2c1.c: 236: i2c1_rx_buffer[rxLen++] = I2C1_slaveWriteData;
  6010  01D2  0879               	movf	_I2C1_slaveWriteData,w	;volatile
  6011  01D3  00F0               	movwf	??_I2C1_StatusCallback
  6012  01D4  0877               	movf	_rxLen,w
  6013  01D5  3EC0               	addlw	(low (_i2c1_rx_buffer| 0))& (0+255)
  6014  01D6  0086               	movwf	6
  6015  01D7  0187               	clrf	7
  6016  01D8  0870               	movf	??_I2C1_StatusCallback,w
  6017  01D9  0081               	movwf	1
  6018  01DA                     i1l1907:
  6019  01DA  3001               	movlw	1
  6020  01DB  00F0               	movwf	??_I2C1_StatusCallback
  6021  01DC  0870               	movf	??_I2C1_StatusCallback,w
  6022  01DD  07F7               	addwf	_rxLen,f
  6023  01DE  29E8               	goto	i1l1913
  6024  01DF                     i1l1911:
  6025  01DF  0140               	movlb	0	; select bank0
  6026  01E0  0832               	movf	I2C1_StatusCallback@slaveWriteType,w
  6027                           
  6028                           ; Switch size 1, requested type "simple"
  6029                           ; Number of cases is 2, Range of values is 0 to 1
  6030                           ; switch strategies available:
  6031                           ; Name         Instructions Cycles
  6032                           ; simple_byte            7     4 (average)
  6033                           ; direct_byte           10     6 (fixed)
  6034                           ; jumptable            260     6 (fixed)
  6035                           ;	Chosen strategy is simple_byte
  6036  01E1  3A00               	xorlw	0	; case 0
  6037  01E2  1903               	skipnz
  6038  01E3  29CC               	goto	i1l1903
  6039  01E4  3A01               	xorlw	1	; case 1
  6040  01E5  1903               	skipnz
  6041  01E6  29C4               	goto	i1l1897
  6042  01E7  29CC               	goto	i1l1903
  6043  01E8                     i1l1913:
  6044                           
  6045                           ;i2c1.c: 242: slaveWriteType = SLAVE_COMMAND_DATA;
  6046  01E8  01B2               	clrf	I2C1_StatusCallback@slaveWriteType
  6047                           
  6048                           ;i2c1.c: 243: break;
  6049  01E9  2A0E               	goto	i1l387
  6050  01EA                     i1l1915:
  6051                           
  6052                           ;i2c1.c: 246: if(txCnt<txLen){
  6053  01EA  0140               	movlb	0	; select bank0
  6054  01EB  0833               	movf	_txLen,w
  6055  01EC  0276               	subwf	_txCnt,w
  6056  01ED  1803               	skipnc
  6057  01EE  29F0               	goto	u33_21
  6058  01EF  29F1               	goto	u33_20
  6059  01F0                     u33_21:
  6060  01F0  29FD               	goto	i1l1921
  6061  01F1                     u33_20:
  6062  01F1                     i1l1917:
  6063                           
  6064                           ;i2c1.c: 247: SSP1BUF = i2c1_tx_buffer[txCnt++];
  6065  01F1  0876               	movf	_txCnt,w
  6066  01F2  3EA0               	addlw	(low (_i2c1_tx_buffer| 0))& (0+255)
  6067  01F3  0086               	movwf	6
  6068  01F4  0187               	clrf	7
  6069  01F5  0801               	movf	1,w
  6070  01F6  0143               	movlb	3	; select bank3
  6071  01F7  008C               	movwf	12	;volatile
  6072  01F8                     i1l1919:
  6073  01F8  3001               	movlw	1
  6074  01F9  00F0               	movwf	??_I2C1_StatusCallback
  6075  01FA  0870               	movf	??_I2C1_StatusCallback,w
  6076  01FB  07F6               	addwf	_txCnt,f
  6077                           
  6078                           ;i2c1.c: 248: }
  6079  01FC  2A0E               	goto	i1l387
  6080  01FD                     i1l1921:
  6081                           
  6082                           ;i2c1.c: 249: else{;i2c1.c: 250: SSP1BUF = 0x00;
  6083  01FD  0143               	movlb	3	; select bank3
  6084  01FE  018C               	clrf	12	;volatile
  6085  01FF  2A0E               	goto	i1l387
  6086  0200                     i1l1923:
  6087  0200  0871               	movf	I2C1_StatusCallback@i2c_bus_state,w
  6088                           
  6089                           ; Switch size 1, requested type "simple"
  6090                           ; Number of cases is 4, Range of values is 0 to 3
  6091                           ; switch strategies available:
  6092                           ; Name         Instructions Cycles
  6093                           ; simple_byte           13     7 (average)
  6094                           ; direct_byte           14     6 (fixed)
  6095                           ; jumptable            260     6 (fixed)
  6096                           ;	Chosen strategy is simple_byte
  6097  0201  3A00               	xorlw	0	; case 0
  6098  0202  1903               	skipnz
  6099  0203  29C0               	goto	i1l373
  6100  0204  3A01               	xorlw	1	; case 1
  6101  0205  1903               	skipnz
  6102  0206  29EA               	goto	i1l1915
  6103  0207  3A03               	xorlw	3	; case 2
  6104  0208  1903               	skipnz
  6105  0209  29DF               	goto	i1l1911
  6106  020A  3A01               	xorlw	1	; case 3
  6107  020B  1903               	skipnz
  6108  020C  2A0E               	goto	i1l387
  6109  020D  2A0E               	goto	i1l387
  6110  020E                     i1l387:
  6111  020E  0008               	return
  6112  020F                     __end_of_I2C1_StatusCallback:
  6113                           
  6114                           	psect	text22
  6115  03B6                     __ptext22:	
  6116 ;; *************** function _DefaultSensorInterruptHandler *****************
  6117 ;; Defined at:
  6118 ;;		line 47 in file "system/interrupt.c"
  6119 ;; Parameters:    Size  Location     Type
  6120 ;;		None
  6121 ;; Auto vars:     Size  Location     Type
  6122 ;;		None
  6123 ;; Return value:  Size  Location     Type
  6124 ;;                  1    wreg      void 
  6125 ;; Registers used:
  6126 ;;		None
  6127 ;; Tracked objects:
  6128 ;;		On entry : 0/0
  6129 ;;		On exit  : 0/0
  6130 ;;		Unchanged: 0/0
  6131 ;; Data sizes:     COMMON   BANK0   BANK1   BANK2   BANK3   BANK4   BANK5   BANK6   BANK7   BANK8   BANK9  BANK10  BANK1
      +1  BANK12  BANK13  BANK14  BANK15  BANK16  BANK17  BANK18  BANK19  BANK20  BANK21  BANK22  BANK23  BANK24  BANK25
  6132 ;;      Params:         0       0       0       0       0       0       0       0       0       0       0       0       
      +0       0       0       0       0       0       0       0       0       0       0       0       0       0       0
  6133 ;;      Locals:         0       0       0       0       0       0       0       0       0       0       0       0       
      +0       0       0       0       0       0       0       0       0       0       0       0       0       0       0
  6134 ;;      Temps:          0       0       0       0       0       0       0       0       0       0       0       0       
      +0       0       0       0       0       0       0       0       0       0       0       0       0       0       0
  6135 ;;      Totals:         0       0       0       0       0       0       0       0       0       0       0       0       
      +0       0       0       0       0       0       0       0       0       0       0       0       0       0       0
  6136 ;;Total ram usage:        0 bytes
  6137 ;; Hardware stack levels used:    1
  6138 ;; This function calls:
  6139 ;;		Nothing
  6140 ;; This function is called by:
  6141 ;;		_Interrupt_Handler
  6142 ;; This function uses a non-reentrant model
  6143 ;;
  6144                           
  6145                           
  6146                           ;psect for function _DefaultSensorInterruptHandler
  6147  03B6                     _DefaultSensorInterruptHandler:
  6148  03B6                     i1l2185:	
  6149                           ;incstack = 0
  6150                           ; Regs used in _DefaultSensorInterruptHandler: []
  6151                           
  6152  03B6                     i1l422:	
  6153                           ;interrupt.c: 48: return;
  6154                           
  6155  03B6  0008               	return
  6156  03B7                     __end_of_DefaultSensorInterruptHandler:
  6157                           
  6158                           	psect	text23
  6159  034E                     __ptext23:	
  6160 ;; *************** function _ADCC_ISR *****************
  6161 ;; Defined at:
  6162 ;;		line 309 in file "system/adcc.c"
  6163 ;; Parameters:    Size  Location     Type
  6164 ;;		None
  6165 ;; Auto vars:     Size  Location     Type
  6166 ;;		None
  6167 ;; Return value:  Size  Location     Type
  6168 ;;                  1    wreg      void 
  6169 ;; Registers used:
  6170 ;;		wreg, status,2, status,0, pclath, cstack
  6171 ;; Tracked objects:
  6172 ;;		On entry : 0/0
  6173 ;;		On exit  : 0/0
  6174 ;;		Unchanged: 0/0
  6175 ;; Data sizes:     COMMON   BANK0   BANK1   BANK2   BANK3   BANK4   BANK5   BANK6   BANK7   BANK8   BANK9  BANK10  BANK1
      +1  BANK12  BANK13  BANK14  BANK15  BANK16  BANK17  BANK18  BANK19  BANK20  BANK21  BANK22  BANK23  BANK24  BANK25
  6176 ;;      Params:         0       0       0       0       0       0       0       0       0       0       0       0       
      +0       0       0       0       0       0       0       0       0       0       0       0       0       0       0
  6177 ;;      Locals:         0       0       0       0       0       0       0       0       0       0       0       0       
      +0       0       0       0       0       0       0       0       0       0       0       0       0       0       0
  6178 ;;      Temps:          0       0       0       0       0       0       0       0       0       0       0       0       
      +0       0       0       0       0       0       0       0       0       0       0       0       0       0       0
  6179 ;;      Totals:         0       0       0       0       0       0       0       0       0       0       0       0       
      +0       0       0       0       0       0       0       0       0       0       0       0       0       0       0
  6180 ;;Total ram usage:        0 bytes
  6181 ;; Hardware stack levels used:    1
  6182 ;; Hardware stack levels required when called:    1
  6183 ;; This function calls:
  6184 ;;		Absolute function
  6185 ;;		_ADCC_DefaultInterruptHandler
  6186 ;; This function is called by:
  6187 ;;		_Interrupt_Handler
  6188 ;; This function uses a non-reentrant model
  6189 ;;
  6190                           
  6191                           
  6192                           ;psect for function _ADCC_ISR
  6193  034E                     _ADCC_ISR:
  6194  034E                     i1l2177:	
  6195                           ;incstack = 0
  6196                           ; Regs used in _ADCC_ISR: [wreg+status,2+status,0+pclath+cstack]
  6197                           
  6198                           
  6199                           ;adcc.c: 312: PIR1bits.ADIF = 0;
  6200  034E  014E               	movlb	14	; select bank14
  6201  034F  100D               	bcf	13,0	;volatile
  6202  0350                     i1l2179:
  6203                           
  6204                           ;adcc.c: 314: if (ADCC_ADI_InterruptHandler)
  6205  0350  0140               	movlb	0	; select bank0
  6206  0351  082E               	movf	_ADCC_ADI_InterruptHandler,w
  6207  0352  042F               	iorwf	_ADCC_ADI_InterruptHandler+1,w
  6208  0353  1903               	btfsc	3,2
  6209  0354  2B56               	goto	u83_21
  6210  0355  2B57               	goto	u83_20
  6211  0356                     u83_21:
  6212  0356  2B5C               	goto	i1l666
  6213  0357                     u83_20:
  6214  0357                     i1l2181:
  6215                           
  6216                           ;adcc.c: 315: ADCC_ADI_InterruptHandler();
  6217  0357  082F               	movf	_ADCC_ADI_InterruptHandler+1,w
  6218  0358  008A               	movwf	10
  6219  0359  082E               	movf	_ADCC_ADI_InterruptHandler,w
  6220  035A  000A               	callw
  6221  035B  3183               	pagesel	$
  6222  035C                     i1l666:
  6223  035C  0008               	return
  6224  035D                     __end_of_ADCC_ISR:
  6225                           
  6226                           	psect	text24
  6227  03B7                     __ptext24:	
  6228 ;; *************** function _ADCC_DefaultInterruptHandler *****************
  6229 ;; Defined at:
  6230 ;;		line 322 in file "system/adcc.c"
  6231 ;; Parameters:    Size  Location     Type
  6232 ;;		None
  6233 ;; Auto vars:     Size  Location     Type
  6234 ;;		None
  6235 ;; Return value:  Size  Location     Type
  6236 ;;                  1    wreg      void 
  6237 ;; Registers used:
  6238 ;;		None
  6239 ;; Tracked objects:
  6240 ;;		On entry : 0/0
  6241 ;;		On exit  : 0/0
  6242 ;;		Unchanged: 0/0
  6243 ;; Data sizes:     COMMON   BANK0   BANK1   BANK2   BANK3   BANK4   BANK5   BANK6   BANK7   BANK8   BANK9  BANK10  BANK1
      +1  BANK12  BANK13  BANK14  BANK15  BANK16  BANK17  BANK18  BANK19  BANK20  BANK21  BANK22  BANK23  BANK24  BANK25
  6244 ;;      Params:         0       0       0       0       0       0       0       0       0       0       0       0       
      +0       0       0       0       0       0       0       0       0       0       0       0       0       0       0
  6245 ;;      Locals:         0       0       0       0       0       0       0       0       0       0       0       0       
      +0       0       0       0       0       0       0       0       0       0       0       0       0       0       0
  6246 ;;      Temps:          0       0       0       0       0       0       0       0       0       0       0       0       
      +0       0       0       0       0       0       0       0       0       0       0       0       0       0       0
  6247 ;;      Totals:         0       0       0       0       0       0       0       0       0       0       0       0       
      +0       0       0       0       0       0       0       0       0       0       0       0       0       0       0
  6248 ;;Total ram usage:        0 bytes
  6249 ;; Hardware stack levels used:    1
  6250 ;; This function calls:
  6251 ;;		Nothing
  6252 ;; This function is called by:
  6253 ;;		_ADCC_Initialize
  6254 ;;		_ADCC_ISR
  6255 ;; This function uses a non-reentrant model
  6256 ;;
  6257                           
  6258                           
  6259                           ;psect for function _ADCC_DefaultInterruptHandler
  6260  03B7                     _ADCC_DefaultInterruptHandler:
  6261  03B7                     i1l672:	
  6262                           ;incstack = 0
  6263                           ; Regs used in _ADCC_DefaultInterruptHandler: []
  6264                           
  6265  03B7  0008               	return
  6266  03B8                     __end_of_ADCC_DefaultInterruptHandler:
  6267  007E                     btemp	set	126	;btemp
  6268  007E                     int$flags	set	126
  6269  007E                     wtemp0	set	126
  6270                           
  6271                           	psect	config
  6272                           
  6273                           ;Config register CONFIG1 @ 0x8007
  6274                           ;	External Oscillator mode selection bits
  6275                           ;	FEXTOSC = OFF, Oscillator not enabled
  6276                           ;	Power-up default value for COSC bits
  6277                           ;	RSTOSC = HFINT1, HFINTOSC (1MHz)
  6278                           ;	Clock Out Enable bit
  6279                           ;	CLKOUTEN = OFF, CLKOUT function is disabled; i/o or oscillator function on OSC2
  6280                           ;	Clock Switch Enable bit
  6281                           ;	CSWEN = ON, Writing to NOSC and NDIV is allowed
  6282                           ;	Fail-Safe Clock Monitor Enable bit
  6283                           ;	FCMEN = OFF, FSCM timer disabled
  6284  8007                     	org	32775
  6285  8007  1FEC               	dw	8172
  6286                           
  6287                           ;Config register CONFIG2 @ 0x8008
  6288                           ;	Master Clear Enable bit
  6289                           ;	MCLRE = ON, MCLR pin is Master Clear function
  6290                           ;	Power-up Timer Enable bit
  6291                           ;	PWRTS = OFF, PWRT disabled
  6292                           ;	Low-Power BOR enable bit
  6293                           ;	LPBOREN = OFF, ULPBOR disabled
  6294                           ;	Brown-out reset enable bits
  6295                           ;	BOREN = OFF, Brown-out reset disabled
  6296                           ;	Brown-out Reset Voltage Selection
  6297                           ;	BORV = LO, Brown-out Reset Voltage (VBOR) set to 2.45V
  6298                           ;	Zero-cross detect disable
  6299                           ;	ZCD = OFF, Zero-cross detect circuit is disabled at POR.
  6300                           ;	Peripheral Pin Select one-way control
  6301                           ;	PPS1WAY = OFF, The PPSLOCK bit can be set and cleared repeatedly by software
  6302                           ;	Stack Overflow/Underflow Reset Enable bit
  6303                           ;	STVREN = OFF, Stack Overflow or Underflow will not cause a reset
  6304  8008                     	org	32776
  6305  8008  273F               	dw	10047
  6306                           
  6307                           ;Config register CONFIG3 @ 0x8009
  6308                           ;	WDT Period Select bits
  6309                           ;	WDTCPS = WDTCPS_10, Divider ratio 1:32768
  6310                           ;	WDT operating mode
  6311                           ;	WDTE = OFF, WDT Disabled, SWDTEN is ignored
  6312                           ;	WDT Window Select bits
  6313                           ;	WDTCWS = WDTCWS_7, window always open (100%); software control; keyed access not requi
      +                          red
  6314                           ;	WDT input clock selector
  6315                           ;	WDTCCS = SC, Software Control
  6316  8009                     	org	32777
  6317  8009  3F8A               	dw	16266
  6318                           
  6319                           ;Config register CONFIG4 @ 0x800A
  6320                           ;	Boot Block Size Selection bits
  6321                           ;	BBSIZE = BB512, 512 words boot block size
  6322                           ;	Boot Block Enable bit
  6323                           ;	BBEN = OFF, Boot Block disabled
  6324                           ;	SAF Enable bit
  6325                           ;	SAFEN = OFF, SAF disabled
  6326                           ;	Application Block Write Protection bit
  6327                           ;	WRTAPP = OFF, Application Block not write protected
  6328                           ;	Boot Block Write Protection bit
  6329                           ;	WRTB = OFF, Boot Block not write protected
  6330                           ;	Configuration Register Write Protection bit
  6331                           ;	WRTC = OFF, Configuration Register not write protected
  6332                           ;	Data EEPROM write protection bit
  6333                           ;	WRTD = OFF, Data EEPROM NOT write protected
  6334                           ;	Storage Area Flash Write Protection bit
  6335                           ;	WRTSAF = OFF, SAF not write protected
  6336                           ;	Low Voltage Programming Enable bit
  6337                           ;	LVP = ON, Low Voltage programming enabled. MCLR/Vpp pin function is MCLR.
  6338  800A                     	org	32778
  6339  800A  3FFF               	dw	16383
  6340                           
  6341                           ;Config register CONFIG5 @ 0x800B
  6342                           ;	UserNVM Program memory code protection bit
  6343                           ;	CP = OFF, UserNVM code protection disabled
  6344  800B                     	org	32779
  6345  800B  3FFF               	dw	16383

Data Sizes:
    Strings     0
    Constant    0
    Data        13
    BSS         102
    Persistent  32
    Stack       0

Auto Spaces:
    Space          Size  Autos    Used
    COMMON           14      6      10
    BANK0            80     30      77
    BANK1            80      0      64
    BANK2            80      0       0
    BANK3            80      0       0
    BANK4            80      0       0
    BANK5            80      0       0
    BANK6            80      0       0
    BANK7            80      0       0
    BANK8            80      0       0
    BANK9            80      0       0
    BANK10           80      0       0
    BANK11           80      0       0
    BANK12           80      0       0
    BANK13           80      0       0
    BANK14           80      0       0
    BANK15           80      0       0
    BANK16           80      0       0
    BANK17           80      0       0
    BANK18           80      0       0
    BANK19           80      0       0
    BANK20           80      0       0
    BANK21           80      0       0
    BANK22           80      0       0
    BANK23           80      0       0
    BANK24           80      0       0
    BANK25           32      0       0

Pointer List with Targets:

    __builtin_memcpy$1	PTR const void  size(1) Largest target is 32
		 -> i2c1_rx_buffer(BANK1[32]), 

    __builtin_memcpy$0	PTR void  size(1) Largest target is 20
		 -> main@data(BANK0[20]), 

    S290$4$1	PTR unsigned char  size(1) Largest target is 20
		 -> main@data(BANK0[20]), 

    S290$3$1	PTR unsigned char  size(1) Largest target is 1
		 -> mDataLength(BANK0[1]), 

    S290$3$0	PTR unsigned char  size(1) Largest target is 6
		 -> mData(BANK0[6]), 

    ADCC_ADI_InterruptHandler	PTR FTN()void  size(2) Largest target is 1
		 -> Absolute function(), ADCC_DefaultInterruptHandler(), 

    SensorInterruptHandler	PTR FTN()void  size(2) Largest target is 1
		 -> DefaultSensorInterruptHandler(), 

    I2C1_SetTransmitData@data	PTR unsigned char  size(1) Largest target is 6
		 -> main@mnr(BANK0[1]), main@type(BANK0[1]), main@ack(BANK0[1]), mData(BANK0[6]), 

    I2C1_GetCommandData@len	PTR unsigned char  size(1) Largest target is 1
		 -> main@len(BANK0[1]), 

    sp____builtin_memcpy	PTR void  size(2) Largest target is 8192
		 -> RAM(DATA[8192]), 

    I2C1_GetCommandData@data	PTR unsigned char  size(1) Largest target is 20
		 -> main@data(BANK0[20]), 

    I2C1_GetCommand@cmd	PTR unsigned char  size(1) Largest target is 1
		 -> main@cmd(BANK0[1]), 

    S290sensorApi$UpdateThreshold	PTR FTN(unsigned char ,PTR unsigned char ,)void  size(2) Largest target is 1
		 -> Power_SetThreshold(), 

    sensorAPI.UpdateThreshold	PTR FTN(unsigned char ,PTR unsigned char ,)void  size(2) Largest target is 1
		 -> Power_SetThreshold(), 

    S290sensorApi$GetData	PTR FTN(PTR unsigned char ,PTR unsigned char ,)void  size(2) Largest target is 1
		 -> Power_GetData(), 

    sensorAPI.GetData	PTR FTN(PTR unsigned char ,PTR unsigned char ,)void  size(2) Largest target is 1
		 -> Power_GetData(), 

    S290sensorApi$Loop	PTR FTN()void  size(2) Largest target is 1
		 -> Power_Loop(), 

    sensorAPI.Loop	PTR FTN()void  size(2) Largest target is 1
		 -> Power_Loop(), 

    S290sensorApi$Measure	PTR FTN()void  size(2) Largest target is 1
		 -> Power_Measure(), 

    sensorAPI.Measure	PTR FTN()void  size(2) Largest target is 1
		 -> Power_Measure(), 

    S290sensorApi$Init	PTR FTN()void  size(2) Largest target is 1
		 -> Power_Init(), 

    sensorAPI.Init	PTR FTN()void  size(2) Largest target is 1
		 -> Power_Init(), 

    Power_SetThreshold@thresholdData	PTR unsigned char  size(1) Largest target is 20
		 -> main@data(BANK0[20]), 

    Power_GetData@data	PTR unsigned char  size(1) Largest target is 6
		 -> mData(BANK0[6]), 

    Power_GetData@length	PTR unsigned char  size(1) Largest target is 1
		 -> mDataLength(BANK0[1]), 


Critical Paths under _main in COMMON

    _main->_I2C1_GetCommand
    _main->_I2C1_GetCommandData
    _main->_I2C1_SetTransmitData
    _main->_Power_GetData
    _main->_Power_SetThreshold
    _main->_SYSTEM_Initialize
    _SYSTEM_Initialize->_I2C1_Initialize
    _Power_Loop->_generateIntPower
    _Power_Init->_LED_Blink

Critical Paths under _Interrupt_Handler in COMMON

    _Interrupt_Handler->_I2C1_ISR
    _I2C1_ISR->_I2C1_StatusCallback

Critical Paths under _main in BANK0

    _main->_I2C1_SetTransmitData

Critical Paths under _Interrupt_Handler in BANK0

    None.

Critical Paths under _main in BANK1

    None.

Critical Paths under _Interrupt_Handler in BANK1

    None.

Critical Paths under _main in BANK2

    None.

Critical Paths under _Interrupt_Handler in BANK2

    None.

Critical Paths under _main in BANK3

    None.

Critical Paths under _Interrupt_Handler in BANK3

    None.

Critical Paths under _main in BANK4

    None.

Critical Paths under _Interrupt_Handler in BANK4

    None.

Critical Paths under _main in BANK5

    None.

Critical Paths under _Interrupt_Handler in BANK5

    None.

Critical Paths under _main in BANK6

    None.

Critical Paths under _Interrupt_Handler in BANK6

    None.

Critical Paths under _main in BANK7

    None.

Critical Paths under _Interrupt_Handler in BANK7

    None.

Critical Paths under _main in BANK8

    None.

Critical Paths under _Interrupt_Handler in BANK8

    None.

Critical Paths under _main in BANK9

    None.

Critical Paths under _Interrupt_Handler in BANK9

    None.

Critical Paths under _main in BANK10

    None.

Critical Paths under _Interrupt_Handler in BANK10

    None.

Critical Paths under _main in BANK11

    None.

Critical Paths under _Interrupt_Handler in BANK11

    None.

Critical Paths under _main in BANK12

    None.

Critical Paths under _Interrupt_Handler in BANK12

    None.

Critical Paths under _main in BANK13

    None.

Critical Paths under _Interrupt_Handler in BANK13

    None.

Critical Paths under _main in BANK14

    None.

Critical Paths under _Interrupt_Handler in BANK14

    None.

Critical Paths under _main in BANK15

    None.

Critical Paths under _Interrupt_Handler in BANK15

    None.

Critical Paths under _main in BANK16

    None.

Critical Paths under _Interrupt_Handler in BANK16

    None.

Critical Paths under _main in BANK17

    None.

Critical Paths under _Interrupt_Handler in BANK17

    None.

Critical Paths under _main in BANK18

    None.

Critical Paths under _Interrupt_Handler in BANK18

    None.

Critical Paths under _main in BANK19

    None.

Critical Paths under _Interrupt_Handler in BANK19

    None.

Critical Paths under _main in BANK20

    None.

Critical Paths under _Interrupt_Handler in BANK20

    None.

Critical Paths under _main in BANK21

    None.

Critical Paths under _Interrupt_Handler in BANK21

    None.

Critical Paths under _main in BANK22

    None.

Critical Paths under _Interrupt_Handler in BANK22

    None.

Critical Paths under _main in BANK23

    None.

Critical Paths under _Interrupt_Handler in BANK23

    None.

Critical Paths under _main in BANK24

    None.

Critical Paths under _Interrupt_Handler in BANK24

    None.

Critical Paths under _main in BANK25

    None.

Critical Paths under _Interrupt_Handler in BANK25

    None.

Call Graph Tables:

 ---------------------------------------------------------------------------------
 (Depth) Function   	        Calls       Base Space   Used Autos Params    Refs
 ---------------------------------------------------------------------------------
 (0) _main                                                28    28      0    1571
                                              2 BANK0     28    28      0
               _I2C1_CommandReceived
                    _I2C1_GetCommand
                _I2C1_GetCommandData
               _I2C1_SetTransmitData
                 _I2C1_TxBufferEmpty
                      _Power_GetData *
                         _Power_Init *
                         _Power_Loop *
                      _Power_Measure *
                 _Power_SetThreshold *
                  _SYSTEM_Initialize
                          _toggleInt
 ---------------------------------------------------------------------------------
 (1) _toggleInt                                            0     0      0       0
 ---------------------------------------------------------------------------------
 (1) _SYSTEM_Initialize                                    1     1      0      44
                                              5 COMMON     1     1      0
                    _I2C1_Initialize
              _OSCILLATOR_Initialize
                     _PMD_Initialize
 ---------------------------------------------------------------------------------
 (2) _PMD_Initialize                                       0     0      0       0
 ---------------------------------------------------------------------------------
 (2) _OSCILLATOR_Initialize                                0     0      0       0
 ---------------------------------------------------------------------------------
 (2) _I2C1_Initialize                                      1     1      0      22
                                              4 COMMON     1     1      0
 ---------------------------------------------------------------------------------
 (1) _Power_SetThreshold                                   2     0      2     196
                                              4 COMMON     2     0      2
 ---------------------------------------------------------------------------------
 (1) _Power_Measure                                        0     0      0       0
 ---------------------------------------------------------------------------------
 (1) _Power_Loop                                           0     0      0       0
                        _Enter_sleep
                   _generateIntPower
 ---------------------------------------------------------------------------------
 (2) _generateIntPower                                     1     1      0       0
                                              4 COMMON     1     1      0
 ---------------------------------------------------------------------------------
 (2) _Enter_sleep                                          0     0      0       0
 ---------------------------------------------------------------------------------
 (1) _Power_Init                                           0     0      0       0
                          _LED_Blink
 ---------------------------------------------------------------------------------
 (2) _LED_Blink                                            2     2      0       0
                                              4 COMMON     2     2      0
 ---------------------------------------------------------------------------------
 (1) _Power_GetData                                        3     1      2     201
                                              4 COMMON     2     0      2
                                              0 BANK0      1     1      0
 ---------------------------------------------------------------------------------
 (1) _I2C1_TxBufferEmpty                                   0     0      0       0
 ---------------------------------------------------------------------------------
 (1) _I2C1_SetTransmitData                                 4     3      1     502
                                              4 COMMON     2     1      1
                                              0 BANK0      2     2      0
 ---------------------------------------------------------------------------------
 (1) _I2C1_GetCommandData                                  3     2      1     172
                                              4 COMMON     2     1      1
                                              0 BANK0      1     1      0
 ---------------------------------------------------------------------------------
 (1) _I2C1_GetCommand                                      2     2      0      52
                                              4 COMMON     2     2      0
 ---------------------------------------------------------------------------------
 (1) _I2C1_CommandReceived                                 0     0      0       0
 ---------------------------------------------------------------------------------
 Estimated maximum stack depth 2
 ---------------------------------------------------------------------------------
 (Depth) Function   	        Calls       Base Space   Used Autos Params    Refs
 ---------------------------------------------------------------------------------
 (3) _Interrupt_Handler                                    0     0      0      46
                           _ADCC_ISR
      _DefaultSensorInterruptHandler *
                           _I2C1_ISR
 ---------------------------------------------------------------------------------
 (4) _I2C1_ISR                                             2     2      0      46
                                              2 COMMON     2     2      0
                _I2C1_StatusCallback
 ---------------------------------------------------------------------------------
 (5) _I2C1_StatusCallback                                  2     2      0      22
                                              0 COMMON     2     2      0
 ---------------------------------------------------------------------------------
 (4) _DefaultSensorInterruptHandler                        0     0      0       0
 ---------------------------------------------------------------------------------
 (4) _ADCC_ISR                                             0     0      0       0
                   Absolute function *
       _ADCC_DefaultInterruptHandler *
 ---------------------------------------------------------------------------------
 (5) _ADCC_DefaultInterruptHandler                         0     0      0       0
 ---------------------------------------------------------------------------------
 (5) Absolute function(Fake)                               0     0      0       0
 ---------------------------------------------------------------------------------
 Estimated maximum stack depth 5
 ---------------------------------------------------------------------------------

 Call Graph Graphs:

 _main (ROOT)
   _I2C1_CommandReceived
   _I2C1_GetCommand
   _I2C1_GetCommandData
   _I2C1_SetTransmitData
   _I2C1_TxBufferEmpty
   _Power_GetData *
   _Power_Init *
     _LED_Blink
   _Power_Loop *
     _Enter_sleep
     _generateIntPower
   _Power_Measure *
   _Power_SetThreshold *
   _SYSTEM_Initialize *
     _I2C1_Initialize
     _OSCILLATOR_Initialize
     _PMD_Initialize
   _toggleInt *

 _Interrupt_Handler (ROOT)
   _ADCC_ISR
     Absolute function(Fake) *
     _ADCC_DefaultInterruptHandler *
   _DefaultSensorInterruptHandler *
   _I2C1_ISR *
     _I2C1_StatusCallback

 Address spaces:
Name               Size   Autos  Total    Cost      Usage
BIGRAM             7F0      0       0       0        0.0%
EEDATA             100      0       0       0        0.0%
NULL                 0      0       0       0        0.0%
CODE                 0      0       0       0        0.0%
BITCOMMON            E      0       0       1        0.0%
BITSFR0              0      0       0       1        0.0%
SFR0                 0      0       0       1        0.0%
COMMON               E      6       A       2       71.4%
BITSFR1              0      0       0       2        0.0%
SFR1                 0      0       0       2        0.0%
BITSFR2              0      0       0       3        0.0%
SFR2                 0      0       0       3        0.0%
STACK                0      0       0       3        0.0%
BITBANK0            50      0       0       4        0.0%
BITSFR3              0      0       0       4        0.0%
SFR3                 0      0       0       4        0.0%
BANK0               50     1E      4D       5       96.2%
BITSFR4              0      0       0       5        0.0%
SFR4                 0      0       0       5        0.0%
BITSFR5              0      0       0       6        0.0%
SFR5                 0      0       0       6        0.0%
ABS                  0      0      97       6        0.0%
BITBANK1            50      0       0       7        0.0%
BITSFR6              0      0       0       7        0.0%
SFR6                 0      0       0       7        0.0%
BANK1               50      0      40       8       80.0%
BITSFR7              0      0       0       8        0.0%
SFR7                 0      0       0       8        0.0%
BITBANK2            50      0       0       9        0.0%
BITSFR8              0      0       0       9        0.0%
SFR8                 0      0       0       9        0.0%
BANK2               50      0       0      10        0.0%
BITSFR9              0      0       0      10        0.0%
SFR9                 0      0       0      10        0.0%
BITBANK3            50      0       0      11        0.0%
BITSFR10             0      0       0      11        0.0%
SFR10                0      0       0      11        0.0%
BANK3               50      0       0      12        0.0%
BITSFR11             0      0       0      12        0.0%
SFR11                0      0       0      12        0.0%
BITBANK4            50      0       0      13        0.0%
BITSFR12             0      0       0      13        0.0%
SFR12                0      0       0      13        0.0%
BANK4               50      0       0      14        0.0%
BITSFR13             0      0       0      14        0.0%
SFR13                0      0       0      14        0.0%
BITBANK5            50      0       0      15        0.0%
BITSFR14             0      0       0      15        0.0%
SFR14                0      0       0      15        0.0%
BANK5               50      0       0      16        0.0%
BITSFR15             0      0       0      16        0.0%
SFR15                0      0       0      16        0.0%
BITBANK6            50      0       0      17        0.0%
BITSFR16             0      0       0      17        0.0%
SFR16                0      0       0      17        0.0%
BANK6               50      0       0      18        0.0%
BITSFR17             0      0       0      18        0.0%
SFR17                0      0       0      18        0.0%
BITBANK7            50      0       0      19        0.0%
BITSFR18             0      0       0      19        0.0%
SFR18                0      0       0      19        0.0%
BANK7               50      0       0      20        0.0%
BITSFR19             0      0       0      20        0.0%
SFR19                0      0       0      20        0.0%
BITBANK8            50      0       0      21        0.0%
BITSFR20             0      0       0      21        0.0%
SFR20                0      0       0      21        0.0%
BANK8               50      0       0      22        0.0%
BITSFR21             0      0       0      22        0.0%
SFR21                0      0       0      22        0.0%
BITBANK9            50      0       0      23        0.0%
BITSFR22             0      0       0      23        0.0%
SFR22                0      0       0      23        0.0%
BANK9               50      0       0      24        0.0%
BITSFR23             0      0       0      24        0.0%
SFR23                0      0       0      24        0.0%
BITBANK10           50      0       0      25        0.0%
BITSFR24             0      0       0      25        0.0%
SFR24                0      0       0      25        0.0%
BANK10              50      0       0      26        0.0%
BITSFR25             0      0       0      26        0.0%
SFR25                0      0       0      26        0.0%
BITBANK11           50      0       0      27        0.0%
BITSFR26             0      0       0      27        0.0%
SFR26                0      0       0      27        0.0%
BANK11              50      0       0      28        0.0%
BITSFR27             0      0       0      28        0.0%
SFR27                0      0       0      28        0.0%
BITBANK12           50      0       0      29        0.0%
BITSFR28             0      0       0      29        0.0%
SFR28                0      0       0      29        0.0%
BANK12              50      0       0      30        0.0%
BITSFR29             0      0       0      30        0.0%
SFR29                0      0       0      30        0.0%
BITBANK13           50      0       0      31        0.0%
BITSFR30             0      0       0      31        0.0%
SFR30                0      0       0      31        0.0%
BANK13              50      0       0      32        0.0%
BITSFR31             0      0       0      32        0.0%
SFR31                0      0       0      32        0.0%
BITBANK14           50      0       0      33        0.0%
BITSFR32             0      0       0      33        0.0%
SFR32                0      0       0      33        0.0%
BANK14              50      0       0      34        0.0%
BITSFR33             0      0       0      34        0.0%
SFR33                0      0       0      34        0.0%
BITBANK15           50      0       0      35        0.0%
BITSFR34             0      0       0      35        0.0%
SFR34                0      0       0      35        0.0%
BANK15              50      0       0      36        0.0%
BITSFR35             0      0       0      36        0.0%
SFR35                0      0       0      36        0.0%
BITBANK16           50      0       0      37        0.0%
BITSFR36             0      0       0      37        0.0%
SFR36                0      0       0      37        0.0%
BANK16              50      0       0      38        0.0%
BITSFR37             0      0       0      38        0.0%
SFR37                0      0       0      38        0.0%
BITBANK17           50      0       0      39        0.0%
BITSFR38             0      0       0      39        0.0%
SFR38                0      0       0      39        0.0%
BANK17              50      0       0      40        0.0%
BITSFR39             0      0       0      40        0.0%
SFR39                0      0       0      40        0.0%
BITBANK18           50      0       0      41        0.0%
BITSFR40             0      0       0      41        0.0%
SFR40                0      0       0      41        0.0%
BANK18              50      0       0      42        0.0%
BITSFR41             0      0       0      42        0.0%
SFR41                0      0       0      42        0.0%
BITBANK19           50      0       0      43        0.0%
BITSFR42             0      0       0      43        0.0%
SFR42                0      0       0      43        0.0%
BANK19              50      0       0      44        0.0%
BITSFR43             0      0       0      44        0.0%
SFR43                0      0       0      44        0.0%
BITBANK20           50      0       0      45        0.0%
BITSFR44             0      0       0      45        0.0%
SFR44                0      0       0      45        0.0%
BANK20              50      0       0      46        0.0%
BITSFR45             0      0       0      46        0.0%
SFR45                0      0       0      46        0.0%
BITBANK21           50      0       0      47        0.0%
BITSFR46             0      0       0      47        0.0%
SFR46                0      0       0      47        0.0%
BANK21              50      0       0      48        0.0%
BITSFR47             0      0       0      48        0.0%
SFR47                0      0       0      48        0.0%
BITBANK22           50      0       0      49        0.0%
BITSFR48             0      0       0      49        0.0%
SFR48                0      0       0      49        0.0%
BANK22              50      0       0      50        0.0%
BITSFR49             0      0       0      50        0.0%
SFR49                0      0       0      50        0.0%
BITBANK23           50      0       0      51        0.0%
BITSFR50             0      0       0      51        0.0%
SFR50                0      0       0      51        0.0%
BANK23              50      0       0      52        0.0%
BITSFR51             0      0       0      52        0.0%
SFR51                0      0       0      52        0.0%
BITBANK24           50      0       0      53        0.0%
BITSFR52             0      0       0      53        0.0%
SFR52                0      0       0      53        0.0%
BANK24              50      0       0      54        0.0%
BITSFR53             0      0       0      54        0.0%
SFR53                0      0       0      54        0.0%
BITBANK25           20      0       0      55        0.0%
BITSFR54             0      0       0      55        0.0%
SFR54                0      0       0      55        0.0%
BANK25              20      0       0      56        0.0%
BITSFR55             0      0       0      56        0.0%
SFR55                0      0       0      56        0.0%
BITSFR56             0      0       0      57        0.0%
SFR56                0      0       0      57        0.0%
DATA                 0      0      97      57        0.0%
BITSFR57             0      0       0      58        0.0%
SFR57                0      0       0      58        0.0%
BITSFR58             0      0       0      59        0.0%
SFR58                0      0       0      59        0.0%
BITSFR59             0      0       0      60        0.0%
SFR59                0      0       0      60        0.0%
BITSFR60             0      0       0      61        0.0%
SFR60                0      0       0      61        0.0%
BITSFR61             0      0       0      62        0.0%
SFR61                0      0       0      62        0.0%
BITSFR62             0      0       0      63        0.0%
SFR62                0      0       0      63        0.0%
BITSFR63             0      0       0      64        0.0%
SFR63                0      0       0      64        0.0%


Microchip Technology PIC Macro Assembler V2.30 build 20200825195618 
Symbol Table                                                                                   Thu Nov 19 17:57:06 2020

                                    l91 0121                                      l94 0131  
                                    l96 013F                                      l98 014D  
                   ??_Interrupt_Handler 0074            __size_of_I2C1_GetCommandData 001C  
                                   l100 015B                                     l110 01A1  
                                   l102 0169                                     l112 01AF  
                                   l104 0177                                     l201 0376  
                                   l106 0185                                     l115 01BD  
                                   l108 0193                                     l140 02E0  
                                   l132 02DB                                     l205 0381  
                                   l142 02E2                                     l134 02DD  
                                   l144 02E4                                     l136 02DE  
                                   l129 039B                                     l162 02F4  
                                   l146 02E5                                     l138 02DF  
                                   l148 02E6                                     l332 0275  
                                   l165 03B1                                     l245 011E  
                                   l350 0394                                     l192 0323  
                     ??_I2C1_GetCommand 0074                                     l353 038C  
                                   l249 009A                                     l347 03B4  
                                   l195 033A                                     l267 035D  
                                   l356 02DA                                     l364 029D  
                                   l269 0369                                     l198 030C  
                                   l483 02BE                                     l492 034D  
                                   l489 03AD                                     u700 0318  
                                   u701 0317                                     u730 0393  
                                   u731 0391                                     u740 0394  
                                   u750 0367                                     u751 0364  
                                   u690 0313                                     u691 0312  
                                   u764 0369                                     mcp0 02D2  
               __size_of_PMD_Initialize 0013                                     wreg 0009  
                      __end_of_I2C1_ISR 024E                                    l2101 02B0  
                                  l2111 02B8                                    l2103 02B1  
                                  l2113 02BC                                    l2105 02B3  
                                  l2131 03B2                                    l2051 02EE  
                                  l2043 02E7                                    l2115 02BD  
                                  l2107 02B5                                    l2053 02F0  
                                  l2045 02EA                                    l2061 0313  
                                  l2109 02B7                                    l2135 0383  
                                  l2055 02F2                                    l2047 02EC  
                                  l2063 0318                                    l2071 0320  
                                  l2143 035D                                    l2137 038B  
                                  l2049 02ED                                    l2065 0319  
                                  l2057 03AE                                    l2081 0307  
                                  l2139 038D                                    l2067 031B  
                                  l2059 030D                                    l2075 02F5  
                                  l2091 02AA                                    l2083 029F  
                                  l2069 031E                                    l2077 02FD  
                                  l2093 02AB                                    l2085 02A5  
                                  l2079 0302                                    l2095 02AC  
                                  l2087 02A7                                    l2097 02AE  
                                  l2089 02A9                                    l2601 009C  
                                  l2099 02AF                                    l2611 00BD  
                                  l2603 00A3                                    l2621 00E4  
                                  l2613 00C6                                    l2605 00A7  
                                  l2623 00ED                                    l2615 00CE  
                                  l2607 00AE                                    l1841 012F  
                                  l2625 00F4                                    l2617 00D7  
                                  l2609 00B8                                    l2571 0287  
                                  l1851 0175                                    l1843 013D  
                                  l2619 00DB                                    l2581 02C1  
                                  l2573 028B                                    l2565 0324  
                                  l1861 01BB                                    l1853 0183  
                                  l1845 014B                                    l1925 033B  
                                  l2629 0106                                    l2583 02D3  
                                  l2575 0291                                    l2567 0277  
                                  l1855 0191                                    l1847 0159  
                                  l1839 0123                                    l1863 0395  
                                  l1871 0257                                    l1927 033E  
                                  l2591 0079                                    l2577 0297  
                                  l2569 0278                                    l1857 019F  
                                  l1849 0167                                    l1865 0378  
                                  l1881 0269                                    l1873 0262  
                                  l1929 03A8                                    l2593 0082  
                                  l2585 0054                                    l2579 029C  
                                  l1859 01AD                                    l1867 037F  
                                  l1891 0272                                    l1883 026C  
                                  l1875 0264                                    l2595 008A  
                                  l2587 005E                                    l1893 0273  
                                  l1885 026E                                    l1877 0266  
                                  l1869 024F                                    l2597 008F  
                                  l2589 0067                                    l1887 0270  
                                  l1879 0268                                    l2599 0093  
                                  l1889 0271                                    u1410 008A  
                                  u1411 0089                                    u1420 00CE  
                                  u1421 00CD                                    _LATA 0018  
                                  u1430 00D6                                    _LATB 0019  
                                  u1431 00D5                                    _LATC 001A  
                                  u1440 00F4                                    u1441 00F3  
                                  u1507 0144                                    u1380 0291  
                                  u1381 0290                                    u1517 0152  
                                  u1390 0297                                    u1391 0296  
                                  u1527 0160                                    u1537 016E  
                                  u1457 00C1                                    u1547 017C  
                                  u1467 00DF                                    u1557 018A  
                                  u1477 037B                                    u1567 0198  
                                  u1487 0128                                    u1577 01A6  
                                  u1497 0136                                    u1587 01B4  
                                  _PMD0 0796                                    _PMD1 0797  
                                  _PMD2 0798                                    _PMD3 0799  
                                  _PMD4 079A                                    _PMD5 079B  
                                  _PMD6 079C                                    _PMD7 079D  
                         ??_Enter_sleep 0074               __end_of_Interrupt_Handler 002B  
                      __end_of_ADCC_ISR 035D                                    _main 0054  
                                  mcp0b 02C5                                    mcp0z 02D3  
                                  fsr0h 0005                                    fsr1h 0007  
                                  indf0 0000                                    fsr0l 0004  
                                  indf1 0001                                    fsr1l 0006  
                                  btemp 007E                             main@retries 005B  
                    __size_of_LED_Blink 009D                                    start 002B  
                   _I2C1_StatusCallback 01BE          __size_of_OSCILLATOR_Initialize 0006  
         __end_of_OSCILLATOR_Initialize 03AE                       Power_GetData@data 0074  
                                 _ADCAP 010E                                   _ADACT 0117  
                                 ?_main 0070                                   _ADCLK 0118  
                                 _ADCNT 0099                                   _ADPCH 009F  
                                 _ADREF 0116                                   _ADRPT 009A  
                                 i1l411 001D                                   i1l412 0029  
                                 i1l341 0242                                   i1l422 03B6  
                                 i1l335 022F                                   i1l344 024D  
                                 i1l416 0029                                   i1l338 0247  
                                 i1l373 01C0                                   i1l387 020E  
                                 i1l672 03B7                                   i1l666 035C  
                                 u140m0 02CD                                   u140m1 02D3  
                                 u32_20 01D2                                   u32_21 01D1  
                                 u33_20 01F1                                   u33_21 01F0  
                                 u80_20 0223                                   u80_21 0222  
                                 u81_20 0233                                   u81_21 0232  
                                 _TRISA 0012                                   _TRISB 0013  
                                 _TRISC 0014                                   u82_20 0247  
                                 u82_21 0246                                   u83_20 0357  
                                 u83_21 0356                                   u78_20 021B  
                                 u78_21 021A                                   u79_20 021F  
                                 u79_21 021E                        _generateIntPower 0376  
                     ??_I2C1_Initialize 0074                Power_SetThreshold@metric 0074  
                  ?_I2C1_StatusCallback 0070                                   _mData 0038  
                                 _errno 002C                                   _rxLen 0077  
                                 _txCnt 0076                                   _txLen 0033  
                                 pclath 000A                                   status 0003  
                                 wtemp0 007E                     __end_of_Enter_sleep 039C  
                       __initialization 002D                            __end_of_main 0121  
                                ??_main 0045            __end_of_I2C1_SetTransmitData 029E  
                     __end_of_LED_Blink 01BE                   ??_I2C1_StatusCallback 0070  
                    _I2C1_TxBufferEmpty 038D                                  _ADACCH 0097  
                                _ADACCL 0096                                  _ADACCU 0098  
                                _ADACQH 010D                                  _ADACQL 010C  
                                _ADCON0 0111                                  _ADCON1 0112  
                                _ADCON2 0113                                  _ADCON3 0114  
                                _ADERRH 0091                                  _ADERRL 0090  
                                _ADLTHH 008D                                  _ADLTHL 008C  
                                _ADRESH 009E                                  _ADRESL 009D  
                                _ADPREH 0110                                  _ADPREL 010F  
                                _ADSTAT 0115                                  _ADUTHH 008F  
                                _ADUTHL 008E                                  _ANSELA 1F38  
                                _ANSELB 1F43                                  _ANSELC 1F4E  
                                _RB5PPS 1F1D                                  u110_20 0010  
                                u110_21 000F              __size_of_Interrupt_Handler 0027  
                                u111_20 0015                                  u111_21 0014  
                                _RB7PPS 1F1F                                  i1l2151 020F  
                                u112_20 0019                                  i1l2161 021F  
                                i1l2153 0211                                  u112_21 0018  
                                i1l2171 0238                                  i1l2163 0223  
                                i1l2155 0212                                  i1l2411 0015  
                                i1l2181 0357                                  i1l2173 023C  
                                i1l2165 0228                                  i1l2157 0217  
                                i1l2149 020F                                  i1l2413 0019  
                                i1l2405 0006                                  i1l2175 0240  
                                i1l2167 022C                                  i1l2159 021B  
                                i1l2415 0021                                  i1l2407 000C  
                                u113_20 0021                                  i1l2177 034E  
                                i1l2185 03B6                                  i1l2169 0233  
                                i1l2417 0025                                  u113_21 0020  
                                i1l2409 0010                                  i1l2179 0350  
                                i1l1901 01C9                                  i1l1911 01DF  
                                i1l1903 01CC                                  u114_20 0025  
                                i1l1921 01FD                                  i1l1905 01D2  
                                i1l1913 01E8                                  u114_21 0024  
                                i1l1915 01EA                                  i1l1907 01DA  
                                i1l1923 0200                                  i1l1917 01F1  
                                i1l1919 01F8                                  i1l1895 01BF  
                                i1l1897 01C4                                  i1l1899 01C8  
                                _FVRCON 090C                     ?_I2C1_TxBufferEmpty 0070  
                                _OSCFRQ 0893                         _floatbatvoltage 0026  
                             ?_I2C1_ISR 0070                    ??_I2C1_TxBufferEmpty 0074  
                             ?_ADCC_ISR 0070                              _Power_Init 02DB  
                            _Power_Loop 030D                          _PMD_Initialize 033B  
                          __pdataCOMMON 0079                       _SYSTEM_Initialize 029E  
                           _Enter_sleep 0395            __end_of_I2C1_CommandReceived 03B5  
                   _I2C1_GetCommandData 02BF                 __end_of__initialization 0050  
                    ?_SYSTEM_Initialize 0070                      _Power_SetThreshold 02F5  
                       _I2C1_GetCommand 0382                          _i2c1_rx_buffer 00C0  
                        __pcstackCOMMON 0070                            __pidataBANK0 036A  
                   ??_SYSTEM_Initialize 0075                          _i2c1_tx_buffer 00A0  
                   _batteryundervoltage 0078                  _SensorInterruptHandler 006B  
                            ??_I2C1_ISR 0072                     ?_Power_SetThreshold 0074  
                  ?_I2C1_GetCommandData 0074                  __end_of_PMD_Initialize 034E  
                I2C1_GetCommandData@len 0074                              ??_ADCC_ISR 0070  
                 __end_of_Power_GetData 033B               __end_of_SYSTEM_Initialize 02BF  
                            __pbssBANK0 0020                              __pbssBANK1 00A0  
                 __end_of_Power_Measure 03B2                    ??_Power_SetThreshold 0076  
                  _I2C1_SetTransmitData 0276                __end_of_generateIntPower 0382  
                            __pmaintext 0054                              _batvoltage 003E  
                   Power_GetData@length 0075                              __pintentry 0004  
                       _I2C1_Initialize 024E                                 _ADFLTRH 0095  
                               _ADFLTRL 0094                   ??_I2C1_GetCommandData 0075  
                               _ADPREVH 009C                                 _ADPREVL 009B  
                               _ADSTPTH 0093                                 _ADSTPTL 0092  
                       ?_PMD_Initialize 0070                             ?_Power_Init 0070  
                           ?_Power_Loop 0070            I2C1_Initialize@slave_address 0074  
     I2C1_StatusCallback@slaveWriteType 0032                                 _OSCCON1 088D  
                    __size_of_toggleInt 000D                                 _SSP1ADD 018D  
                               _SSP1BUF 018C                                 _SSP1MSK 018E  
               __end_of_I2C1_GetCommand 038D                         _floatsolvoltage 0029  
                 ?_I2C1_SetTransmitData 0074                                 _cmdByte 0035  
                               __ptext1 035D                                 __ptext2 029E  
                               __ptext3 033B                                 __ptext4 03A8  
                               __ptext5 024E                                 __ptext6 02F5  
                               __ptext7 03AE                                 __ptext8 030D  
                               __ptext9 0376                    _I2C1_CommandReceived 03B2  
                 _OSCILLATOR_Initialize 03A8                                 main@ack 005C  
                             _LED_Blink 0121                                 main@cmd 005F  
            __size_of_SYSTEM_Initialize 0021                                 main@len 0060  
                               main@mnr 005E                                 clrloop0 03A3  
                  end_of_initialization 0050                                 init_ram 039C  
                               initloop 039D                     __size_of_Power_Init 001A  
               __end_of_I2C1_Initialize 0276                     __size_of_Power_Loop 0017  
                      _startMeasurement 0037         ??_DefaultSensorInterruptHandler 0070  
                     __end_of_toggleInt 036A             __end_of_I2C1_StatusCallback 020F  
                 ?_I2C1_CommandReceived 0070                       __size_of_I2C1_ISR 003F  
                           _mDataLength 0042                       __size_of_ADCC_ISR 000F  
                             _TRISBbits 0013                               _TRISCbits 0014  
       Power_SetThreshold@thresholdData 0075                              ?_LED_Blink 0070  
                          ?_Enter_sleep 0070                        ?_I2C1_GetCommand 0070  
                ??_I2C1_SetTransmitData 0043                              _solvoltage 0040  
        ??_ADCC_DefaultInterruptHandler 0070                           __pidataCOMMON 03B5  
           __size_of_I2C1_TxBufferEmpty 0008                  ?_OSCILLATOR_Initialize 0070  
                    _measurementRunning 0036                     start_initialization 002D  
               I2C1_GetCommandData@data 0043                        ?_I2C1_Initialize 0070  
                     ?_generateIntPower 0070                        ??_PMD_Initialize 0074  
                      I2C1_ISR@i2c_data 0073                I2C1_SetTransmitData@data 0075  
                    ??_generateIntPower 0074                             __pdataBANK0 0061  
                ??_I2C1_CommandReceived 0074   __end_of_DefaultSensorInterruptHandler 03B7  
__size_of_DefaultSensorInterruptHandler 0001           _DefaultSensorInterruptHandler 03B6  
                          ??_Power_Init 0076                            ??_Power_Loop 0075  
                           _cmdReceived 0034                             __pbssCOMMON 0076  
                             ___latbits 0003                           __pcstackBANK0 0043  
      I2C1_StatusCallback@i2c_bus_state 0071                             ??_LED_Blink 0074  
           __size_of_Power_SetThreshold 0018                      __end_of_Power_Init 02F5  
                    __end_of_Power_Loop 0324             __end_of_I2C1_GetCommandData 02DB  
                __size_of_Power_GetData 0017                                _I2C1_ISR 020F  
                __size_of_Power_Measure 0004                                _ADCC_ISR 034E  
                           _CPUDOZEbits 088C                                _LATBbits 0019  
                              _LATCbits 001A                               clear_ram0 03A2  
                  __size_of_Enter_sleep 0007                                _PIE1bits 0717  
                              _PIE3bits 0719                                _PMD0bits 0796  
                              _PMD6bits 079C                                _PIR1bits 070D  
                              _PIR3bits 070F                               _tempValue 0030  
                             _sensorAPI 0061                                _SSP1CON1 0190  
                              _SSP1CON2 0191                                _SSP1CON3 0192  
                              _SSP1STAT 018F                               _toggleInt 035D  
                   _I2C1_slaveWriteData 0079                              _ADCON0bits 0111  
                            _ADCON1bits 0112                              _ADCON2bits 0113  
                            _ADCON3bits 0114          ?_DefaultSensorInterruptHandler 0070  
                         _Power_GetData 0324                           _Power_Measure 03AE  
                            _ADSTATbits 0115                 I2C1_SetTransmitData@len 0074  
               ??_OSCILLATOR_Initialize 0074                              ?_toggleInt 0070  
                            _ANSELBbits 1F43                              _ANSELCbits 1F4E  
          __size_of_I2C1_StatusCallback 0051                          ?_Power_GetData 0074  
                              __ptext10 0395                                __ptext11 02DB  
                              __ptext20 020F                                __ptext12 0121  
                              __ptext21 01BE                                __ptext13 0324  
                              __ptext22 03B6                                __ptext14 038D  
                              __ptext23 034E                                __ptext15 0276  
                              __ptext24 03B7                                __ptext16 02BF  
                              __ptext17 0382                                __ptext18 03B2  
                          _SSP1CON1bits 0190                            _SSP1CON2bits 0191  
                          _SSP1CON3bits 0192                          ?_Power_Measure 0070  
                         __size_of_main 00CD           __size_of_I2C1_SetTransmitData 0028  
             _ADCC_ADI_InterruptHandler 002E                __size_of_I2C1_GetCommand 000B  
                              int$flags 007E              __end_of_I2C1_TxBufferEmpty 0395  
                              main@data 0047                            _SSP1STATbits 018F  
                              main@type 005D                      I2C1_GetCommand@cmd 0075  
                            _INTCONbits 000B               __size_of_generateIntPower 000C  
  __end_of_ADCC_DefaultInterruptHandler 03B8   __size_of_ADCC_DefaultInterruptHandler 0001  
          _ADCC_DefaultInterruptHandler 03B7                                intlevel1 0000  
                       _measurementData 0020                             ??_toggleInt 0074  
              __size_of_I2C1_Initialize 0028           __size_of_I2C1_CommandReceived 0003  
                            _SSP1DATPPS 1EC6                              _SSP1CLKPPS 1EC5  
                       ??_Power_GetData 0043                             _VREGCONbits 0812  
        SYSTEM_Initialize@slave_address 0075                         ??_Power_Measure 0074  
            __end_of_Power_SetThreshold 030D           ?_ADCC_DefaultInterruptHandler 0070  
                     _Interrupt_Handler 0004                      ?_Interrupt_Handler 0070  
