

Microchip MPLAB XC8 Assembler V2.31 build 20201012212115 
                                                                                               Wed Nov 25 13:42:28 2020

Microchip MPLAB XC8 C Compiler v2.31 (Free license) build 20201012212115 Og1 
     1                           	processor	16F18446
     2                           	pagewidth 120
     3                           	opt	flic
     4                           	psect	idataCOMMON,global,class=CODE,delta=2,noexec
     5                           	psect	idataBANK1,global,class=CODE,delta=2,noexec
     6                           	psect	idataBANK2,global,class=CODE,delta=2,noexec
     7                           	psect	cinit,global,class=CODE,merge=1,delta=2
     8                           	psect	bssCOMMON,global,class=COMMON,space=1,delta=1,noexec
     9                           	psect	dataCOMMON,global,class=COMMON,space=1,delta=1,noexec
    10                           	psect	bssBANK1,global,class=BANK1,space=1,delta=1,noexec
    11                           	psect	dataBANK1,global,class=BANK1,space=1,delta=1,noexec
    12                           	psect	bssBANK2,global,class=BANK2,space=1,delta=1,noexec
    13                           	psect	dataBANK2,global,class=BANK2,space=1,delta=1,noexec
    14                           	psect	inittext,global,class=CODE,delta=2
    15                           	psect	clrtext,global,class=CODE,delta=2
    16                           	psect	cstackBANK3,global,class=BANK3,space=1,delta=1,noexec
    17                           	psect	cstackBANK1,global,class=BANK1,space=1,delta=1,noexec
    18                           	psect	cstackCOMMON,global,class=COMMON,space=1,delta=1,noexec
    19                           	psect	cstackBANK0,global,class=BANK0,space=1,delta=1,noexec
    20                           	psect	maintext,global,class=CODE,merge=1,split=1,delta=2
    21                           	psect	text1,local,class=CODE,merge=1,delta=2
    22                           	psect	text2,local,class=CODE,merge=1,delta=2
    23                           	psect	text3,local,class=CODE,merge=1,delta=2
    24                           	psect	text4,local,class=CODE,merge=1,delta=2
    25                           	psect	text5,local,class=CODE,merge=1,delta=2
    26                           	psect	text6,local,class=CODE,merge=1,delta=2
    27                           	psect	text7,local,class=CODE,merge=1,delta=2
    28                           	psect	text8,local,class=CODE,merge=1,delta=2
    29                           	psect	text9,local,class=CODE,merge=1,delta=2
    30                           	psect	text10,local,class=CODE,merge=1,delta=2
    31                           	psect	text11,local,class=CODE,merge=1,delta=2,group=2
    32                           	psect	text12,local,class=CODE,merge=1,delta=2,group=2
    33                           	psect	text13,local,class=CODE,merge=1,delta=2,group=2
    34                           	psect	text14,local,class=CODE,merge=1,delta=2,group=1
    35                           	psect	text15,local,class=CODE,merge=1,delta=2,group=1
    36                           	psect	text16,local,class=CODE,merge=1,delta=2,group=1
    37                           	psect	text17,local,class=CODE,merge=1,delta=2,group=1
    38                           	psect	text18,local,class=CODE,merge=1,delta=2,group=1
    39                           	psect	text19,local,class=CODE,merge=1,delta=2,group=1
    40                           	psect	text20,local,class=CODE,merge=1,delta=2,group=1
    41                           	psect	text21,local,class=CODE,merge=1,delta=2,group=1
    42                           	psect	text22,local,class=CODE,merge=1,delta=2,group=1
    43                           	psect	text23,local,class=CODE,merge=1,delta=2
    44                           	psect	text24,local,class=CODE,merge=1,delta=2
    45                           	psect	text25,local,class=CODE,merge=1,delta=2
    46                           	psect	text26,local,class=CODE,merge=1,delta=2
    47                           	psect	text27,local,class=CODE,merge=1,delta=2
    48                           	psect	text28,local,class=CODE,merge=1,delta=2
    49                           	psect	text29,local,class=CODE,merge=1,delta=2
    50                           	psect	text30,local,class=CODE,merge=1,delta=2
    51                           	psect	text31,local,class=CODE,merge=1,delta=2
    52                           	psect	text32,local,class=CODE,merge=1,delta=2
    53                           	psect	text33,local,class=CODE,merge=1,delta=2
    54                           	psect	text34,local,class=CODE,merge=1,delta=2
    55                           	psect	intentry,global,class=CODE,delta=2
    56                           	psect	text36,local,class=CODE,merge=1,delta=2
    57                           	psect	text37,local,class=CODE,merge=1,delta=2
    58                           	psect	text38,local,class=CODE,merge=1,delta=2
    59                           	psect	text39,local,class=CODE,merge=1,delta=2
    60                           	psect	text40,local,class=CODE,merge=1,delta=2
    61                           	psect	config,global,abs,ovrld,class=CONFIG,space=4,delta=2,noexec
    62                           	dabs	1,0x7E,2
    63  0000                     
    64                           ; Version 2.30
    65                           ; Generated 15/09/2020 GMT
    66                           ; 
    67                           ; Copyright © 2020, Microchip Technology Inc. and its subsidiaries ("Microchip")
    68                           ; All rights reserved.
    69                           ; 
    70                           ; This software is developed by Microchip Technology Inc. and its subsidiaries ("Microch
      +                          ip").
    71                           ; 
    72                           ; Redistribution and use in source and binary forms, with or without modification, are
    73                           ; permitted provided that the following conditions are met:
    74                           ; 
    75                           ;     1. Redistributions of source code must retain the above copyright notice, this lis
      +                          t of
    76                           ;        conditions and the following disclaimer.
    77                           ; 
    78                           ;     2. Redistributions in binary form must reproduce the above copyright notice, this 
      +                          list
    79                           ;        of conditions and the following disclaimer in the documentation and/or other
    80                           ;        materials provided with the distribution. Publication is not required when
    81                           ;        this file is used in an embedded application.
    82                           ; 
    83                           ;     3. Microchip's name may not be used to endorse or promote products derived from th
      +                          is
    84                           ;        software without specific prior written permission.
    85                           ; 
    86                           ; THIS SOFTWARE IS PROVIDED BY MICROCHIP "AS IS" AND ANY EXPRESS OR IMPLIED WARRANTIES,
    87                           ; INCLUDING, BUT NOT LIMITED TO, THE IMPLIED WARRANTIES OF MERCHANTABILITY AND FITNESS F
      +                          OR
    88                           ; PURPOSE ARE DISCLAIMED.  IN NO EVENT SHALL MICROCHIP BE LIABLE FOR ANY DIRECT, INDIREC
      +                          T,
    89                           ; INCIDENTAL, SPECIAL, EXEMPLARY, OR CONSEQUENTIAL DAMAGES (INCLUDING BUT NOT LIMITED TO
    90                           ; PROCUREMENT OF SUBSTITUTE GOODS OR SERVICES; LOSS OF USE, DATA OR PROFITS; OR BUSINESS
    91                           ; INTERRUPTION) HOWSOEVER CAUSED AND ON ANY THEORY OF LIABILITY, WHETHER IN CONTRACT, ST
      +                          RICT
    92                           ; LIABILITY, OR TORT (INCLUDING NEGLIGENCE OR OTHERWISE) ARISING IN ANY WAY OUT OF THE U
      +                          SE OF
    93                           ; THIS SOFTWARE, EVEN IF ADVISED OF THE POSSIBILITY OF SUCH DAMAGE.
    94                           ; 
    95                           ; 
    96                           ; Code-generator required, PIC16F18446 Definitions
    97                           ; 
    98                           ; SFR Addresses
    99  0000                     	;# 
   100  0001                     	;# 
   101  0002                     	;# 
   102  0003                     	;# 
   103  0004                     	;# 
   104  0005                     	;# 
   105  0006                     	;# 
   106  0007                     	;# 
   107  0008                     	;# 
   108  0009                     	;# 
   109  000A                     	;# 
   110  000B                     	;# 
   111  000C                     	;# 
   112  000D                     	;# 
   113  000E                     	;# 
   114  0012                     	;# 
   115  0013                     	;# 
   116  0014                     	;# 
   117  0018                     	;# 
   118  0019                     	;# 
   119  001A                     	;# 
   120  008C                     	;# 
   121  008C                     	;# 
   122  008D                     	;# 
   123  008E                     	;# 
   124  008E                     	;# 
   125  008F                     	;# 
   126  0090                     	;# 
   127  0090                     	;# 
   128  0091                     	;# 
   129  0092                     	;# 
   130  0092                     	;# 
   131  0093                     	;# 
   132  0094                     	;# 
   133  0094                     	;# 
   134  0095                     	;# 
   135  0096                     	;# 
   136  0096                     	;# 
   137  0097                     	;# 
   138  0098                     	;# 
   139  0099                     	;# 
   140  009A                     	;# 
   141  009B                     	;# 
   142  009B                     	;# 
   143  009C                     	;# 
   144  009D                     	;# 
   145  009D                     	;# 
   146  009E                     	;# 
   147  009F                     	;# 
   148  010C                     	;# 
   149  010C                     	;# 
   150  010D                     	;# 
   151  010E                     	;# 
   152  010F                     	;# 
   153  010F                     	;# 
   154  0110                     	;# 
   155  0111                     	;# 
   156  0112                     	;# 
   157  0113                     	;# 
   158  0114                     	;# 
   159  0115                     	;# 
   160  0116                     	;# 
   161  0117                     	;# 
   162  0118                     	;# 
   163  0119                     	;# 
   164  0119                     	;# 
   165  0119                     	;# 
   166  011A                     	;# 
   167  011A                     	;# 
   168  011A                     	;# 
   169  011B                     	;# 
   170  011B                     	;# 
   171  011B                     	;# 
   172  011B                     	;# 
   173  011B                     	;# 
   174  011C                     	;# 
   175  011C                     	;# 
   176  011C                     	;# 
   177  011D                     	;# 
   178  011D                     	;# 
   179  011D                     	;# 
   180  011E                     	;# 
   181  011E                     	;# 
   182  011E                     	;# 
   183  011F                     	;# 
   184  011F                     	;# 
   185  011F                     	;# 
   186  011F                     	;# 
   187  011F                     	;# 
   188  018C                     	;# 
   189  018D                     	;# 
   190  018E                     	;# 
   191  018F                     	;# 
   192  0190                     	;# 
   193  0191                     	;# 
   194  0192                     	;# 
   195  0196                     	;# 
   196  0197                     	;# 
   197  0198                     	;# 
   198  0199                     	;# 
   199  019A                     	;# 
   200  019B                     	;# 
   201  019C                     	;# 
   202  020C                     	;# 
   203  020D                     	;# 
   204  020E                     	;# 
   205  020E                     	;# 
   206  020F                     	;# 
   207  020F                     	;# 
   208  0210                     	;# 
   209  0210                     	;# 
   210  0211                     	;# 
   211  0211                     	;# 
   212  0212                     	;# 
   213  0213                     	;# 
   214  0214                     	;# 
   215  0214                     	;# 
   216  0215                     	;# 
   217  0215                     	;# 
   218  0216                     	;# 
   219  0216                     	;# 
   220  0217                     	;# 
   221  0217                     	;# 
   222  0218                     	;# 
   223  0219                     	;# 
   224  021A                     	;# 
   225  021A                     	;# 
   226  021B                     	;# 
   227  021B                     	;# 
   228  021C                     	;# 
   229  021C                     	;# 
   230  021D                     	;# 
   231  021D                     	;# 
   232  021E                     	;# 
   233  021F                     	;# 
   234  028C                     	;# 
   235  028C                     	;# 
   236  028D                     	;# 
   237  028D                     	;# 
   238  028E                     	;# 
   239  028F                     	;# 
   240  0290                     	;# 
   241  0291                     	;# 
   242  0292                     	;# 
   243  0292                     	;# 
   244  0293                     	;# 
   245  0293                     	;# 
   246  0294                     	;# 
   247  0295                     	;# 
   248  0296                     	;# 
   249  0297                     	;# 
   250  0298                     	;# 
   251  0298                     	;# 
   252  0299                     	;# 
   253  0299                     	;# 
   254  029A                     	;# 
   255  029B                     	;# 
   256  029C                     	;# 
   257  029D                     	;# 
   258  029F                     	;# 
   259  030C                     	;# 
   260  030C                     	;# 
   261  030D                     	;# 
   262  030E                     	;# 
   263  030F                     	;# 
   264  0310                     	;# 
   265  0310                     	;# 
   266  0311                     	;# 
   267  0312                     	;# 
   268  0313                     	;# 
   269  0314                     	;# 
   270  0314                     	;# 
   271  0315                     	;# 
   272  0316                     	;# 
   273  0317                     	;# 
   274  0318                     	;# 
   275  0318                     	;# 
   276  0319                     	;# 
   277  031A                     	;# 
   278  031B                     	;# 
   279  038C                     	;# 
   280  038C                     	;# 
   281  038D                     	;# 
   282  038E                     	;# 
   283  0390                     	;# 
   284  0390                     	;# 
   285  0391                     	;# 
   286  0392                     	;# 
   287  048C                     	;# 
   288  048C                     	;# 
   289  048D                     	;# 
   290  048E                     	;# 
   291  048F                     	;# 
   292  048F                     	;# 
   293  0490                     	;# 
   294  0491                     	;# 
   295  0492                     	;# 
   296  0492                     	;# 
   297  0493                     	;# 
   298  0494                     	;# 
   299  0495                     	;# 
   300  0495                     	;# 
   301  0496                     	;# 
   302  0497                     	;# 
   303  0498                     	;# 
   304  0499                     	;# 
   305  049A                     	;# 
   306  049B                     	;# 
   307  049C                     	;# 
   308  049D                     	;# 
   309  058C                     	;# 
   310  058C                     	;# 
   311  058D                     	;# 
   312  058E                     	;# 
   313  058F                     	;# 
   314  058F                     	;# 
   315  0590                     	;# 
   316  0591                     	;# 
   317  0592                     	;# 
   318  0593                     	;# 
   319  059C                     	;# 
   320  059C                     	;# 
   321  059D                     	;# 
   322  059D                     	;# 
   323  059E                     	;# 
   324  059F                     	;# 
   325  060C                     	;# 
   326  060C                     	;# 
   327  060D                     	;# 
   328  060D                     	;# 
   329  060E                     	;# 
   330  060F                     	;# 
   331  0610                     	;# 
   332  0611                     	;# 
   333  0612                     	;# 
   334  0613                     	;# 
   335  0614                     	;# 
   336  0616                     	;# 
   337  0616                     	;# 
   338  0617                     	;# 
   339  0617                     	;# 
   340  0618                     	;# 
   341  0619                     	;# 
   342  061A                     	;# 
   343  061B                     	;# 
   344  061C                     	;# 
   345  061D                     	;# 
   346  061E                     	;# 
   347  070C                     	;# 
   348  070D                     	;# 
   349  070E                     	;# 
   350  070F                     	;# 
   351  0710                     	;# 
   352  0711                     	;# 
   353  0712                     	;# 
   354  0713                     	;# 
   355  0714                     	;# 
   356  0716                     	;# 
   357  0717                     	;# 
   358  0718                     	;# 
   359  0719                     	;# 
   360  071A                     	;# 
   361  071B                     	;# 
   362  071C                     	;# 
   363  071D                     	;# 
   364  071E                     	;# 
   365  0796                     	;# 
   366  0797                     	;# 
   367  0798                     	;# 
   368  0799                     	;# 
   369  079A                     	;# 
   370  079B                     	;# 
   371  079C                     	;# 
   372  079D                     	;# 
   373  080C                     	;# 
   374  080D                     	;# 
   375  080E                     	;# 
   376  080F                     	;# 
   377  0810                     	;# 
   378  0811                     	;# 
   379  0812                     	;# 
   380  0813                     	;# 
   381  0814                     	;# 
   382  081A                     	;# 
   383  081A                     	;# 
   384  081B                     	;# 
   385  081C                     	;# 
   386  081C                     	;# 
   387  081D                     	;# 
   388  081E                     	;# 
   389  081F                     	;# 
   390  088C                     	;# 
   391  088D                     	;# 
   392  088E                     	;# 
   393  088F                     	;# 
   394  0890                     	;# 
   395  0891                     	;# 
   396  0892                     	;# 
   397  0893                     	;# 
   398  0895                     	;# 
   399  0896                     	;# 
   400  0897                     	;# 
   401  0898                     	;# 
   402  0899                     	;# 
   403  089A                     	;# 
   404  089B                     	;# 
   405  090C                     	;# 
   406  090E                     	;# 
   407  090F                     	;# 
   408  091F                     	;# 
   409  098F                     	;# 
   410  098F                     	;# 
   411  0990                     	;# 
   412  0991                     	;# 
   413  0992                     	;# 
   414  0993                     	;# 
   415  0994                     	;# 
   416  0995                     	;# 
   417  0996                     	;# 
   418  0997                     	;# 
   419  1E0F                     	;# 
   420  1E10                     	;# 
   421  1E11                     	;# 
   422  1E12                     	;# 
   423  1E13                     	;# 
   424  1E14                     	;# 
   425  1E15                     	;# 
   426  1E16                     	;# 
   427  1E17                     	;# 
   428  1E18                     	;# 
   429  1E19                     	;# 
   430  1E1A                     	;# 
   431  1E1B                     	;# 
   432  1E1C                     	;# 
   433  1E1D                     	;# 
   434  1E1E                     	;# 
   435  1E1F                     	;# 
   436  1E20                     	;# 
   437  1E21                     	;# 
   438  1E22                     	;# 
   439  1E23                     	;# 
   440  1E24                     	;# 
   441  1E25                     	;# 
   442  1E26                     	;# 
   443  1E27                     	;# 
   444  1E28                     	;# 
   445  1E29                     	;# 
   446  1E2A                     	;# 
   447  1E2B                     	;# 
   448  1E2C                     	;# 
   449  1E2D                     	;# 
   450  1E2E                     	;# 
   451  1E2F                     	;# 
   452  1E30                     	;# 
   453  1E31                     	;# 
   454  1E32                     	;# 
   455  1E33                     	;# 
   456  1E34                     	;# 
   457  1E35                     	;# 
   458  1E36                     	;# 
   459  1E37                     	;# 
   460  1E8F                     	;# 
   461  1E90                     	;# 
   462  1E91                     	;# 
   463  1E92                     	;# 
   464  1E93                     	;# 
   465  1E94                     	;# 
   466  1E95                     	;# 
   467  1E96                     	;# 
   468  1E97                     	;# 
   469  1E9C                     	;# 
   470  1E9D                     	;# 
   471  1E9E                     	;# 
   472  1EA1                     	;# 
   473  1EA2                     	;# 
   474  1EA3                     	;# 
   475  1EA4                     	;# 
   476  1EA9                     	;# 
   477  1EAA                     	;# 
   478  1EB1                     	;# 
   479  1EB2                     	;# 
   480  1EB8                     	;# 
   481  1EB9                     	;# 
   482  1EBA                     	;# 
   483  1EBB                     	;# 
   484  1EBC                     	;# 
   485  1EBD                     	;# 
   486  1EBE                     	;# 
   487  1EC3                     	;# 
   488  1EC5                     	;# 
   489  1EC6                     	;# 
   490  1EC7                     	;# 
   491  1EC8                     	;# 
   492  1EC9                     	;# 
   493  1ECA                     	;# 
   494  1ECB                     	;# 
   495  1ECB                     	;# 
   496  1ECB                     	;# 
   497  1ECC                     	;# 
   498  1ECC                     	;# 
   499  1ECC                     	;# 
   500  1F10                     	;# 
   501  1F11                     	;# 
   502  1F12                     	;# 
   503  1F14                     	;# 
   504  1F15                     	;# 
   505  1F1C                     	;# 
   506  1F1D                     	;# 
   507  1F1E                     	;# 
   508  1F1F                     	;# 
   509  1F20                     	;# 
   510  1F21                     	;# 
   511  1F22                     	;# 
   512  1F23                     	;# 
   513  1F24                     	;# 
   514  1F25                     	;# 
   515  1F26                     	;# 
   516  1F27                     	;# 
   517  1F38                     	;# 
   518  1F39                     	;# 
   519  1F3A                     	;# 
   520  1F3B                     	;# 
   521  1F3C                     	;# 
   522  1F3D                     	;# 
   523  1F3E                     	;# 
   524  1F3F                     	;# 
   525  1F43                     	;# 
   526  1F44                     	;# 
   527  1F45                     	;# 
   528  1F46                     	;# 
   529  1F47                     	;# 
   530  1F48                     	;# 
   531  1F49                     	;# 
   532  1F4A                     	;# 
   533  1F4E                     	;# 
   534  1F4F                     	;# 
   535  1F50                     	;# 
   536  1F51                     	;# 
   537  1F52                     	;# 
   538  1F53                     	;# 
   539  1F54                     	;# 
   540  1F55                     	;# 
   541  1FE4                     	;# 
   542  1FE5                     	;# 
   543  1FE6                     	;# 
   544  1FE7                     	;# 
   545  1FE8                     	;# 
   546  1FE8                     	;# 
   547  1FE9                     	;# 
   548  1FEA                     	;# 
   549  1FEB                     	;# 
   550  1FED                     	;# 
   551  1FEE                     	;# 
   552  1FEF                     	;# 
   553  0000                     	;# 
   554  0001                     	;# 
   555  0002                     	;# 
   556  0003                     	;# 
   557  0004                     	;# 
   558  0005                     	;# 
   559  0006                     	;# 
   560  0007                     	;# 
   561  0008                     	;# 
   562  0009                     	;# 
   563  000A                     	;# 
   564  000B                     	;# 
   565  000C                     	;# 
   566  000D                     	;# 
   567  000E                     	;# 
   568  0012                     	;# 
   569  0013                     	;# 
   570  0014                     	;# 
   571  0018                     	;# 
   572  0019                     	;# 
   573  001A                     	;# 
   574  008C                     	;# 
   575  008C                     	;# 
   576  008D                     	;# 
   577  008E                     	;# 
   578  008E                     	;# 
   579  008F                     	;# 
   580  0090                     	;# 
   581  0090                     	;# 
   582  0091                     	;# 
   583  0092                     	;# 
   584  0092                     	;# 
   585  0093                     	;# 
   586  0094                     	;# 
   587  0094                     	;# 
   588  0095                     	;# 
   589  0096                     	;# 
   590  0096                     	;# 
   591  0097                     	;# 
   592  0098                     	;# 
   593  0099                     	;# 
   594  009A                     	;# 
   595  009B                     	;# 
   596  009B                     	;# 
   597  009C                     	;# 
   598  009D                     	;# 
   599  009D                     	;# 
   600  009E                     	;# 
   601  009F                     	;# 
   602  010C                     	;# 
   603  010C                     	;# 
   604  010D                     	;# 
   605  010E                     	;# 
   606  010F                     	;# 
   607  010F                     	;# 
   608  0110                     	;# 
   609  0111                     	;# 
   610  0112                     	;# 
   611  0113                     	;# 
   612  0114                     	;# 
   613  0115                     	;# 
   614  0116                     	;# 
   615  0117                     	;# 
   616  0118                     	;# 
   617  0119                     	;# 
   618  0119                     	;# 
   619  0119                     	;# 
   620  011A                     	;# 
   621  011A                     	;# 
   622  011A                     	;# 
   623  011B                     	;# 
   624  011B                     	;# 
   625  011B                     	;# 
   626  011B                     	;# 
   627  011B                     	;# 
   628  011C                     	;# 
   629  011C                     	;# 
   630  011C                     	;# 
   631  011D                     	;# 
   632  011D                     	;# 
   633  011D                     	;# 
   634  011E                     	;# 
   635  011E                     	;# 
   636  011E                     	;# 
   637  011F                     	;# 
   638  011F                     	;# 
   639  011F                     	;# 
   640  011F                     	;# 
   641  011F                     	;# 
   642  018C                     	;# 
   643  018D                     	;# 
   644  018E                     	;# 
   645  018F                     	;# 
   646  0190                     	;# 
   647  0191                     	;# 
   648  0192                     	;# 
   649  0196                     	;# 
   650  0197                     	;# 
   651  0198                     	;# 
   652  0199                     	;# 
   653  019A                     	;# 
   654  019B                     	;# 
   655  019C                     	;# 
   656  020C                     	;# 
   657  020D                     	;# 
   658  020E                     	;# 
   659  020E                     	;# 
   660  020F                     	;# 
   661  020F                     	;# 
   662  0210                     	;# 
   663  0210                     	;# 
   664  0211                     	;# 
   665  0211                     	;# 
   666  0212                     	;# 
   667  0213                     	;# 
   668  0214                     	;# 
   669  0214                     	;# 
   670  0215                     	;# 
   671  0215                     	;# 
   672  0216                     	;# 
   673  0216                     	;# 
   674  0217                     	;# 
   675  0217                     	;# 
   676  0218                     	;# 
   677  0219                     	;# 
   678  021A                     	;# 
   679  021A                     	;# 
   680  021B                     	;# 
   681  021B                     	;# 
   682  021C                     	;# 
   683  021C                     	;# 
   684  021D                     	;# 
   685  021D                     	;# 
   686  021E                     	;# 
   687  021F                     	;# 
   688  028C                     	;# 
   689  028C                     	;# 
   690  028D                     	;# 
   691  028D                     	;# 
   692  028E                     	;# 
   693  028F                     	;# 
   694  0290                     	;# 
   695  0291                     	;# 
   696  0292                     	;# 
   697  0292                     	;# 
   698  0293                     	;# 
   699  0293                     	;# 
   700  0294                     	;# 
   701  0295                     	;# 
   702  0296                     	;# 
   703  0297                     	;# 
   704  0298                     	;# 
   705  0298                     	;# 
   706  0299                     	;# 
   707  0299                     	;# 
   708  029A                     	;# 
   709  029B                     	;# 
   710  029C                     	;# 
   711  029D                     	;# 
   712  029F                     	;# 
   713  030C                     	;# 
   714  030C                     	;# 
   715  030D                     	;# 
   716  030E                     	;# 
   717  030F                     	;# 
   718  0310                     	;# 
   719  0310                     	;# 
   720  0311                     	;# 
   721  0312                     	;# 
   722  0313                     	;# 
   723  0314                     	;# 
   724  0314                     	;# 
   725  0315                     	;# 
   726  0316                     	;# 
   727  0317                     	;# 
   728  0318                     	;# 
   729  0318                     	;# 
   730  0319                     	;# 
   731  031A                     	;# 
   732  031B                     	;# 
   733  038C                     	;# 
   734  038C                     	;# 
   735  038D                     	;# 
   736  038E                     	;# 
   737  0390                     	;# 
   738  0390                     	;# 
   739  0391                     	;# 
   740  0392                     	;# 
   741  048C                     	;# 
   742  048C                     	;# 
   743  048D                     	;# 
   744  048E                     	;# 
   745  048F                     	;# 
   746  048F                     	;# 
   747  0490                     	;# 
   748  0491                     	;# 
   749  0492                     	;# 
   750  0492                     	;# 
   751  0493                     	;# 
   752  0494                     	;# 
   753  0495                     	;# 
   754  0495                     	;# 
   755  0496                     	;# 
   756  0497                     	;# 
   757  0498                     	;# 
   758  0499                     	;# 
   759  049A                     	;# 
   760  049B                     	;# 
   761  049C                     	;# 
   762  049D                     	;# 
   763  058C                     	;# 
   764  058C                     	;# 
   765  058D                     	;# 
   766  058E                     	;# 
   767  058F                     	;# 
   768  058F                     	;# 
   769  0590                     	;# 
   770  0591                     	;# 
   771  0592                     	;# 
   772  0593                     	;# 
   773  059C                     	;# 
   774  059C                     	;# 
   775  059D                     	;# 
   776  059D                     	;# 
   777  059E                     	;# 
   778  059F                     	;# 
   779  060C                     	;# 
   780  060C                     	;# 
   781  060D                     	;# 
   782  060D                     	;# 
   783  060E                     	;# 
   784  060F                     	;# 
   785  0610                     	;# 
   786  0611                     	;# 
   787  0612                     	;# 
   788  0613                     	;# 
   789  0614                     	;# 
   790  0616                     	;# 
   791  0616                     	;# 
   792  0617                     	;# 
   793  0617                     	;# 
   794  0618                     	;# 
   795  0619                     	;# 
   796  061A                     	;# 
   797  061B                     	;# 
   798  061C                     	;# 
   799  061D                     	;# 
   800  061E                     	;# 
   801  070C                     	;# 
   802  070D                     	;# 
   803  070E                     	;# 
   804  070F                     	;# 
   805  0710                     	;# 
   806  0711                     	;# 
   807  0712                     	;# 
   808  0713                     	;# 
   809  0714                     	;# 
   810  0716                     	;# 
   811  0717                     	;# 
   812  0718                     	;# 
   813  0719                     	;# 
   814  071A                     	;# 
   815  071B                     	;# 
   816  071C                     	;# 
   817  071D                     	;# 
   818  071E                     	;# 
   819  0796                     	;# 
   820  0797                     	;# 
   821  0798                     	;# 
   822  0799                     	;# 
   823  079A                     	;# 
   824  079B                     	;# 
   825  079C                     	;# 
   826  079D                     	;# 
   827  080C                     	;# 
   828  080D                     	;# 
   829  080E                     	;# 
   830  080F                     	;# 
   831  0810                     	;# 
   832  0811                     	;# 
   833  0812                     	;# 
   834  0813                     	;# 
   835  0814                     	;# 
   836  081A                     	;# 
   837  081A                     	;# 
   838  081B                     	;# 
   839  081C                     	;# 
   840  081C                     	;# 
   841  081D                     	;# 
   842  081E                     	;# 
   843  081F                     	;# 
   844  088C                     	;# 
   845  088D                     	;# 
   846  088E                     	;# 
   847  088F                     	;# 
   848  0890                     	;# 
   849  0891                     	;# 
   850  0892                     	;# 
   851  0893                     	;# 
   852  0895                     	;# 
   853  0896                     	;# 
   854  0897                     	;# 
   855  0898                     	;# 
   856  0899                     	;# 
   857  089A                     	;# 
   858  089B                     	;# 
   859  090C                     	;# 
   860  090E                     	;# 
   861  090F                     	;# 
   862  091F                     	;# 
   863  098F                     	;# 
   864  098F                     	;# 
   865  0990                     	;# 
   866  0991                     	;# 
   867  0992                     	;# 
   868  0993                     	;# 
   869  0994                     	;# 
   870  0995                     	;# 
   871  0996                     	;# 
   872  0997                     	;# 
   873  1E0F                     	;# 
   874  1E10                     	;# 
   875  1E11                     	;# 
   876  1E12                     	;# 
   877  1E13                     	;# 
   878  1E14                     	;# 
   879  1E15                     	;# 
   880  1E16                     	;# 
   881  1E17                     	;# 
   882  1E18                     	;# 
   883  1E19                     	;# 
   884  1E1A                     	;# 
   885  1E1B                     	;# 
   886  1E1C                     	;# 
   887  1E1D                     	;# 
   888  1E1E                     	;# 
   889  1E1F                     	;# 
   890  1E20                     	;# 
   891  1E21                     	;# 
   892  1E22                     	;# 
   893  1E23                     	;# 
   894  1E24                     	;# 
   895  1E25                     	;# 
   896  1E26                     	;# 
   897  1E27                     	;# 
   898  1E28                     	;# 
   899  1E29                     	;# 
   900  1E2A                     	;# 
   901  1E2B                     	;# 
   902  1E2C                     	;# 
   903  1E2D                     	;# 
   904  1E2E                     	;# 
   905  1E2F                     	;# 
   906  1E30                     	;# 
   907  1E31                     	;# 
   908  1E32                     	;# 
   909  1E33                     	;# 
   910  1E34                     	;# 
   911  1E35                     	;# 
   912  1E36                     	;# 
   913  1E37                     	;# 
   914  1E8F                     	;# 
   915  1E90                     	;# 
   916  1E91                     	;# 
   917  1E92                     	;# 
   918  1E93                     	;# 
   919  1E94                     	;# 
   920  1E95                     	;# 
   921  1E96                     	;# 
   922  1E97                     	;# 
   923  1E9C                     	;# 
   924  1E9D                     	;# 
   925  1E9E                     	;# 
   926  1EA1                     	;# 
   927  1EA2                     	;# 
   928  1EA3                     	;# 
   929  1EA4                     	;# 
   930  1EA9                     	;# 
   931  1EAA                     	;# 
   932  1EB1                     	;# 
   933  1EB2                     	;# 
   934  1EB8                     	;# 
   935  1EB9                     	;# 
   936  1EBA                     	;# 
   937  1EBB                     	;# 
   938  1EBC                     	;# 
   939  1EBD                     	;# 
   940  1EBE                     	;# 
   941  1EC3                     	;# 
   942  1EC5                     	;# 
   943  1EC6                     	;# 
   944  1EC7                     	;# 
   945  1EC8                     	;# 
   946  1EC9                     	;# 
   947  1ECA                     	;# 
   948  1ECB                     	;# 
   949  1ECB                     	;# 
   950  1ECB                     	;# 
   951  1ECC                     	;# 
   952  1ECC                     	;# 
   953  1ECC                     	;# 
   954  1F10                     	;# 
   955  1F11                     	;# 
   956  1F12                     	;# 
   957  1F14                     	;# 
   958  1F15                     	;# 
   959  1F1C                     	;# 
   960  1F1D                     	;# 
   961  1F1E                     	;# 
   962  1F1F                     	;# 
   963  1F20                     	;# 
   964  1F21                     	;# 
   965  1F22                     	;# 
   966  1F23                     	;# 
   967  1F24                     	;# 
   968  1F25                     	;# 
   969  1F26                     	;# 
   970  1F27                     	;# 
   971  1F38                     	;# 
   972  1F39                     	;# 
   973  1F3A                     	;# 
   974  1F3B                     	;# 
   975  1F3C                     	;# 
   976  1F3D                     	;# 
   977  1F3E                     	;# 
   978  1F3F                     	;# 
   979  1F43                     	;# 
   980  1F44                     	;# 
   981  1F45                     	;# 
   982  1F46                     	;# 
   983  1F47                     	;# 
   984  1F48                     	;# 
   985  1F49                     	;# 
   986  1F4A                     	;# 
   987  1F4E                     	;# 
   988  1F4F                     	;# 
   989  1F50                     	;# 
   990  1F51                     	;# 
   991  1F52                     	;# 
   992  1F53                     	;# 
   993  1F54                     	;# 
   994  1F55                     	;# 
   995  1FE4                     	;# 
   996  1FE5                     	;# 
   997  1FE6                     	;# 
   998  1FE7                     	;# 
   999  1FE8                     	;# 
  1000  1FE8                     	;# 
  1001  1FE9                     	;# 
  1002  1FEA                     	;# 
  1003  1FEB                     	;# 
  1004  1FED                     	;# 
  1005  1FEE                     	;# 
  1006  1FEF                     	;# 
  1007  0000                     	;# 
  1008  0001                     	;# 
  1009  0002                     	;# 
  1010  0003                     	;# 
  1011  0004                     	;# 
  1012  0005                     	;# 
  1013  0006                     	;# 
  1014  0007                     	;# 
  1015  0008                     	;# 
  1016  0009                     	;# 
  1017  000A                     	;# 
  1018  000B                     	;# 
  1019  000C                     	;# 
  1020  000D                     	;# 
  1021  000E                     	;# 
  1022  0012                     	;# 
  1023  0013                     	;# 
  1024  0014                     	;# 
  1025  0018                     	;# 
  1026  0019                     	;# 
  1027  001A                     	;# 
  1028  008C                     	;# 
  1029  008C                     	;# 
  1030  008D                     	;# 
  1031  008E                     	;# 
  1032  008E                     	;# 
  1033  008F                     	;# 
  1034  0090                     	;# 
  1035  0090                     	;# 
  1036  0091                     	;# 
  1037  0092                     	;# 
  1038  0092                     	;# 
  1039  0093                     	;# 
  1040  0094                     	;# 
  1041  0094                     	;# 
  1042  0095                     	;# 
  1043  0096                     	;# 
  1044  0096                     	;# 
  1045  0097                     	;# 
  1046  0098                     	;# 
  1047  0099                     	;# 
  1048  009A                     	;# 
  1049  009B                     	;# 
  1050  009B                     	;# 
  1051  009C                     	;# 
  1052  009D                     	;# 
  1053  009D                     	;# 
  1054  009E                     	;# 
  1055  009F                     	;# 
  1056  010C                     	;# 
  1057  010C                     	;# 
  1058  010D                     	;# 
  1059  010E                     	;# 
  1060  010F                     	;# 
  1061  010F                     	;# 
  1062  0110                     	;# 
  1063  0111                     	;# 
  1064  0112                     	;# 
  1065  0113                     	;# 
  1066  0114                     	;# 
  1067  0115                     	;# 
  1068  0116                     	;# 
  1069  0117                     	;# 
  1070  0118                     	;# 
  1071  0119                     	;# 
  1072  0119                     	;# 
  1073  0119                     	;# 
  1074  011A                     	;# 
  1075  011A                     	;# 
  1076  011A                     	;# 
  1077  011B                     	;# 
  1078  011B                     	;# 
  1079  011B                     	;# 
  1080  011B                     	;# 
  1081  011B                     	;# 
  1082  011C                     	;# 
  1083  011C                     	;# 
  1084  011C                     	;# 
  1085  011D                     	;# 
  1086  011D                     	;# 
  1087  011D                     	;# 
  1088  011E                     	;# 
  1089  011E                     	;# 
  1090  011E                     	;# 
  1091  011F                     	;# 
  1092  011F                     	;# 
  1093  011F                     	;# 
  1094  011F                     	;# 
  1095  011F                     	;# 
  1096  018C                     	;# 
  1097  018D                     	;# 
  1098  018E                     	;# 
  1099  018F                     	;# 
  1100  0190                     	;# 
  1101  0191                     	;# 
  1102  0192                     	;# 
  1103  0196                     	;# 
  1104  0197                     	;# 
  1105  0198                     	;# 
  1106  0199                     	;# 
  1107  019A                     	;# 
  1108  019B                     	;# 
  1109  019C                     	;# 
  1110  020C                     	;# 
  1111  020D                     	;# 
  1112  020E                     	;# 
  1113  020E                     	;# 
  1114  020F                     	;# 
  1115  020F                     	;# 
  1116  0210                     	;# 
  1117  0210                     	;# 
  1118  0211                     	;# 
  1119  0211                     	;# 
  1120  0212                     	;# 
  1121  0213                     	;# 
  1122  0214                     	;# 
  1123  0214                     	;# 
  1124  0215                     	;# 
  1125  0215                     	;# 
  1126  0216                     	;# 
  1127  0216                     	;# 
  1128  0217                     	;# 
  1129  0217                     	;# 
  1130  0218                     	;# 
  1131  0219                     	;# 
  1132  021A                     	;# 
  1133  021A                     	;# 
  1134  021B                     	;# 
  1135  021B                     	;# 
  1136  021C                     	;# 
  1137  021C                     	;# 
  1138  021D                     	;# 
  1139  021D                     	;# 
  1140  021E                     	;# 
  1141  021F                     	;# 
  1142  028C                     	;# 
  1143  028C                     	;# 
  1144  028D                     	;# 
  1145  028D                     	;# 
  1146  028E                     	;# 
  1147  028F                     	;# 
  1148  0290                     	;# 
  1149  0291                     	;# 
  1150  0292                     	;# 
  1151  0292                     	;# 
  1152  0293                     	;# 
  1153  0293                     	;# 
  1154  0294                     	;# 
  1155  0295                     	;# 
  1156  0296                     	;# 
  1157  0297                     	;# 
  1158  0298                     	;# 
  1159  0298                     	;# 
  1160  0299                     	;# 
  1161  0299                     	;# 
  1162  029A                     	;# 
  1163  029B                     	;# 
  1164  029C                     	;# 
  1165  029D                     	;# 
  1166  029F                     	;# 
  1167  030C                     	;# 
  1168  030C                     	;# 
  1169  030D                     	;# 
  1170  030E                     	;# 
  1171  030F                     	;# 
  1172  0310                     	;# 
  1173  0310                     	;# 
  1174  0311                     	;# 
  1175  0312                     	;# 
  1176  0313                     	;# 
  1177  0314                     	;# 
  1178  0314                     	;# 
  1179  0315                     	;# 
  1180  0316                     	;# 
  1181  0317                     	;# 
  1182  0318                     	;# 
  1183  0318                     	;# 
  1184  0319                     	;# 
  1185  031A                     	;# 
  1186  031B                     	;# 
  1187  038C                     	;# 
  1188  038C                     	;# 
  1189  038D                     	;# 
  1190  038E                     	;# 
  1191  0390                     	;# 
  1192  0390                     	;# 
  1193  0391                     	;# 
  1194  0392                     	;# 
  1195  048C                     	;# 
  1196  048C                     	;# 
  1197  048D                     	;# 
  1198  048E                     	;# 
  1199  048F                     	;# 
  1200  048F                     	;# 
  1201  0490                     	;# 
  1202  0491                     	;# 
  1203  0492                     	;# 
  1204  0492                     	;# 
  1205  0493                     	;# 
  1206  0494                     	;# 
  1207  0495                     	;# 
  1208  0495                     	;# 
  1209  0496                     	;# 
  1210  0497                     	;# 
  1211  0498                     	;# 
  1212  0499                     	;# 
  1213  049A                     	;# 
  1214  049B                     	;# 
  1215  049C                     	;# 
  1216  049D                     	;# 
  1217  058C                     	;# 
  1218  058C                     	;# 
  1219  058D                     	;# 
  1220  058E                     	;# 
  1221  058F                     	;# 
  1222  058F                     	;# 
  1223  0590                     	;# 
  1224  0591                     	;# 
  1225  0592                     	;# 
  1226  0593                     	;# 
  1227  059C                     	;# 
  1228  059C                     	;# 
  1229  059D                     	;# 
  1230  059D                     	;# 
  1231  059E                     	;# 
  1232  059F                     	;# 
  1233  060C                     	;# 
  1234  060C                     	;# 
  1235  060D                     	;# 
  1236  060D                     	;# 
  1237  060E                     	;# 
  1238  060F                     	;# 
  1239  0610                     	;# 
  1240  0611                     	;# 
  1241  0612                     	;# 
  1242  0613                     	;# 
  1243  0614                     	;# 
  1244  0616                     	;# 
  1245  0616                     	;# 
  1246  0617                     	;# 
  1247  0617                     	;# 
  1248  0618                     	;# 
  1249  0619                     	;# 
  1250  061A                     	;# 
  1251  061B                     	;# 
  1252  061C                     	;# 
  1253  061D                     	;# 
  1254  061E                     	;# 
  1255  070C                     	;# 
  1256  070D                     	;# 
  1257  070E                     	;# 
  1258  070F                     	;# 
  1259  0710                     	;# 
  1260  0711                     	;# 
  1261  0712                     	;# 
  1262  0713                     	;# 
  1263  0714                     	;# 
  1264  0716                     	;# 
  1265  0717                     	;# 
  1266  0718                     	;# 
  1267  0719                     	;# 
  1268  071A                     	;# 
  1269  071B                     	;# 
  1270  071C                     	;# 
  1271  071D                     	;# 
  1272  071E                     	;# 
  1273  0796                     	;# 
  1274  0797                     	;# 
  1275  0798                     	;# 
  1276  0799                     	;# 
  1277  079A                     	;# 
  1278  079B                     	;# 
  1279  079C                     	;# 
  1280  079D                     	;# 
  1281  080C                     	;# 
  1282  080D                     	;# 
  1283  080E                     	;# 
  1284  080F                     	;# 
  1285  0810                     	;# 
  1286  0811                     	;# 
  1287  0812                     	;# 
  1288  0813                     	;# 
  1289  0814                     	;# 
  1290  081A                     	;# 
  1291  081A                     	;# 
  1292  081B                     	;# 
  1293  081C                     	;# 
  1294  081C                     	;# 
  1295  081D                     	;# 
  1296  081E                     	;# 
  1297  081F                     	;# 
  1298  088C                     	;# 
  1299  088D                     	;# 
  1300  088E                     	;# 
  1301  088F                     	;# 
  1302  0890                     	;# 
  1303  0891                     	;# 
  1304  0892                     	;# 
  1305  0893                     	;# 
  1306  0895                     	;# 
  1307  0896                     	;# 
  1308  0897                     	;# 
  1309  0898                     	;# 
  1310  0899                     	;# 
  1311  089A                     	;# 
  1312  089B                     	;# 
  1313  090C                     	;# 
  1314  090E                     	;# 
  1315  090F                     	;# 
  1316  091F                     	;# 
  1317  098F                     	;# 
  1318  098F                     	;# 
  1319  0990                     	;# 
  1320  0991                     	;# 
  1321  0992                     	;# 
  1322  0993                     	;# 
  1323  0994                     	;# 
  1324  0995                     	;# 
  1325  0996                     	;# 
  1326  0997                     	;# 
  1327  1E0F                     	;# 
  1328  1E10                     	;# 
  1329  1E11                     	;# 
  1330  1E12                     	;# 
  1331  1E13                     	;# 
  1332  1E14                     	;# 
  1333  1E15                     	;# 
  1334  1E16                     	;# 
  1335  1E17                     	;# 
  1336  1E18                     	;# 
  1337  1E19                     	;# 
  1338  1E1A                     	;# 
  1339  1E1B                     	;# 
  1340  1E1C                     	;# 
  1341  1E1D                     	;# 
  1342  1E1E                     	;# 
  1343  1E1F                     	;# 
  1344  1E20                     	;# 
  1345  1E21                     	;# 
  1346  1E22                     	;# 
  1347  1E23                     	;# 
  1348  1E24                     	;# 
  1349  1E25                     	;# 
  1350  1E26                     	;# 
  1351  1E27                     	;# 
  1352  1E28                     	;# 
  1353  1E29                     	;# 
  1354  1E2A                     	;# 
  1355  1E2B                     	;# 
  1356  1E2C                     	;# 
  1357  1E2D                     	;# 
  1358  1E2E                     	;# 
  1359  1E2F                     	;# 
  1360  1E30                     	;# 
  1361  1E31                     	;# 
  1362  1E32                     	;# 
  1363  1E33                     	;# 
  1364  1E34                     	;# 
  1365  1E35                     	;# 
  1366  1E36                     	;# 
  1367  1E37                     	;# 
  1368  1E8F                     	;# 
  1369  1E90                     	;# 
  1370  1E91                     	;# 
  1371  1E92                     	;# 
  1372  1E93                     	;# 
  1373  1E94                     	;# 
  1374  1E95                     	;# 
  1375  1E96                     	;# 
  1376  1E97                     	;# 
  1377  1E9C                     	;# 
  1378  1E9D                     	;# 
  1379  1E9E                     	;# 
  1380  1EA1                     	;# 
  1381  1EA2                     	;# 
  1382  1EA3                     	;# 
  1383  1EA4                     	;# 
  1384  1EA9                     	;# 
  1385  1EAA                     	;# 
  1386  1EB1                     	;# 
  1387  1EB2                     	;# 
  1388  1EB8                     	;# 
  1389  1EB9                     	;# 
  1390  1EBA                     	;# 
  1391  1EBB                     	;# 
  1392  1EBC                     	;# 
  1393  1EBD                     	;# 
  1394  1EBE                     	;# 
  1395  1EC3                     	;# 
  1396  1EC5                     	;# 
  1397  1EC6                     	;# 
  1398  1EC7                     	;# 
  1399  1EC8                     	;# 
  1400  1EC9                     	;# 
  1401  1ECA                     	;# 
  1402  1ECB                     	;# 
  1403  1ECB                     	;# 
  1404  1ECB                     	;# 
  1405  1ECC                     	;# 
  1406  1ECC                     	;# 
  1407  1ECC                     	;# 
  1408  1F10                     	;# 
  1409  1F11                     	;# 
  1410  1F12                     	;# 
  1411  1F14                     	;# 
  1412  1F15                     	;# 
  1413  1F1C                     	;# 
  1414  1F1D                     	;# 
  1415  1F1E                     	;# 
  1416  1F1F                     	;# 
  1417  1F20                     	;# 
  1418  1F21                     	;# 
  1419  1F22                     	;# 
  1420  1F23                     	;# 
  1421  1F24                     	;# 
  1422  1F25                     	;# 
  1423  1F26                     	;# 
  1424  1F27                     	;# 
  1425  1F38                     	;# 
  1426  1F39                     	;# 
  1427  1F3A                     	;# 
  1428  1F3B                     	;# 
  1429  1F3C                     	;# 
  1430  1F3D                     	;# 
  1431  1F3E                     	;# 
  1432  1F3F                     	;# 
  1433  1F43                     	;# 
  1434  1F44                     	;# 
  1435  1F45                     	;# 
  1436  1F46                     	;# 
  1437  1F47                     	;# 
  1438  1F48                     	;# 
  1439  1F49                     	;# 
  1440  1F4A                     	;# 
  1441  1F4E                     	;# 
  1442  1F4F                     	;# 
  1443  1F50                     	;# 
  1444  1F51                     	;# 
  1445  1F52                     	;# 
  1446  1F53                     	;# 
  1447  1F54                     	;# 
  1448  1F55                     	;# 
  1449  1FE4                     	;# 
  1450  1FE5                     	;# 
  1451  1FE6                     	;# 
  1452  1FE7                     	;# 
  1453  1FE8                     	;# 
  1454  1FE8                     	;# 
  1455  1FE9                     	;# 
  1456  1FEA                     	;# 
  1457  1FEB                     	;# 
  1458  1FED                     	;# 
  1459  1FEE                     	;# 
  1460  1FEF                     	;# 
  1461  0000                     	;# 
  1462  0001                     	;# 
  1463  0002                     	;# 
  1464  0003                     	;# 
  1465  0004                     	;# 
  1466  0005                     	;# 
  1467  0006                     	;# 
  1468  0007                     	;# 
  1469  0008                     	;# 
  1470  0009                     	;# 
  1471  000A                     	;# 
  1472  000B                     	;# 
  1473  000C                     	;# 
  1474  000D                     	;# 
  1475  000E                     	;# 
  1476  0012                     	;# 
  1477  0013                     	;# 
  1478  0014                     	;# 
  1479  0018                     	;# 
  1480  0019                     	;# 
  1481  001A                     	;# 
  1482  008C                     	;# 
  1483  008C                     	;# 
  1484  008D                     	;# 
  1485  008E                     	;# 
  1486  008E                     	;# 
  1487  008F                     	;# 
  1488  0090                     	;# 
  1489  0090                     	;# 
  1490  0091                     	;# 
  1491  0092                     	;# 
  1492  0092                     	;# 
  1493  0093                     	;# 
  1494  0094                     	;# 
  1495  0094                     	;# 
  1496  0095                     	;# 
  1497  0096                     	;# 
  1498  0096                     	;# 
  1499  0097                     	;# 
  1500  0098                     	;# 
  1501  0099                     	;# 
  1502  009A                     	;# 
  1503  009B                     	;# 
  1504  009B                     	;# 
  1505  009C                     	;# 
  1506  009D                     	;# 
  1507  009D                     	;# 
  1508  009E                     	;# 
  1509  009F                     	;# 
  1510  010C                     	;# 
  1511  010C                     	;# 
  1512  010D                     	;# 
  1513  010E                     	;# 
  1514  010F                     	;# 
  1515  010F                     	;# 
  1516  0110                     	;# 
  1517  0111                     	;# 
  1518  0112                     	;# 
  1519  0113                     	;# 
  1520  0114                     	;# 
  1521  0115                     	;# 
  1522  0116                     	;# 
  1523  0117                     	;# 
  1524  0118                     	;# 
  1525  0119                     	;# 
  1526  0119                     	;# 
  1527  0119                     	;# 
  1528  011A                     	;# 
  1529  011A                     	;# 
  1530  011A                     	;# 
  1531  011B                     	;# 
  1532  011B                     	;# 
  1533  011B                     	;# 
  1534  011B                     	;# 
  1535  011B                     	;# 
  1536  011C                     	;# 
  1537  011C                     	;# 
  1538  011C                     	;# 
  1539  011D                     	;# 
  1540  011D                     	;# 
  1541  011D                     	;# 
  1542  011E                     	;# 
  1543  011E                     	;# 
  1544  011E                     	;# 
  1545  011F                     	;# 
  1546  011F                     	;# 
  1547  011F                     	;# 
  1548  011F                     	;# 
  1549  011F                     	;# 
  1550  018C                     	;# 
  1551  018D                     	;# 
  1552  018E                     	;# 
  1553  018F                     	;# 
  1554  0190                     	;# 
  1555  0191                     	;# 
  1556  0192                     	;# 
  1557  0196                     	;# 
  1558  0197                     	;# 
  1559  0198                     	;# 
  1560  0199                     	;# 
  1561  019A                     	;# 
  1562  019B                     	;# 
  1563  019C                     	;# 
  1564  020C                     	;# 
  1565  020D                     	;# 
  1566  020E                     	;# 
  1567  020E                     	;# 
  1568  020F                     	;# 
  1569  020F                     	;# 
  1570  0210                     	;# 
  1571  0210                     	;# 
  1572  0211                     	;# 
  1573  0211                     	;# 
  1574  0212                     	;# 
  1575  0213                     	;# 
  1576  0214                     	;# 
  1577  0214                     	;# 
  1578  0215                     	;# 
  1579  0215                     	;# 
  1580  0216                     	;# 
  1581  0216                     	;# 
  1582  0217                     	;# 
  1583  0217                     	;# 
  1584  0218                     	;# 
  1585  0219                     	;# 
  1586  021A                     	;# 
  1587  021A                     	;# 
  1588  021B                     	;# 
  1589  021B                     	;# 
  1590  021C                     	;# 
  1591  021C                     	;# 
  1592  021D                     	;# 
  1593  021D                     	;# 
  1594  021E                     	;# 
  1595  021F                     	;# 
  1596  028C                     	;# 
  1597  028C                     	;# 
  1598  028D                     	;# 
  1599  028D                     	;# 
  1600  028E                     	;# 
  1601  028F                     	;# 
  1602  0290                     	;# 
  1603  0291                     	;# 
  1604  0292                     	;# 
  1605  0292                     	;# 
  1606  0293                     	;# 
  1607  0293                     	;# 
  1608  0294                     	;# 
  1609  0295                     	;# 
  1610  0296                     	;# 
  1611  0297                     	;# 
  1612  0298                     	;# 
  1613  0298                     	;# 
  1614  0299                     	;# 
  1615  0299                     	;# 
  1616  029A                     	;# 
  1617  029B                     	;# 
  1618  029C                     	;# 
  1619  029D                     	;# 
  1620  029F                     	;# 
  1621  030C                     	;# 
  1622  030C                     	;# 
  1623  030D                     	;# 
  1624  030E                     	;# 
  1625  030F                     	;# 
  1626  0310                     	;# 
  1627  0310                     	;# 
  1628  0311                     	;# 
  1629  0312                     	;# 
  1630  0313                     	;# 
  1631  0314                     	;# 
  1632  0314                     	;# 
  1633  0315                     	;# 
  1634  0316                     	;# 
  1635  0317                     	;# 
  1636  0318                     	;# 
  1637  0318                     	;# 
  1638  0319                     	;# 
  1639  031A                     	;# 
  1640  031B                     	;# 
  1641  038C                     	;# 
  1642  038C                     	;# 
  1643  038D                     	;# 
  1644  038E                     	;# 
  1645  0390                     	;# 
  1646  0390                     	;# 
  1647  0391                     	;# 
  1648  0392                     	;# 
  1649  048C                     	;# 
  1650  048C                     	;# 
  1651  048D                     	;# 
  1652  048E                     	;# 
  1653  048F                     	;# 
  1654  048F                     	;# 
  1655  0490                     	;# 
  1656  0491                     	;# 
  1657  0492                     	;# 
  1658  0492                     	;# 
  1659  0493                     	;# 
  1660  0494                     	;# 
  1661  0495                     	;# 
  1662  0495                     	;# 
  1663  0496                     	;# 
  1664  0497                     	;# 
  1665  0498                     	;# 
  1666  0499                     	;# 
  1667  049A                     	;# 
  1668  049B                     	;# 
  1669  049C                     	;# 
  1670  049D                     	;# 
  1671  058C                     	;# 
  1672  058C                     	;# 
  1673  058D                     	;# 
  1674  058E                     	;# 
  1675  058F                     	;# 
  1676  058F                     	;# 
  1677  0590                     	;# 
  1678  0591                     	;# 
  1679  0592                     	;# 
  1680  0593                     	;# 
  1681  059C                     	;# 
  1682  059C                     	;# 
  1683  059D                     	;# 
  1684  059D                     	;# 
  1685  059E                     	;# 
  1686  059F                     	;# 
  1687  060C                     	;# 
  1688  060C                     	;# 
  1689  060D                     	;# 
  1690  060D                     	;# 
  1691  060E                     	;# 
  1692  060F                     	;# 
  1693  0610                     	;# 
  1694  0611                     	;# 
  1695  0612                     	;# 
  1696  0613                     	;# 
  1697  0614                     	;# 
  1698  0616                     	;# 
  1699  0616                     	;# 
  1700  0617                     	;# 
  1701  0617                     	;# 
  1702  0618                     	;# 
  1703  0619                     	;# 
  1704  061A                     	;# 
  1705  061B                     	;# 
  1706  061C                     	;# 
  1707  061D                     	;# 
  1708  061E                     	;# 
  1709  070C                     	;# 
  1710  070D                     	;# 
  1711  070E                     	;# 
  1712  070F                     	;# 
  1713  0710                     	;# 
  1714  0711                     	;# 
  1715  0712                     	;# 
  1716  0713                     	;# 
  1717  0714                     	;# 
  1718  0716                     	;# 
  1719  0717                     	;# 
  1720  0718                     	;# 
  1721  0719                     	;# 
  1722  071A                     	;# 
  1723  071B                     	;# 
  1724  071C                     	;# 
  1725  071D                     	;# 
  1726  071E                     	;# 
  1727  0796                     	;# 
  1728  0797                     	;# 
  1729  0798                     	;# 
  1730  0799                     	;# 
  1731  079A                     	;# 
  1732  079B                     	;# 
  1733  079C                     	;# 
  1734  079D                     	;# 
  1735  080C                     	;# 
  1736  080D                     	;# 
  1737  080E                     	;# 
  1738  080F                     	;# 
  1739  0810                     	;# 
  1740  0811                     	;# 
  1741  0812                     	;# 
  1742  0813                     	;# 
  1743  0814                     	;# 
  1744  081A                     	;# 
  1745  081A                     	;# 
  1746  081B                     	;# 
  1747  081C                     	;# 
  1748  081C                     	;# 
  1749  081D                     	;# 
  1750  081E                     	;# 
  1751  081F                     	;# 
  1752  088C                     	;# 
  1753  088D                     	;# 
  1754  088E                     	;# 
  1755  088F                     	;# 
  1756  0890                     	;# 
  1757  0891                     	;# 
  1758  0892                     	;# 
  1759  0893                     	;# 
  1760  0895                     	;# 
  1761  0896                     	;# 
  1762  0897                     	;# 
  1763  0898                     	;# 
  1764  0899                     	;# 
  1765  089A                     	;# 
  1766  089B                     	;# 
  1767  090C                     	;# 
  1768  090E                     	;# 
  1769  090F                     	;# 
  1770  091F                     	;# 
  1771  098F                     	;# 
  1772  098F                     	;# 
  1773  0990                     	;# 
  1774  0991                     	;# 
  1775  0992                     	;# 
  1776  0993                     	;# 
  1777  0994                     	;# 
  1778  0995                     	;# 
  1779  0996                     	;# 
  1780  0997                     	;# 
  1781  1E0F                     	;# 
  1782  1E10                     	;# 
  1783  1E11                     	;# 
  1784  1E12                     	;# 
  1785  1E13                     	;# 
  1786  1E14                     	;# 
  1787  1E15                     	;# 
  1788  1E16                     	;# 
  1789  1E17                     	;# 
  1790  1E18                     	;# 
  1791  1E19                     	;# 
  1792  1E1A                     	;# 
  1793  1E1B                     	;# 
  1794  1E1C                     	;# 
  1795  1E1D                     	;# 
  1796  1E1E                     	;# 
  1797  1E1F                     	;# 
  1798  1E20                     	;# 
  1799  1E21                     	;# 
  1800  1E22                     	;# 
  1801  1E23                     	;# 
  1802  1E24                     	;# 
  1803  1E25                     	;# 
  1804  1E26                     	;# 
  1805  1E27                     	;# 
  1806  1E28                     	;# 
  1807  1E29                     	;# 
  1808  1E2A                     	;# 
  1809  1E2B                     	;# 
  1810  1E2C                     	;# 
  1811  1E2D                     	;# 
  1812  1E2E                     	;# 
  1813  1E2F                     	;# 
  1814  1E30                     	;# 
  1815  1E31                     	;# 
  1816  1E32                     	;# 
  1817  1E33                     	;# 
  1818  1E34                     	;# 
  1819  1E35                     	;# 
  1820  1E36                     	;# 
  1821  1E37                     	;# 
  1822  1E8F                     	;# 
  1823  1E90                     	;# 
  1824  1E91                     	;# 
  1825  1E92                     	;# 
  1826  1E93                     	;# 
  1827  1E94                     	;# 
  1828  1E95                     	;# 
  1829  1E96                     	;# 
  1830  1E97                     	;# 
  1831  1E9C                     	;# 
  1832  1E9D                     	;# 
  1833  1E9E                     	;# 
  1834  1EA1                     	;# 
  1835  1EA2                     	;# 
  1836  1EA3                     	;# 
  1837  1EA4                     	;# 
  1838  1EA9                     	;# 
  1839  1EAA                     	;# 
  1840  1EB1                     	;# 
  1841  1EB2                     	;# 
  1842  1EB8                     	;# 
  1843  1EB9                     	;# 
  1844  1EBA                     	;# 
  1845  1EBB                     	;# 
  1846  1EBC                     	;# 
  1847  1EBD                     	;# 
  1848  1EBE                     	;# 
  1849  1EC3                     	;# 
  1850  1EC5                     	;# 
  1851  1EC6                     	;# 
  1852  1EC7                     	;# 
  1853  1EC8                     	;# 
  1854  1EC9                     	;# 
  1855  1ECA                     	;# 
  1856  1ECB                     	;# 
  1857  1ECB                     	;# 
  1858  1ECB                     	;# 
  1859  1ECC                     	;# 
  1860  1ECC                     	;# 
  1861  1ECC                     	;# 
  1862  1F10                     	;# 
  1863  1F11                     	;# 
  1864  1F12                     	;# 
  1865  1F14                     	;# 
  1866  1F15                     	;# 
  1867  1F1C                     	;# 
  1868  1F1D                     	;# 
  1869  1F1E                     	;# 
  1870  1F1F                     	;# 
  1871  1F20                     	;# 
  1872  1F21                     	;# 
  1873  1F22                     	;# 
  1874  1F23                     	;# 
  1875  1F24                     	;# 
  1876  1F25                     	;# 
  1877  1F26                     	;# 
  1878  1F27                     	;# 
  1879  1F38                     	;# 
  1880  1F39                     	;# 
  1881  1F3A                     	;# 
  1882  1F3B                     	;# 
  1883  1F3C                     	;# 
  1884  1F3D                     	;# 
  1885  1F3E                     	;# 
  1886  1F3F                     	;# 
  1887  1F43                     	;# 
  1888  1F44                     	;# 
  1889  1F45                     	;# 
  1890  1F46                     	;# 
  1891  1F47                     	;# 
  1892  1F48                     	;# 
  1893  1F49                     	;# 
  1894  1F4A                     	;# 
  1895  1F4E                     	;# 
  1896  1F4F                     	;# 
  1897  1F50                     	;# 
  1898  1F51                     	;# 
  1899  1F52                     	;# 
  1900  1F53                     	;# 
  1901  1F54                     	;# 
  1902  1F55                     	;# 
  1903  1FE4                     	;# 
  1904  1FE5                     	;# 
  1905  1FE6                     	;# 
  1906  1FE7                     	;# 
  1907  1FE8                     	;# 
  1908  1FE8                     	;# 
  1909  1FE9                     	;# 
  1910  1FEA                     	;# 
  1911  1FEB                     	;# 
  1912  1FED                     	;# 
  1913  1FEE                     	;# 
  1914  1FEF                     	;# 
  1915  0000                     	;# 
  1916  0001                     	;# 
  1917  0002                     	;# 
  1918  0003                     	;# 
  1919  0004                     	;# 
  1920  0005                     	;# 
  1921  0006                     	;# 
  1922  0007                     	;# 
  1923  0008                     	;# 
  1924  0009                     	;# 
  1925  000A                     	;# 
  1926  000B                     	;# 
  1927  000C                     	;# 
  1928  000D                     	;# 
  1929  000E                     	;# 
  1930  0012                     	;# 
  1931  0013                     	;# 
  1932  0014                     	;# 
  1933  0018                     	;# 
  1934  0019                     	;# 
  1935  001A                     	;# 
  1936  008C                     	;# 
  1937  008C                     	;# 
  1938  008D                     	;# 
  1939  008E                     	;# 
  1940  008E                     	;# 
  1941  008F                     	;# 
  1942  0090                     	;# 
  1943  0090                     	;# 
  1944  0091                     	;# 
  1945  0092                     	;# 
  1946  0092                     	;# 
  1947  0093                     	;# 
  1948  0094                     	;# 
  1949  0094                     	;# 
  1950  0095                     	;# 
  1951  0096                     	;# 
  1952  0096                     	;# 
  1953  0097                     	;# 
  1954  0098                     	;# 
  1955  0099                     	;# 
  1956  009A                     	;# 
  1957  009B                     	;# 
  1958  009B                     	;# 
  1959  009C                     	;# 
  1960  009D                     	;# 
  1961  009D                     	;# 
  1962  009E                     	;# 
  1963  009F                     	;# 
  1964  010C                     	;# 
  1965  010C                     	;# 
  1966  010D                     	;# 
  1967  010E                     	;# 
  1968  010F                     	;# 
  1969  010F                     	;# 
  1970  0110                     	;# 
  1971  0111                     	;# 
  1972  0112                     	;# 
  1973  0113                     	;# 
  1974  0114                     	;# 
  1975  0115                     	;# 
  1976  0116                     	;# 
  1977  0117                     	;# 
  1978  0118                     	;# 
  1979  0119                     	;# 
  1980  0119                     	;# 
  1981  0119                     	;# 
  1982  011A                     	;# 
  1983  011A                     	;# 
  1984  011A                     	;# 
  1985  011B                     	;# 
  1986  011B                     	;# 
  1987  011B                     	;# 
  1988  011B                     	;# 
  1989  011B                     	;# 
  1990  011C                     	;# 
  1991  011C                     	;# 
  1992  011C                     	;# 
  1993  011D                     	;# 
  1994  011D                     	;# 
  1995  011D                     	;# 
  1996  011E                     	;# 
  1997  011E                     	;# 
  1998  011E                     	;# 
  1999  011F                     	;# 
  2000  011F                     	;# 
  2001  011F                     	;# 
  2002  011F                     	;# 
  2003  011F                     	;# 
  2004  018C                     	;# 
  2005  018D                     	;# 
  2006  018E                     	;# 
  2007  018F                     	;# 
  2008  0190                     	;# 
  2009  0191                     	;# 
  2010  0192                     	;# 
  2011  0196                     	;# 
  2012  0197                     	;# 
  2013  0198                     	;# 
  2014  0199                     	;# 
  2015  019A                     	;# 
  2016  019B                     	;# 
  2017  019C                     	;# 
  2018  020C                     	;# 
  2019  020D                     	;# 
  2020  020E                     	;# 
  2021  020E                     	;# 
  2022  020F                     	;# 
  2023  020F                     	;# 
  2024  0210                     	;# 
  2025  0210                     	;# 
  2026  0211                     	;# 
  2027  0211                     	;# 
  2028  0212                     	;# 
  2029  0213                     	;# 
  2030  0214                     	;# 
  2031  0214                     	;# 
  2032  0215                     	;# 
  2033  0215                     	;# 
  2034  0216                     	;# 
  2035  0216                     	;# 
  2036  0217                     	;# 
  2037  0217                     	;# 
  2038  0218                     	;# 
  2039  0219                     	;# 
  2040  021A                     	;# 
  2041  021A                     	;# 
  2042  021B                     	;# 
  2043  021B                     	;# 
  2044  021C                     	;# 
  2045  021C                     	;# 
  2046  021D                     	;# 
  2047  021D                     	;# 
  2048  021E                     	;# 
  2049  021F                     	;# 
  2050  028C                     	;# 
  2051  028C                     	;# 
  2052  028D                     	;# 
  2053  028D                     	;# 
  2054  028E                     	;# 
  2055  028F                     	;# 
  2056  0290                     	;# 
  2057  0291                     	;# 
  2058  0292                     	;# 
  2059  0292                     	;# 
  2060  0293                     	;# 
  2061  0293                     	;# 
  2062  0294                     	;# 
  2063  0295                     	;# 
  2064  0296                     	;# 
  2065  0297                     	;# 
  2066  0298                     	;# 
  2067  0298                     	;# 
  2068  0299                     	;# 
  2069  0299                     	;# 
  2070  029A                     	;# 
  2071  029B                     	;# 
  2072  029C                     	;# 
  2073  029D                     	;# 
  2074  029F                     	;# 
  2075  030C                     	;# 
  2076  030C                     	;# 
  2077  030D                     	;# 
  2078  030E                     	;# 
  2079  030F                     	;# 
  2080  0310                     	;# 
  2081  0310                     	;# 
  2082  0311                     	;# 
  2083  0312                     	;# 
  2084  0313                     	;# 
  2085  0314                     	;# 
  2086  0314                     	;# 
  2087  0315                     	;# 
  2088  0316                     	;# 
  2089  0317                     	;# 
  2090  0318                     	;# 
  2091  0318                     	;# 
  2092  0319                     	;# 
  2093  031A                     	;# 
  2094  031B                     	;# 
  2095  038C                     	;# 
  2096  038C                     	;# 
  2097  038D                     	;# 
  2098  038E                     	;# 
  2099  0390                     	;# 
  2100  0390                     	;# 
  2101  0391                     	;# 
  2102  0392                     	;# 
  2103  048C                     	;# 
  2104  048C                     	;# 
  2105  048D                     	;# 
  2106  048E                     	;# 
  2107  048F                     	;# 
  2108  048F                     	;# 
  2109  0490                     	;# 
  2110  0491                     	;# 
  2111  0492                     	;# 
  2112  0492                     	;# 
  2113  0493                     	;# 
  2114  0494                     	;# 
  2115  0495                     	;# 
  2116  0495                     	;# 
  2117  0496                     	;# 
  2118  0497                     	;# 
  2119  0498                     	;# 
  2120  0499                     	;# 
  2121  049A                     	;# 
  2122  049B                     	;# 
  2123  049C                     	;# 
  2124  049D                     	;# 
  2125  058C                     	;# 
  2126  058C                     	;# 
  2127  058D                     	;# 
  2128  058E                     	;# 
  2129  058F                     	;# 
  2130  058F                     	;# 
  2131  0590                     	;# 
  2132  0591                     	;# 
  2133  0592                     	;# 
  2134  0593                     	;# 
  2135  059C                     	;# 
  2136  059C                     	;# 
  2137  059D                     	;# 
  2138  059D                     	;# 
  2139  059E                     	;# 
  2140  059F                     	;# 
  2141  060C                     	;# 
  2142  060C                     	;# 
  2143  060D                     	;# 
  2144  060D                     	;# 
  2145  060E                     	;# 
  2146  060F                     	;# 
  2147  0610                     	;# 
  2148  0611                     	;# 
  2149  0612                     	;# 
  2150  0613                     	;# 
  2151  0614                     	;# 
  2152  0616                     	;# 
  2153  0616                     	;# 
  2154  0617                     	;# 
  2155  0617                     	;# 
  2156  0618                     	;# 
  2157  0619                     	;# 
  2158  061A                     	;# 
  2159  061B                     	;# 
  2160  061C                     	;# 
  2161  061D                     	;# 
  2162  061E                     	;# 
  2163  070C                     	;# 
  2164  070D                     	;# 
  2165  070E                     	;# 
  2166  070F                     	;# 
  2167  0710                     	;# 
  2168  0711                     	;# 
  2169  0712                     	;# 
  2170  0713                     	;# 
  2171  0714                     	;# 
  2172  0716                     	;# 
  2173  0717                     	;# 
  2174  0718                     	;# 
  2175  0719                     	;# 
  2176  071A                     	;# 
  2177  071B                     	;# 
  2178  071C                     	;# 
  2179  071D                     	;# 
  2180  071E                     	;# 
  2181  0796                     	;# 
  2182  0797                     	;# 
  2183  0798                     	;# 
  2184  0799                     	;# 
  2185  079A                     	;# 
  2186  079B                     	;# 
  2187  079C                     	;# 
  2188  079D                     	;# 
  2189  080C                     	;# 
  2190  080D                     	;# 
  2191  080E                     	;# 
  2192  080F                     	;# 
  2193  0810                     	;# 
  2194  0811                     	;# 
  2195  0812                     	;# 
  2196  0813                     	;# 
  2197  0814                     	;# 
  2198  081A                     	;# 
  2199  081A                     	;# 
  2200  081B                     	;# 
  2201  081C                     	;# 
  2202  081C                     	;# 
  2203  081D                     	;# 
  2204  081E                     	;# 
  2205  081F                     	;# 
  2206  088C                     	;# 
  2207  088D                     	;# 
  2208  088E                     	;# 
  2209  088F                     	;# 
  2210  0890                     	;# 
  2211  0891                     	;# 
  2212  0892                     	;# 
  2213  0893                     	;# 
  2214  0895                     	;# 
  2215  0896                     	;# 
  2216  0897                     	;# 
  2217  0898                     	;# 
  2218  0899                     	;# 
  2219  089A                     	;# 
  2220  089B                     	;# 
  2221  090C                     	;# 
  2222  090E                     	;# 
  2223  090F                     	;# 
  2224  091F                     	;# 
  2225  098F                     	;# 
  2226  098F                     	;# 
  2227  0990                     	;# 
  2228  0991                     	;# 
  2229  0992                     	;# 
  2230  0993                     	;# 
  2231  0994                     	;# 
  2232  0995                     	;# 
  2233  0996                     	;# 
  2234  0997                     	;# 
  2235  1E0F                     	;# 
  2236  1E10                     	;# 
  2237  1E11                     	;# 
  2238  1E12                     	;# 
  2239  1E13                     	;# 
  2240  1E14                     	;# 
  2241  1E15                     	;# 
  2242  1E16                     	;# 
  2243  1E17                     	;# 
  2244  1E18                     	;# 
  2245  1E19                     	;# 
  2246  1E1A                     	;# 
  2247  1E1B                     	;# 
  2248  1E1C                     	;# 
  2249  1E1D                     	;# 
  2250  1E1E                     	;# 
  2251  1E1F                     	;# 
  2252  1E20                     	;# 
  2253  1E21                     	;# 
  2254  1E22                     	;# 
  2255  1E23                     	;# 
  2256  1E24                     	;# 
  2257  1E25                     	;# 
  2258  1E26                     	;# 
  2259  1E27                     	;# 
  2260  1E28                     	;# 
  2261  1E29                     	;# 
  2262  1E2A                     	;# 
  2263  1E2B                     	;# 
  2264  1E2C                     	;# 
  2265  1E2D                     	;# 
  2266  1E2E                     	;# 
  2267  1E2F                     	;# 
  2268  1E30                     	;# 
  2269  1E31                     	;# 
  2270  1E32                     	;# 
  2271  1E33                     	;# 
  2272  1E34                     	;# 
  2273  1E35                     	;# 
  2274  1E36                     	;# 
  2275  1E37                     	;# 
  2276  1E8F                     	;# 
  2277  1E90                     	;# 
  2278  1E91                     	;# 
  2279  1E92                     	;# 
  2280  1E93                     	;# 
  2281  1E94                     	;# 
  2282  1E95                     	;# 
  2283  1E96                     	;# 
  2284  1E97                     	;# 
  2285  1E9C                     	;# 
  2286  1E9D                     	;# 
  2287  1E9E                     	;# 
  2288  1EA1                     	;# 
  2289  1EA2                     	;# 
  2290  1EA3                     	;# 
  2291  1EA4                     	;# 
  2292  1EA9                     	;# 
  2293  1EAA                     	;# 
  2294  1EB1                     	;# 
  2295  1EB2                     	;# 
  2296  1EB8                     	;# 
  2297  1EB9                     	;# 
  2298  1EBA                     	;# 
  2299  1EBB                     	;# 
  2300  1EBC                     	;# 
  2301  1EBD                     	;# 
  2302  1EBE                     	;# 
  2303  1EC3                     	;# 
  2304  1EC5                     	;# 
  2305  1EC6                     	;# 
  2306  1EC7                     	;# 
  2307  1EC8                     	;# 
  2308  1EC9                     	;# 
  2309  1ECA                     	;# 
  2310  1ECB                     	;# 
  2311  1ECB                     	;# 
  2312  1ECB                     	;# 
  2313  1ECC                     	;# 
  2314  1ECC                     	;# 
  2315  1ECC                     	;# 
  2316  1F10                     	;# 
  2317  1F11                     	;# 
  2318  1F12                     	;# 
  2319  1F14                     	;# 
  2320  1F15                     	;# 
  2321  1F1C                     	;# 
  2322  1F1D                     	;# 
  2323  1F1E                     	;# 
  2324  1F1F                     	;# 
  2325  1F20                     	;# 
  2326  1F21                     	;# 
  2327  1F22                     	;# 
  2328  1F23                     	;# 
  2329  1F24                     	;# 
  2330  1F25                     	;# 
  2331  1F26                     	;# 
  2332  1F27                     	;# 
  2333  1F38                     	;# 
  2334  1F39                     	;# 
  2335  1F3A                     	;# 
  2336  1F3B                     	;# 
  2337  1F3C                     	;# 
  2338  1F3D                     	;# 
  2339  1F3E                     	;# 
  2340  1F3F                     	;# 
  2341  1F43                     	;# 
  2342  1F44                     	;# 
  2343  1F45                     	;# 
  2344  1F46                     	;# 
  2345  1F47                     	;# 
  2346  1F48                     	;# 
  2347  1F49                     	;# 
  2348  1F4A                     	;# 
  2349  1F4E                     	;# 
  2350  1F4F                     	;# 
  2351  1F50                     	;# 
  2352  1F51                     	;# 
  2353  1F52                     	;# 
  2354  1F53                     	;# 
  2355  1F54                     	;# 
  2356  1F55                     	;# 
  2357  1FE4                     	;# 
  2358  1FE5                     	;# 
  2359  1FE6                     	;# 
  2360  1FE7                     	;# 
  2361  1FE8                     	;# 
  2362  1FE8                     	;# 
  2363  1FE9                     	;# 
  2364  1FEA                     	;# 
  2365  1FEB                     	;# 
  2366  1FED                     	;# 
  2367  1FEE                     	;# 
  2368  1FEF                     	;# 
  2369  0000                     	;# 
  2370  0001                     	;# 
  2371  0002                     	;# 
  2372  0003                     	;# 
  2373  0004                     	;# 
  2374  0005                     	;# 
  2375  0006                     	;# 
  2376  0007                     	;# 
  2377  0008                     	;# 
  2378  0009                     	;# 
  2379  000A                     	;# 
  2380  000B                     	;# 
  2381  000C                     	;# 
  2382  000D                     	;# 
  2383  000E                     	;# 
  2384  0012                     	;# 
  2385  0013                     	;# 
  2386  0014                     	;# 
  2387  0018                     	;# 
  2388  0019                     	;# 
  2389  001A                     	;# 
  2390  008C                     	;# 
  2391  008C                     	;# 
  2392  008D                     	;# 
  2393  008E                     	;# 
  2394  008E                     	;# 
  2395  008F                     	;# 
  2396  0090                     	;# 
  2397  0090                     	;# 
  2398  0091                     	;# 
  2399  0092                     	;# 
  2400  0092                     	;# 
  2401  0093                     	;# 
  2402  0094                     	;# 
  2403  0094                     	;# 
  2404  0095                     	;# 
  2405  0096                     	;# 
  2406  0096                     	;# 
  2407  0097                     	;# 
  2408  0098                     	;# 
  2409  0099                     	;# 
  2410  009A                     	;# 
  2411  009B                     	;# 
  2412  009B                     	;# 
  2413  009C                     	;# 
  2414  009D                     	;# 
  2415  009D                     	;# 
  2416  009E                     	;# 
  2417  009F                     	;# 
  2418  010C                     	;# 
  2419  010C                     	;# 
  2420  010D                     	;# 
  2421  010E                     	;# 
  2422  010F                     	;# 
  2423  010F                     	;# 
  2424  0110                     	;# 
  2425  0111                     	;# 
  2426  0112                     	;# 
  2427  0113                     	;# 
  2428  0114                     	;# 
  2429  0115                     	;# 
  2430  0116                     	;# 
  2431  0117                     	;# 
  2432  0118                     	;# 
  2433  0119                     	;# 
  2434  0119                     	;# 
  2435  0119                     	;# 
  2436  011A                     	;# 
  2437  011A                     	;# 
  2438  011A                     	;# 
  2439  011B                     	;# 
  2440  011B                     	;# 
  2441  011B                     	;# 
  2442  011B                     	;# 
  2443  011B                     	;# 
  2444  011C                     	;# 
  2445  011C                     	;# 
  2446  011C                     	;# 
  2447  011D                     	;# 
  2448  011D                     	;# 
  2449  011D                     	;# 
  2450  011E                     	;# 
  2451  011E                     	;# 
  2452  011E                     	;# 
  2453  011F                     	;# 
  2454  011F                     	;# 
  2455  011F                     	;# 
  2456  011F                     	;# 
  2457  011F                     	;# 
  2458  018C                     	;# 
  2459  018D                     	;# 
  2460  018E                     	;# 
  2461  018F                     	;# 
  2462  0190                     	;# 
  2463  0191                     	;# 
  2464  0192                     	;# 
  2465  0196                     	;# 
  2466  0197                     	;# 
  2467  0198                     	;# 
  2468  0199                     	;# 
  2469  019A                     	;# 
  2470  019B                     	;# 
  2471  019C                     	;# 
  2472  020C                     	;# 
  2473  020D                     	;# 
  2474  020E                     	;# 
  2475  020E                     	;# 
  2476  020F                     	;# 
  2477  020F                     	;# 
  2478  0210                     	;# 
  2479  0210                     	;# 
  2480  0211                     	;# 
  2481  0211                     	;# 
  2482  0212                     	;# 
  2483  0213                     	;# 
  2484  0214                     	;# 
  2485  0214                     	;# 
  2486  0215                     	;# 
  2487  0215                     	;# 
  2488  0216                     	;# 
  2489  0216                     	;# 
  2490  0217                     	;# 
  2491  0217                     	;# 
  2492  0218                     	;# 
  2493  0219                     	;# 
  2494  021A                     	;# 
  2495  021A                     	;# 
  2496  021B                     	;# 
  2497  021B                     	;# 
  2498  021C                     	;# 
  2499  021C                     	;# 
  2500  021D                     	;# 
  2501  021D                     	;# 
  2502  021E                     	;# 
  2503  021F                     	;# 
  2504  028C                     	;# 
  2505  028C                     	;# 
  2506  028D                     	;# 
  2507  028D                     	;# 
  2508  028E                     	;# 
  2509  028F                     	;# 
  2510  0290                     	;# 
  2511  0291                     	;# 
  2512  0292                     	;# 
  2513  0292                     	;# 
  2514  0293                     	;# 
  2515  0293                     	;# 
  2516  0294                     	;# 
  2517  0295                     	;# 
  2518  0296                     	;# 
  2519  0297                     	;# 
  2520  0298                     	;# 
  2521  0298                     	;# 
  2522  0299                     	;# 
  2523  0299                     	;# 
  2524  029A                     	;# 
  2525  029B                     	;# 
  2526  029C                     	;# 
  2527  029D                     	;# 
  2528  029F                     	;# 
  2529  030C                     	;# 
  2530  030C                     	;# 
  2531  030D                     	;# 
  2532  030E                     	;# 
  2533  030F                     	;# 
  2534  0310                     	;# 
  2535  0310                     	;# 
  2536  0311                     	;# 
  2537  0312                     	;# 
  2538  0313                     	;# 
  2539  0314                     	;# 
  2540  0314                     	;# 
  2541  0315                     	;# 
  2542  0316                     	;# 
  2543  0317                     	;# 
  2544  0318                     	;# 
  2545  0318                     	;# 
  2546  0319                     	;# 
  2547  031A                     	;# 
  2548  031B                     	;# 
  2549  038C                     	;# 
  2550  038C                     	;# 
  2551  038D                     	;# 
  2552  038E                     	;# 
  2553  0390                     	;# 
  2554  0390                     	;# 
  2555  0391                     	;# 
  2556  0392                     	;# 
  2557  048C                     	;# 
  2558  048C                     	;# 
  2559  048D                     	;# 
  2560  048E                     	;# 
  2561  048F                     	;# 
  2562  048F                     	;# 
  2563  0490                     	;# 
  2564  0491                     	;# 
  2565  0492                     	;# 
  2566  0492                     	;# 
  2567  0493                     	;# 
  2568  0494                     	;# 
  2569  0495                     	;# 
  2570  0495                     	;# 
  2571  0496                     	;# 
  2572  0497                     	;# 
  2573  0498                     	;# 
  2574  0499                     	;# 
  2575  049A                     	;# 
  2576  049B                     	;# 
  2577  049C                     	;# 
  2578  049D                     	;# 
  2579  058C                     	;# 
  2580  058C                     	;# 
  2581  058D                     	;# 
  2582  058E                     	;# 
  2583  058F                     	;# 
  2584  058F                     	;# 
  2585  0590                     	;# 
  2586  0591                     	;# 
  2587  0592                     	;# 
  2588  0593                     	;# 
  2589  059C                     	;# 
  2590  059C                     	;# 
  2591  059D                     	;# 
  2592  059D                     	;# 
  2593  059E                     	;# 
  2594  059F                     	;# 
  2595  060C                     	;# 
  2596  060C                     	;# 
  2597  060D                     	;# 
  2598  060D                     	;# 
  2599  060E                     	;# 
  2600  060F                     	;# 
  2601  0610                     	;# 
  2602  0611                     	;# 
  2603  0612                     	;# 
  2604  0613                     	;# 
  2605  0614                     	;# 
  2606  0616                     	;# 
  2607  0616                     	;# 
  2608  0617                     	;# 
  2609  0617                     	;# 
  2610  0618                     	;# 
  2611  0619                     	;# 
  2612  061A                     	;# 
  2613  061B                     	;# 
  2614  061C                     	;# 
  2615  061D                     	;# 
  2616  061E                     	;# 
  2617  070C                     	;# 
  2618  070D                     	;# 
  2619  070E                     	;# 
  2620  070F                     	;# 
  2621  0710                     	;# 
  2622  0711                     	;# 
  2623  0712                     	;# 
  2624  0713                     	;# 
  2625  0714                     	;# 
  2626  0716                     	;# 
  2627  0717                     	;# 
  2628  0718                     	;# 
  2629  0719                     	;# 
  2630  071A                     	;# 
  2631  071B                     	;# 
  2632  071C                     	;# 
  2633  071D                     	;# 
  2634  071E                     	;# 
  2635  0796                     	;# 
  2636  0797                     	;# 
  2637  0798                     	;# 
  2638  0799                     	;# 
  2639  079A                     	;# 
  2640  079B                     	;# 
  2641  079C                     	;# 
  2642  079D                     	;# 
  2643  080C                     	;# 
  2644  080D                     	;# 
  2645  080E                     	;# 
  2646  080F                     	;# 
  2647  0810                     	;# 
  2648  0811                     	;# 
  2649  0812                     	;# 
  2650  0813                     	;# 
  2651  0814                     	;# 
  2652  081A                     	;# 
  2653  081A                     	;# 
  2654  081B                     	;# 
  2655  081C                     	;# 
  2656  081C                     	;# 
  2657  081D                     	;# 
  2658  081E                     	;# 
  2659  081F                     	;# 
  2660  088C                     	;# 
  2661  088D                     	;# 
  2662  088E                     	;# 
  2663  088F                     	;# 
  2664  0890                     	;# 
  2665  0891                     	;# 
  2666  0892                     	;# 
  2667  0893                     	;# 
  2668  0895                     	;# 
  2669  0896                     	;# 
  2670  0897                     	;# 
  2671  0898                     	;# 
  2672  0899                     	;# 
  2673  089A                     	;# 
  2674  089B                     	;# 
  2675  090C                     	;# 
  2676  090E                     	;# 
  2677  090F                     	;# 
  2678  091F                     	;# 
  2679  098F                     	;# 
  2680  098F                     	;# 
  2681  0990                     	;# 
  2682  0991                     	;# 
  2683  0992                     	;# 
  2684  0993                     	;# 
  2685  0994                     	;# 
  2686  0995                     	;# 
  2687  0996                     	;# 
  2688  0997                     	;# 
  2689  1E0F                     	;# 
  2690  1E10                     	;# 
  2691  1E11                     	;# 
  2692  1E12                     	;# 
  2693  1E13                     	;# 
  2694  1E14                     	;# 
  2695  1E15                     	;# 
  2696  1E16                     	;# 
  2697  1E17                     	;# 
  2698  1E18                     	;# 
  2699  1E19                     	;# 
  2700  1E1A                     	;# 
  2701  1E1B                     	;# 
  2702  1E1C                     	;# 
  2703  1E1D                     	;# 
  2704  1E1E                     	;# 
  2705  1E1F                     	;# 
  2706  1E20                     	;# 
  2707  1E21                     	;# 
  2708  1E22                     	;# 
  2709  1E23                     	;# 
  2710  1E24                     	;# 
  2711  1E25                     	;# 
  2712  1E26                     	;# 
  2713  1E27                     	;# 
  2714  1E28                     	;# 
  2715  1E29                     	;# 
  2716  1E2A                     	;# 
  2717  1E2B                     	;# 
  2718  1E2C                     	;# 
  2719  1E2D                     	;# 
  2720  1E2E                     	;# 
  2721  1E2F                     	;# 
  2722  1E30                     	;# 
  2723  1E31                     	;# 
  2724  1E32                     	;# 
  2725  1E33                     	;# 
  2726  1E34                     	;# 
  2727  1E35                     	;# 
  2728  1E36                     	;# 
  2729  1E37                     	;# 
  2730  1E8F                     	;# 
  2731  1E90                     	;# 
  2732  1E91                     	;# 
  2733  1E92                     	;# 
  2734  1E93                     	;# 
  2735  1E94                     	;# 
  2736  1E95                     	;# 
  2737  1E96                     	;# 
  2738  1E97                     	;# 
  2739  1E9C                     	;# 
  2740  1E9D                     	;# 
  2741  1E9E                     	;# 
  2742  1EA1                     	;# 
  2743  1EA2                     	;# 
  2744  1EA3                     	;# 
  2745  1EA4                     	;# 
  2746  1EA9                     	;# 
  2747  1EAA                     	;# 
  2748  1EB1                     	;# 
  2749  1EB2                     	;# 
  2750  1EB8                     	;# 
  2751  1EB9                     	;# 
  2752  1EBA                     	;# 
  2753  1EBB                     	;# 
  2754  1EBC                     	;# 
  2755  1EBD                     	;# 
  2756  1EBE                     	;# 
  2757  1EC3                     	;# 
  2758  1EC5                     	;# 
  2759  1EC6                     	;# 
  2760  1EC7                     	;# 
  2761  1EC8                     	;# 
  2762  1EC9                     	;# 
  2763  1ECA                     	;# 
  2764  1ECB                     	;# 
  2765  1ECB                     	;# 
  2766  1ECB                     	;# 
  2767  1ECC                     	;# 
  2768  1ECC                     	;# 
  2769  1ECC                     	;# 
  2770  1F10                     	;# 
  2771  1F11                     	;# 
  2772  1F12                     	;# 
  2773  1F14                     	;# 
  2774  1F15                     	;# 
  2775  1F1C                     	;# 
  2776  1F1D                     	;# 
  2777  1F1E                     	;# 
  2778  1F1F                     	;# 
  2779  1F20                     	;# 
  2780  1F21                     	;# 
  2781  1F22                     	;# 
  2782  1F23                     	;# 
  2783  1F24                     	;# 
  2784  1F25                     	;# 
  2785  1F26                     	;# 
  2786  1F27                     	;# 
  2787  1F38                     	;# 
  2788  1F39                     	;# 
  2789  1F3A                     	;# 
  2790  1F3B                     	;# 
  2791  1F3C                     	;# 
  2792  1F3D                     	;# 
  2793  1F3E                     	;# 
  2794  1F3F                     	;# 
  2795  1F43                     	;# 
  2796  1F44                     	;# 
  2797  1F45                     	;# 
  2798  1F46                     	;# 
  2799  1F47                     	;# 
  2800  1F48                     	;# 
  2801  1F49                     	;# 
  2802  1F4A                     	;# 
  2803  1F4E                     	;# 
  2804  1F4F                     	;# 
  2805  1F50                     	;# 
  2806  1F51                     	;# 
  2807  1F52                     	;# 
  2808  1F53                     	;# 
  2809  1F54                     	;# 
  2810  1F55                     	;# 
  2811  1FE4                     	;# 
  2812  1FE5                     	;# 
  2813  1FE6                     	;# 
  2814  1FE7                     	;# 
  2815  1FE8                     	;# 
  2816  1FE8                     	;# 
  2817  1FE9                     	;# 
  2818  1FEA                     	;# 
  2819  1FEB                     	;# 
  2820  1FED                     	;# 
  2821  1FEE                     	;# 
  2822  1FEF                     	;# 
  2823  0000                     	;# 
  2824  0001                     	;# 
  2825  0002                     	;# 
  2826  0003                     	;# 
  2827  0004                     	;# 
  2828  0005                     	;# 
  2829  0006                     	;# 
  2830  0007                     	;# 
  2831  0008                     	;# 
  2832  0009                     	;# 
  2833  000A                     	;# 
  2834  000B                     	;# 
  2835  000C                     	;# 
  2836  000D                     	;# 
  2837  000E                     	;# 
  2838  0012                     	;# 
  2839  0013                     	;# 
  2840  0014                     	;# 
  2841  0018                     	;# 
  2842  0019                     	;# 
  2843  001A                     	;# 
  2844  008C                     	;# 
  2845  008C                     	;# 
  2846  008D                     	;# 
  2847  008E                     	;# 
  2848  008E                     	;# 
  2849  008F                     	;# 
  2850  0090                     	;# 
  2851  0090                     	;# 
  2852  0091                     	;# 
  2853  0092                     	;# 
  2854  0092                     	;# 
  2855  0093                     	;# 
  2856  0094                     	;# 
  2857  0094                     	;# 
  2858  0095                     	;# 
  2859  0096                     	;# 
  2860  0096                     	;# 
  2861  0097                     	;# 
  2862  0098                     	;# 
  2863  0099                     	;# 
  2864  009A                     	;# 
  2865  009B                     	;# 
  2866  009B                     	;# 
  2867  009C                     	;# 
  2868  009D                     	;# 
  2869  009D                     	;# 
  2870  009E                     	;# 
  2871  009F                     	;# 
  2872  010C                     	;# 
  2873  010C                     	;# 
  2874  010D                     	;# 
  2875  010E                     	;# 
  2876  010F                     	;# 
  2877  010F                     	;# 
  2878  0110                     	;# 
  2879  0111                     	;# 
  2880  0112                     	;# 
  2881  0113                     	;# 
  2882  0114                     	;# 
  2883  0115                     	;# 
  2884  0116                     	;# 
  2885  0117                     	;# 
  2886  0118                     	;# 
  2887  0119                     	;# 
  2888  0119                     	;# 
  2889  0119                     	;# 
  2890  011A                     	;# 
  2891  011A                     	;# 
  2892  011A                     	;# 
  2893  011B                     	;# 
  2894  011B                     	;# 
  2895  011B                     	;# 
  2896  011B                     	;# 
  2897  011B                     	;# 
  2898  011C                     	;# 
  2899  011C                     	;# 
  2900  011C                     	;# 
  2901  011D                     	;# 
  2902  011D                     	;# 
  2903  011D                     	;# 
  2904  011E                     	;# 
  2905  011E                     	;# 
  2906  011E                     	;# 
  2907  011F                     	;# 
  2908  011F                     	;# 
  2909  011F                     	;# 
  2910  011F                     	;# 
  2911  011F                     	;# 
  2912  018C                     	;# 
  2913  018D                     	;# 
  2914  018E                     	;# 
  2915  018F                     	;# 
  2916  0190                     	;# 
  2917  0191                     	;# 
  2918  0192                     	;# 
  2919  0196                     	;# 
  2920  0197                     	;# 
  2921  0198                     	;# 
  2922  0199                     	;# 
  2923  019A                     	;# 
  2924  019B                     	;# 
  2925  019C                     	;# 
  2926  020C                     	;# 
  2927  020D                     	;# 
  2928  020E                     	;# 
  2929  020E                     	;# 
  2930  020F                     	;# 
  2931  020F                     	;# 
  2932  0210                     	;# 
  2933  0210                     	;# 
  2934  0211                     	;# 
  2935  0211                     	;# 
  2936  0212                     	;# 
  2937  0213                     	;# 
  2938  0214                     	;# 
  2939  0214                     	;# 
  2940  0215                     	;# 
  2941  0215                     	;# 
  2942  0216                     	;# 
  2943  0216                     	;# 
  2944  0217                     	;# 
  2945  0217                     	;# 
  2946  0218                     	;# 
  2947  0219                     	;# 
  2948  021A                     	;# 
  2949  021A                     	;# 
  2950  021B                     	;# 
  2951  021B                     	;# 
  2952  021C                     	;# 
  2953  021C                     	;# 
  2954  021D                     	;# 
  2955  021D                     	;# 
  2956  021E                     	;# 
  2957  021F                     	;# 
  2958  028C                     	;# 
  2959  028C                     	;# 
  2960  028D                     	;# 
  2961  028D                     	;# 
  2962  028E                     	;# 
  2963  028F                     	;# 
  2964  0290                     	;# 
  2965  0291                     	;# 
  2966  0292                     	;# 
  2967  0292                     	;# 
  2968  0293                     	;# 
  2969  0293                     	;# 
  2970  0294                     	;# 
  2971  0295                     	;# 
  2972  0296                     	;# 
  2973  0297                     	;# 
  2974  0298                     	;# 
  2975  0298                     	;# 
  2976  0299                     	;# 
  2977  0299                     	;# 
  2978  029A                     	;# 
  2979  029B                     	;# 
  2980  029C                     	;# 
  2981  029D                     	;# 
  2982  029F                     	;# 
  2983  030C                     	;# 
  2984  030C                     	;# 
  2985  030D                     	;# 
  2986  030E                     	;# 
  2987  030F                     	;# 
  2988  0310                     	;# 
  2989  0310                     	;# 
  2990  0311                     	;# 
  2991  0312                     	;# 
  2992  0313                     	;# 
  2993  0314                     	;# 
  2994  0314                     	;# 
  2995  0315                     	;# 
  2996  0316                     	;# 
  2997  0317                     	;# 
  2998  0318                     	;# 
  2999  0318                     	;# 
  3000  0319                     	;# 
  3001  031A                     	;# 
  3002  031B                     	;# 
  3003  038C                     	;# 
  3004  038C                     	;# 
  3005  038D                     	;# 
  3006  038E                     	;# 
  3007  0390                     	;# 
  3008  0390                     	;# 
  3009  0391                     	;# 
  3010  0392                     	;# 
  3011  048C                     	;# 
  3012  048C                     	;# 
  3013  048D                     	;# 
  3014  048E                     	;# 
  3015  048F                     	;# 
  3016  048F                     	;# 
  3017  0490                     	;# 
  3018  0491                     	;# 
  3019  0492                     	;# 
  3020  0492                     	;# 
  3021  0493                     	;# 
  3022  0494                     	;# 
  3023  0495                     	;# 
  3024  0495                     	;# 
  3025  0496                     	;# 
  3026  0497                     	;# 
  3027  0498                     	;# 
  3028  0499                     	;# 
  3029  049A                     	;# 
  3030  049B                     	;# 
  3031  049C                     	;# 
  3032  049D                     	;# 
  3033  058C                     	;# 
  3034  058C                     	;# 
  3035  058D                     	;# 
  3036  058E                     	;# 
  3037  058F                     	;# 
  3038  058F                     	;# 
  3039  0590                     	;# 
  3040  0591                     	;# 
  3041  0592                     	;# 
  3042  0593                     	;# 
  3043  059C                     	;# 
  3044  059C                     	;# 
  3045  059D                     	;# 
  3046  059D                     	;# 
  3047  059E                     	;# 
  3048  059F                     	;# 
  3049  060C                     	;# 
  3050  060C                     	;# 
  3051  060D                     	;# 
  3052  060D                     	;# 
  3053  060E                     	;# 
  3054  060F                     	;# 
  3055  0610                     	;# 
  3056  0611                     	;# 
  3057  0612                     	;# 
  3058  0613                     	;# 
  3059  0614                     	;# 
  3060  0616                     	;# 
  3061  0616                     	;# 
  3062  0617                     	;# 
  3063  0617                     	;# 
  3064  0618                     	;# 
  3065  0619                     	;# 
  3066  061A                     	;# 
  3067  061B                     	;# 
  3068  061C                     	;# 
  3069  061D                     	;# 
  3070  061E                     	;# 
  3071  070C                     	;# 
  3072  070D                     	;# 
  3073  070E                     	;# 
  3074  070F                     	;# 
  3075  0710                     	;# 
  3076  0711                     	;# 
  3077  0712                     	;# 
  3078  0713                     	;# 
  3079  0714                     	;# 
  3080  0716                     	;# 
  3081  0717                     	;# 
  3082  0718                     	;# 
  3083  0719                     	;# 
  3084  071A                     	;# 
  3085  071B                     	;# 
  3086  071C                     	;# 
  3087  071D                     	;# 
  3088  071E                     	;# 
  3089  0796                     	;# 
  3090  0797                     	;# 
  3091  0798                     	;# 
  3092  0799                     	;# 
  3093  079A                     	;# 
  3094  079B                     	;# 
  3095  079C                     	;# 
  3096  079D                     	;# 
  3097  080C                     	;# 
  3098  080D                     	;# 
  3099  080E                     	;# 
  3100  080F                     	;# 
  3101  0810                     	;# 
  3102  0811                     	;# 
  3103  0812                     	;# 
  3104  0813                     	;# 
  3105  0814                     	;# 
  3106  081A                     	;# 
  3107  081A                     	;# 
  3108  081B                     	;# 
  3109  081C                     	;# 
  3110  081C                     	;# 
  3111  081D                     	;# 
  3112  081E                     	;# 
  3113  081F                     	;# 
  3114  088C                     	;# 
  3115  088D                     	;# 
  3116  088E                     	;# 
  3117  088F                     	;# 
  3118  0890                     	;# 
  3119  0891                     	;# 
  3120  0892                     	;# 
  3121  0893                     	;# 
  3122  0895                     	;# 
  3123  0896                     	;# 
  3124  0897                     	;# 
  3125  0898                     	;# 
  3126  0899                     	;# 
  3127  089A                     	;# 
  3128  089B                     	;# 
  3129  090C                     	;# 
  3130  090E                     	;# 
  3131  090F                     	;# 
  3132  091F                     	;# 
  3133  098F                     	;# 
  3134  098F                     	;# 
  3135  0990                     	;# 
  3136  0991                     	;# 
  3137  0992                     	;# 
  3138  0993                     	;# 
  3139  0994                     	;# 
  3140  0995                     	;# 
  3141  0996                     	;# 
  3142  0997                     	;# 
  3143  1E0F                     	;# 
  3144  1E10                     	;# 
  3145  1E11                     	;# 
  3146  1E12                     	;# 
  3147  1E13                     	;# 
  3148  1E14                     	;# 
  3149  1E15                     	;# 
  3150  1E16                     	;# 
  3151  1E17                     	;# 
  3152  1E18                     	;# 
  3153  1E19                     	;# 
  3154  1E1A                     	;# 
  3155  1E1B                     	;# 
  3156  1E1C                     	;# 
  3157  1E1D                     	;# 
  3158  1E1E                     	;# 
  3159  1E1F                     	;# 
  3160  1E20                     	;# 
  3161  1E21                     	;# 
  3162  1E22                     	;# 
  3163  1E23                     	;# 
  3164  1E24                     	;# 
  3165  1E25                     	;# 
  3166  1E26                     	;# 
  3167  1E27                     	;# 
  3168  1E28                     	;# 
  3169  1E29                     	;# 
  3170  1E2A                     	;# 
  3171  1E2B                     	;# 
  3172  1E2C                     	;# 
  3173  1E2D                     	;# 
  3174  1E2E                     	;# 
  3175  1E2F                     	;# 
  3176  1E30                     	;# 
  3177  1E31                     	;# 
  3178  1E32                     	;# 
  3179  1E33                     	;# 
  3180  1E34                     	;# 
  3181  1E35                     	;# 
  3182  1E36                     	;# 
  3183  1E37                     	;# 
  3184  1E8F                     	;# 
  3185  1E90                     	;# 
  3186  1E91                     	;# 
  3187  1E92                     	;# 
  3188  1E93                     	;# 
  3189  1E94                     	;# 
  3190  1E95                     	;# 
  3191  1E96                     	;# 
  3192  1E97                     	;# 
  3193  1E9C                     	;# 
  3194  1E9D                     	;# 
  3195  1E9E                     	;# 
  3196  1EA1                     	;# 
  3197  1EA2                     	;# 
  3198  1EA3                     	;# 
  3199  1EA4                     	;# 
  3200  1EA9                     	;# 
  3201  1EAA                     	;# 
  3202  1EB1                     	;# 
  3203  1EB2                     	;# 
  3204  1EB8                     	;# 
  3205  1EB9                     	;# 
  3206  1EBA                     	;# 
  3207  1EBB                     	;# 
  3208  1EBC                     	;# 
  3209  1EBD                     	;# 
  3210  1EBE                     	;# 
  3211  1EC3                     	;# 
  3212  1EC5                     	;# 
  3213  1EC6                     	;# 
  3214  1EC7                     	;# 
  3215  1EC8                     	;# 
  3216  1EC9                     	;# 
  3217  1ECA                     	;# 
  3218  1ECB                     	;# 
  3219  1ECB                     	;# 
  3220  1ECB                     	;# 
  3221  1ECC                     	;# 
  3222  1ECC                     	;# 
  3223  1ECC                     	;# 
  3224  1F10                     	;# 
  3225  1F11                     	;# 
  3226  1F12                     	;# 
  3227  1F14                     	;# 
  3228  1F15                     	;# 
  3229  1F1C                     	;# 
  3230  1F1D                     	;# 
  3231  1F1E                     	;# 
  3232  1F1F                     	;# 
  3233  1F20                     	;# 
  3234  1F21                     	;# 
  3235  1F22                     	;# 
  3236  1F23                     	;# 
  3237  1F24                     	;# 
  3238  1F25                     	;# 
  3239  1F26                     	;# 
  3240  1F27                     	;# 
  3241  1F38                     	;# 
  3242  1F39                     	;# 
  3243  1F3A                     	;# 
  3244  1F3B                     	;# 
  3245  1F3C                     	;# 
  3246  1F3D                     	;# 
  3247  1F3E                     	;# 
  3248  1F3F                     	;# 
  3249  1F43                     	;# 
  3250  1F44                     	;# 
  3251  1F45                     	;# 
  3252  1F46                     	;# 
  3253  1F47                     	;# 
  3254  1F48                     	;# 
  3255  1F49                     	;# 
  3256  1F4A                     	;# 
  3257  1F4E                     	;# 
  3258  1F4F                     	;# 
  3259  1F50                     	;# 
  3260  1F51                     	;# 
  3261  1F52                     	;# 
  3262  1F53                     	;# 
  3263  1F54                     	;# 
  3264  1F55                     	;# 
  3265  1FE4                     	;# 
  3266  1FE5                     	;# 
  3267  1FE6                     	;# 
  3268  1FE7                     	;# 
  3269  1FE8                     	;# 
  3270  1FE8                     	;# 
  3271  1FE9                     	;# 
  3272  1FEA                     	;# 
  3273  1FEB                     	;# 
  3274  1FED                     	;# 
  3275  1FEE                     	;# 
  3276  1FEF                     	;# 
  3277                           
  3278                           	psect	idataCOMMON
  3279  0C3F                     __pidataCOMMON:
  3280                           
  3281                           ;initializer for _I2C1_slaveWriteData
  3282  0C3F  3455               	retlw	85
  3283                           
  3284                           	psect	idataBANK1
  3285  0002                     __pidataBANK1:
  3286                           
  3287                           ;initializer for _SensorInterruptHandler
  3288  0002  343E               	retlw	low _DefaultSensorInterruptHandler
  3289  0003  340C               	retlw	high _DefaultSensorInterruptHandler
  3290                           
  3291                           	psect	idataBANK2
  3292  0C6F                     __pidataBANK2:
  3293                           
  3294                           ;initializer for _sensorAPI
  3295  0C6F  344D               	retlw	low _Power_Init
  3296  0C70  340D               	retlw	high _Power_Init
  3297  0C71  3443               	retlw	low _Power_Measure
  3298  0C72  340C               	retlw	high _Power_Measure
  3299  0C73  349B               	retlw	low _Power_Loop
  3300  0C74  340F               	retlw	high _Power_Loop
  3301  0C75  34FF               	retlw	low _Power_GetData
  3302  0C76  340E               	retlw	high _Power_GetData
  3303  0C77  3480               	retlw	low _Power_SetThreshold
  3304  0C78  3406               	retlw	high _Power_SetThreshold
  3305  0003                     _STATUSbits	set	3
  3306  0019                     _LATBbits	set	25
  3307  001A                     _LATCbits	set	26
  3308  001A                     _LATC	set	26
  3309  0019                     _LATB	set	25
  3310  0018                     _LATA	set	24
  3311  0014                     _TRISCbits	set	20
  3312  0014                     _TRISC	set	20
  3313  0013                     _TRISB	set	19
  3314  0012                     _TRISA	set	18
  3315  000B                     _INTCONbits	set	11
  3316  0013                     _TRISBbits	set	19
  3317  0090                     _ADERRL	set	144
  3318  0091                     _ADERRH	set	145
  3319  009B                     _ADPREVL	set	155
  3320  009C                     _ADPREVH	set	156
  3321  0094                     _ADFLTRL	set	148
  3322  0095                     _ADFLTRH	set	149
  3323  0096                     _ADACCL	set	150
  3324  0097                     _ADACCH	set	151
  3325  0099                     _ADCNT	set	153
  3326  009D                     _ADRESL	set	157
  3327  009E                     _ADRESH	set	158
  3328  009F                     _ADPCH	set	159
  3329  009A                     _ADRPT	set	154
  3330  0098                     _ADACCU	set	152
  3331  0093                     _ADSTPTH	set	147
  3332  0092                     _ADSTPTL	set	146
  3333  008F                     _ADUTHH	set	143
  3334  008E                     _ADUTHL	set	142
  3335  008D                     _ADLTHH	set	141
  3336  008C                     _ADLTHL	set	140
  3337  0112                     _ADCON1bits	set	274
  3338  0115                     _ADSTATbits	set	277
  3339  0113                     _ADCON2bits	set	275
  3340  0114                     _ADCON3bits	set	276
  3341  0111                     _ADCON0bits	set	273
  3342  0111                     _ADCON0	set	273
  3343  0118                     _ADCLK	set	280
  3344  0117                     _ADACT	set	279
  3345  0116                     _ADREF	set	278
  3346  0115                     _ADSTAT	set	277
  3347  0114                     _ADCON3	set	276
  3348  0113                     _ADCON2	set	275
  3349  0112                     _ADCON1	set	274
  3350  0110                     _ADPREH	set	272
  3351  010F                     _ADPREL	set	271
  3352  010E                     _ADCAP	set	270
  3353  010D                     _ADACQH	set	269
  3354  010C                     _ADACQL	set	268
  3355  0190                     _SSP1CON1bits	set	400
  3356  0191                     _SSP1CON2bits	set	401
  3357  018F                     _SSP1STATbits	set	399
  3358  018C                     _SSP1BUF	set	396
  3359  018D                     _SSP1ADD	set	397
  3360  018E                     _SSP1MSK	set	398
  3361  0192                     _SSP1CON3bits	set	402
  3362  0192                     _SSP1CON3	set	402
  3363  0191                     _SSP1CON2	set	401
  3364  0190                     _SSP1CON1	set	400
  3365  018F                     _SSP1STAT	set	399
  3366  070D                     _PIR1bits	set	1805
  3367  0717                     _PIE1bits	set	1815
  3368  0719                     _PIE3bits	set	1817
  3369  070F                     _PIR3bits	set	1807
  3370  0799                     _PMD3bits	set	1945
  3371  079D                     _PMD7	set	1949
  3372  079C                     _PMD6	set	1948
  3373  079B                     _PMD5	set	1947
  3374  079A                     _PMD4	set	1946
  3375  0799                     _PMD3	set	1945
  3376  0798                     _PMD2	set	1944
  3377  0797                     _PMD1	set	1943
  3378  0796                     _PMD0bits	set	1942
  3379  0796                     _PMD0	set	1942
  3380  079C                     _PMD6bits	set	1948
  3381  080C                     _WDTCON0bits	set	2060
  3382  080D                     _WDTCON1	set	2061
  3383  080C                     _WDTCON0	set	2060
  3384  0812                     _VREGCONbits	set	2066
  3385  088C                     _CPUDOZEbits	set	2188
  3386  0893                     _OSCFRQ	set	2195
  3387  088D                     _OSCCON1	set	2189
  3388  090C                     _FVRCON	set	2316
  3389  1EC6                     _SSP1DATPPS	set	7878
  3390  1EC5                     _SSP1CLKPPS	set	7877
  3391  1F4E                     _ANSELCbits	set	8014
  3392  1F4E                     _ANSELC	set	8014
  3393  1F43                     _ANSELB	set	8003
  3394  1F38                     _ANSELA	set	7992
  3395  1F1D                     _RB5PPS	set	7965
  3396  1F1F                     _RB7PPS	set	7967
  3397  1F43                     _ANSELBbits	set	8003
  3398                           
  3399                           	psect	cinit
  3400  002D                     start_initialization:	
  3401                           ; #config settings
  3402                           
  3403  002D                     __initialization:
  3404                           
  3405                           ; Initialize objects allocated to COMMON
  3406  002D  318C  243F  3180   	fcall	__pidataCOMMON	;fetch initializer
  3407  0030  00F9               	movwf	__pdataCOMMON& (0+127)
  3408                           
  3409                           ; Initialize objects allocated to BANK1
  3410  0031  0141               	movlb	1	; select bank1
  3411  0032  3180  2002  3180   	fcall	__pidataBANK1	;fetch initializer
  3412  0035  00D9               	movwf	__pdataBANK1& (0+127)
  3413  0036  3180  2003  3180   	fcall	__pidataBANK1+1	;fetch initializer
  3414  0039  00DA               	movwf	(__pdataBANK1+1)& (0+127)
  3415                           
  3416                           ; Initialize objects allocated to BANK2
  3417  003A  306F               	movlw	low __pidataBANK2
  3418  003B  0084               	movwf	4
  3419  003C  308C               	movlw	(high __pidataBANK2)| (0+128)
  3420  003D  0085               	movwf	5
  3421  003E  3066               	movlw	low __pdataBANK2
  3422  003F  0086               	movwf	6
  3423  0040  3001               	movlw	high __pdataBANK2
  3424  0041  0087               	movwf	7
  3425  0042  300A               	movlw	10
  3426  0043  318C  2453  3180   	fcall	init_ram
  3427                           
  3428                           ; Clear objects allocated to COMMON
  3429  0046  01F6               	clrf	__pbssCOMMON& (0+127)
  3430  0047  01F7               	clrf	(__pbssCOMMON+1)& (0+127)
  3431  0048  01F8               	clrf	(__pbssCOMMON+2)& (0+127)
  3432                           
  3433                           ; Clear objects allocated to BANK1
  3434  0049  30A0               	movlw	low __pbssBANK1
  3435  004A  0084               	movwf	4
  3436  004B  3000               	movlw	high __pbssBANK1
  3437  004C  0085               	movwf	5
  3438  004D  3026               	movlw	38
  3439  004E  318C  244D  3180   	fcall	clear_ram0
  3440                           
  3441                           ; Clear objects allocated to BANK2
  3442  0051  3020               	movlw	low __pbssBANK2
  3443  0052  0084               	movwf	4
  3444  0053  3001               	movlw	high __pbssBANK2
  3445  0054  0085               	movwf	5
  3446  0055  3046               	movlw	70
  3447  0056  318C  244D  3180   	fcall	clear_ram0
  3448  0059                     end_of_initialization:	
  3449                           ;End of C runtime variable initialization code
  3450                           
  3451  0059                     __end_of__initialization:
  3452  0059  107E               	bcf	int$flags,0	;clear compiler interrupt flag (level 1)
  3453  005A  0140               	movlb	0
  3454  005B  3183  2B0C         	ljmp	_main	;jump to C main() function
  3455                           
  3456                           	psect	bssCOMMON
  3457  0076                     __pbssCOMMON:
  3458  0076                     _txCnt:
  3459  0076                     	ds	1
  3460  0077                     _rxLen:
  3461  0077                     	ds	1
  3462  0078                     _cmdByte:
  3463  0078                     	ds	1
  3464                           
  3465                           	psect	dataCOMMON
  3466  0079                     __pdataCOMMON:
  3467  0079                     _I2C1_slaveWriteData:
  3468  0079                     	ds	1
  3469                           
  3470                           	psect	bssBANK1
  3471  00A0                     __pbssBANK1:
  3472  00A0                     _measurementData:
  3473  00A0                     	ds	6
  3474  00A6                     _floatBatThresholdLevel:
  3475  00A6                     	ds	3
  3476  00A9                     _floatVoltageLDRMeasured:
  3477  00A9                     	ds	3
  3478  00AC                     _floatVoltageBatMeasured:
  3479  00AC                     	ds	3
  3480  00AF                     _AfterMeasure:
  3481  00AF                     	ds	3
  3482  00B2                     _errno:
  3483  00B2                     	ds	2
  3484  00B4                     _batThresholdLevel:
  3485  00B4                     	ds	2
  3486  00B6                     _tempValue:
  3487  00B6                     	ds	2
  3488  00B8                     _ADCC_ADI_InterruptHandler:
  3489  00B8                     	ds	2
  3490  00BA                     _alertThreshold:
  3491  00BA                     	ds	1
  3492  00BB                     _batThresholdEnabled:
  3493  00BB                     	ds	1
  3494  00BC                     _MeasurementRunning:
  3495  00BC                     	ds	1
  3496  00BD                     _PollingMeasurement:
  3497  00BD                     	ds	1
  3498  00BE                     I2C1_StatusCallback@slaveWriteType:
  3499  00BE                     	ds	1
  3500  00BF                     _txLen:
  3501  00BF                     	ds	1
  3502  00C0                     _cmdReceived:
  3503  00C0                     	ds	1
  3504  00C1                     _voltageLDRMeasured:
  3505  00C1                     	ds	2
  3506  00C3                     _voltageBatMeasured:
  3507  00C3                     	ds	2
  3508  00C5                     _mDataLength:
  3509  00C5                     	ds	1
  3510                           
  3511                           	psect	dataBANK1
  3512  00D9                     __pdataBANK1:
  3513  00D9                     _SensorInterruptHandler:
  3514  00D9                     	ds	2
  3515                           
  3516                           	psect	bssBANK2
  3517  0120                     __pbssBANK2:
  3518  0120                     _i2c1_tx_buffer:
  3519  0120                     	ds	32
  3520  0140                     _i2c1_rx_buffer:
  3521  0140                     	ds	32
  3522  0160                     _mData:
  3523  0160                     	ds	6
  3524                           
  3525                           	psect	dataBANK2
  3526  0166                     __pdataBANK2:
  3527  0166                     _sensorAPI:
  3528  0166                     	ds	10
  3529                           
  3530                           	psect	inittext
  3531  0C53                     init_ram:
  3532  0C53  00FE               	movwf	btemp
  3533  0C54                     initloop:
  3534  0C54  0012               	moviw fsr0++
  3535  0C55  001E               	movwi fsr1++
  3536  0C56  0BFE               	decfsz	btemp,f
  3537  0C57  2C54               	goto	initloop
  3538  0C58  3400               	retlw	0
  3539                           
  3540                           	psect	clrtext
  3541  0C4D                     clear_ram0:	
  3542                           ;	Called with FSR0 containing the base address, and
  3543                           ;	WREG with the size to clear
  3544                           
  3545  0C4D  0064               	clrwdt	;clear the watchdog before getting into this loop
  3546  0C4E                     clrloop0:
  3547  0C4E  0180               	clrf	0	;clear RAM location pointed to by FSR
  3548  0C4F  3101               	addfsr 0,1
  3549  0C50  0B89               	decfsz	9,f	;Have we reached the end of clearing yet?
  3550  0C51  2C4E               	goto	clrloop0	;have we reached the end yet?
  3551  0C52  3400               	retlw	0	;all done for this memory range, return
  3552                           
  3553                           	psect	cstackBANK3
  3554  01A0                     __pcstackBANK3:
  3555  01A0                     main@data:
  3556                           
  3557                           ; 20 bytes @ 0x0
  3558  01A0                     	ds	20
  3559  01B4                     main@retries:
  3560                           
  3561                           ; 1 bytes @ 0x14
  3562  01B4                     	ds	1
  3563  01B5                     main@ack:
  3564                           
  3565                           ; 1 bytes @ 0x15
  3566  01B5                     	ds	1
  3567  01B6                     main@type:
  3568                           
  3569                           ; 1 bytes @ 0x16
  3570  01B6                     	ds	1
  3571  01B7                     main@mnr:
  3572                           
  3573                           ; 1 bytes @ 0x17
  3574  01B7                     	ds	1
  3575  01B8                     main@cmd:
  3576                           
  3577                           ; 1 bytes @ 0x18
  3578  01B8                     	ds	1
  3579  01B9                     main@len:
  3580                           
  3581                           ; 1 bytes @ 0x19
  3582  01B9                     	ds	1
  3583                           
  3584                           	psect	cstackBANK1
  3585  00C6                     __pcstackBANK1:
  3586  00C6                     ?_round:
  3587  00C6                     round@x:	
  3588                           ; 3 bytes @ 0x0
  3589                           
  3590                           
  3591                           ; 3 bytes @ 0x0
  3592  00C6                     	ds	3
  3593  00C9                     round@f:
  3594                           
  3595                           ; 3 bytes @ 0x3
  3596  00C9                     	ds	3
  3597  00CC                     ??_measure:
  3598                           
  3599                           ; 1 bytes @ 0x6
  3600  00CC                     	ds	2
  3601  00CE                     measure@databatvoltage:
  3602                           
  3603                           ; 2 bytes @ 0x8
  3604  00CE                     	ds	2
  3605  00D0                     measure@datasolvoltage:
  3606                           
  3607                           ; 2 bytes @ 0xA
  3608  00D0                     	ds	2
  3609  00D2                     _measure$2342:
  3610                           
  3611                           ; 3 bytes @ 0xC
  3612  00D2                     	ds	3
  3613  00D5                     ??_Power_Loop:
  3614                           
  3615                           ; 1 bytes @ 0xF
  3616  00D5                     	ds	2
  3617  00D7                     ??_main:
  3618                           
  3619                           ; 1 bytes @ 0x11
  3620  00D7                     	ds	2
  3621                           
  3622                           	psect	cstackCOMMON
  3623  0070                     __pcstackCOMMON:
  3624  0070                     ?_I2C1_StatusCallback:
  3625  0070                     ??_I2C1_StatusCallback:	
  3626                           ; 1 bytes @ 0x0
  3627                           
  3628  0070                     ?_DefaultSensorInterruptHandler:	
  3629                           ; 1 bytes @ 0x0
  3630                           
  3631  0070                     ??_DefaultSensorInterruptHandler:	
  3632                           ; 1 bytes @ 0x0
  3633                           
  3634  0070                     ?_ADCC_ISR:	
  3635                           ; 1 bytes @ 0x0
  3636                           
  3637  0070                     ??_ADCC_ISR:	
  3638                           ; 1 bytes @ 0x0
  3639                           
  3640  0070                     ?_PMD_Initialize:	
  3641                           ; 1 bytes @ 0x0
  3642                           
  3643  0070                     ?_OSCILLATOR_Initialize:	
  3644                           ; 1 bytes @ 0x0
  3645                           
  3646  0070                     ?_ADCC_DefaultInterruptHandler:	
  3647                           ; 1 bytes @ 0x0
  3648                           
  3649  0070                     ??_ADCC_DefaultInterruptHandler:	
  3650                           ; 1 bytes @ 0x0
  3651                           
  3652  0070                     ?_toggleInt:	
  3653                           ; 1 bytes @ 0x0
  3654                           
  3655  0070                     ?_I2C1_Initialize:	
  3656                           ; 1 bytes @ 0x0
  3657                           
  3658  0070                     ?_I2C1_ISR:	
  3659                           ; 1 bytes @ 0x0
  3660                           
  3661  0070                     ?_I2C1_CommandReceived:	
  3662                           ; 1 bytes @ 0x0
  3663                           
  3664  0070                     ?_I2C1_TxBufferEmpty:	
  3665                           ; 1 bytes @ 0x0
  3666                           
  3667  0070                     ?_I2C1_GetCommand:	
  3668                           ; 1 bytes @ 0x0
  3669                           
  3670  0070                     ?_Interrupt_Handler:	
  3671                           ; 1 bytes @ 0x0
  3672                           
  3673  0070                     ?_SYSTEM_Initialize:	
  3674                           ; 1 bytes @ 0x0
  3675                           
  3676  0070                     ?_ADC_Init:	
  3677                           ; 1 bytes @ 0x0
  3678                           
  3679  0070                     ?_WDT_Init:	
  3680                           ; 1 bytes @ 0x0
  3681                           
  3682  0070                     ?_generateIntPower:	
  3683                           ; 1 bytes @ 0x0
  3684                           
  3685  0070                     ?_measure:	
  3686                           ; 1 bytes @ 0x0
  3687                           
  3688  0070                     ?_ledBlink:	
  3689                           ; 1 bytes @ 0x0
  3690                           
  3691  0070                     ?_enterSleep:	
  3692                           ; 1 bytes @ 0x0
  3693                           
  3694  0070                     ?_Power_Init:	
  3695                           ; 1 bytes @ 0x0
  3696                           
  3697  0070                     ?_Power_Measure:	
  3698                           ; 1 bytes @ 0x0
  3699                           
  3700  0070                     ?_Power_Loop:	
  3701                           ; 1 bytes @ 0x0
  3702                           
  3703  0070                     ?_main:	
  3704                           ; 1 bytes @ 0x0
  3705                           
  3706                           
  3707                           ; 1 bytes @ 0x0
  3708  0070                     	ds	1
  3709  0071                     I2C1_StatusCallback@i2c_bus_state:
  3710                           
  3711                           ; 1 bytes @ 0x1
  3712  0071                     	ds	1
  3713  0072                     ??_I2C1_ISR:
  3714                           
  3715                           ; 1 bytes @ 0x2
  3716  0072                     	ds	1
  3717  0073                     I2C1_ISR@i2c_data:
  3718                           
  3719                           ; 1 bytes @ 0x3
  3720  0073                     	ds	1
  3721  0074                     ??_PMD_Initialize:
  3722  0074                     ??_OSCILLATOR_Initialize:	
  3723                           ; 1 bytes @ 0x4
  3724                           
  3725  0074                     ??_toggleInt:	
  3726                           ; 1 bytes @ 0x4
  3727                           
  3728  0074                     ??_frexp:	
  3729                           ; 1 bytes @ 0x4
  3730                           
  3731  0074                     ??_I2C1_Initialize:	
  3732                           ; 1 bytes @ 0x4
  3733                           
  3734  0074                     ??_I2C1_CommandReceived:	
  3735                           ; 1 bytes @ 0x4
  3736                           
  3737  0074                     ??_I2C1_TxBufferEmpty:	
  3738                           ; 1 bytes @ 0x4
  3739                           
  3740  0074                     ??_I2C1_GetCommand:	
  3741                           ; 1 bytes @ 0x4
  3742                           
  3743  0074                     ?_I2C1_GetCommandData:	
  3744                           ; 1 bytes @ 0x4
  3745                           
  3746  0074                     ??_Interrupt_Handler:	
  3747                           ; 1 bytes @ 0x4
  3748                           
  3749  0074                     ??_ADCC_GetSingleConversion:	
  3750                           ; 1 bytes @ 0x4
  3751                           
  3752  0074                     ??_ADC_Init:	
  3753                           ; 1 bytes @ 0x4
  3754                           
  3755  0074                     ??_WDT_Init:	
  3756                           ; 1 bytes @ 0x4
  3757                           
  3758  0074                     ??_generateIntPower:	
  3759                           ; 1 bytes @ 0x4
  3760                           
  3761  0074                     ??_ledBlink:	
  3762                           ; 1 bytes @ 0x4
  3763                           
  3764  0074                     ??_enterSleep:	
  3765                           ; 1 bytes @ 0x4
  3766                           
  3767  0074                     ??_Power_Measure:	
  3768                           ; 1 bytes @ 0x4
  3769                           
  3770  0074                     ?_Power_GetData:	
  3771                           ; 1 bytes @ 0x4
  3772                           
  3773  0074                     ??___ftge:	
  3774                           ; 1 bytes @ 0x4
  3775                           
  3776  0074                     ??___lwtoft:	
  3777                           ; 1 bytes @ 0x4
  3778                           
  3779  0074                     I2C1_Initialize@slave_address:	
  3780                           ; 1 bytes @ 0x4
  3781                           
  3782  0074                     I2C1_GetCommandData@len:	
  3783                           ; 1 bytes @ 0x4
  3784                           
  3785  0074                     ADCC_GetSingleConversion@channel:	
  3786                           ; 1 bytes @ 0x4
  3787                           
  3788  0074                     Power_GetData@data:	
  3789                           ; 1 bytes @ 0x4
  3790                           
  3791                           
  3792                           ; 1 bytes @ 0x4
  3793  0074                     	ds	1
  3794  0075                     ??_I2C1_GetCommandData:
  3795  0075                     ??_SYSTEM_Initialize:	
  3796                           ; 1 bytes @ 0x5
  3797                           
  3798  0075                     I2C1_GetCommand@cmd:	
  3799                           ; 1 bytes @ 0x5
  3800                           
  3801  0075                     SYSTEM_Initialize@slave_address:	
  3802                           ; 1 bytes @ 0x5
  3803                           
  3804  0075                     Power_GetData@length:	
  3805                           ; 1 bytes @ 0x5
  3806                           
  3807                           
  3808                           ; 1 bytes @ 0x5
  3809  0075                     	ds	1
  3810  0076                     ??_round:
  3811  0076                     ??_Power_Init:	
  3812                           ; 1 bytes @ 0x6
  3813                           
  3814  0076                     ??___ftsub:	
  3815                           ; 1 bytes @ 0x6
  3816                           
  3817                           
  3818                           	psect	cstackBANK0
  3819  0020                     __pcstackBANK0:	
  3820                           ; 1 bytes @ 0x6
  3821                           
  3822  0020                     ?___ftge:
  3823  0020                     ?_I2C1_SetTransmitData:	
  3824                           ; 1 bit 
  3825                           
  3826  0020                     ??_Power_GetData:	
  3827                           ; 1 bytes @ 0x0
  3828                           
  3829  0020                     ?_ADCC_GetSingleConversion:	
  3830                           ; 1 bytes @ 0x0
  3831                           
  3832  0020                     ?___ftpack:	
  3833                           ; 2 bytes @ 0x0
  3834                           
  3835  0020                     ?_frexp:	
  3836                           ; 3 bytes @ 0x0
  3837                           
  3838  0020                     ?___fttol:	
  3839                           ; 3 bytes @ 0x0
  3840                           
  3841  0020                     I2C1_GetCommandData@data:	
  3842                           ; 4 bytes @ 0x0
  3843                           
  3844  0020                     I2C1_SetTransmitData@len:	
  3845                           ; 1 bytes @ 0x0
  3846                           
  3847  0020                     ___ftpack@arg:	
  3848                           ; 1 bytes @ 0x0
  3849                           
  3850  0020                     ___ftge@ff1:	
  3851                           ; 3 bytes @ 0x0
  3852                           
  3853  0020                     ___fttol@f1:	
  3854                           ; 3 bytes @ 0x0
  3855                           
  3856  0020                     frexp@value:	
  3857                           ; 3 bytes @ 0x0
  3858                           
  3859                           
  3860                           ; 3 bytes @ 0x0
  3861  0020                     	ds	1
  3862  0021                     ??_I2C1_SetTransmitData:
  3863                           
  3864                           ; 1 bytes @ 0x1
  3865  0021                     	ds	2
  3866  0023                     I2C1_SetTransmitData@data:
  3867  0023                     ___ftpack@exp:	
  3868                           ; 1 bytes @ 0x3
  3869                           
  3870  0023                     frexp@eptr:	
  3871                           ; 1 bytes @ 0x3
  3872                           
  3873  0023                     ___ftge@ff2:	
  3874                           ; 1 bytes @ 0x3
  3875                           
  3876                           
  3877                           ; 3 bytes @ 0x3
  3878  0023                     	ds	1
  3879  0024                     ??___fttol:
  3880  0024                     ___ftpack@sign:	
  3881                           ; 1 bytes @ 0x4
  3882                           
  3883                           
  3884                           ; 1 bytes @ 0x4
  3885  0024                     	ds	1
  3886  0025                     ??___ftpack:
  3887                           
  3888                           ; 1 bytes @ 0x5
  3889  0025                     	ds	3
  3890  0028                     ?___ftadd:
  3891  0028                     ?___lwtoft:	
  3892                           ; 3 bytes @ 0x8
  3893                           
  3894  0028                     ___fttol@sign1:	
  3895                           ; 3 bytes @ 0x8
  3896                           
  3897  0028                     ___lwtoft@c:	
  3898                           ; 1 bytes @ 0x8
  3899                           
  3900  0028                     ___ftadd@f1:	
  3901                           ; 2 bytes @ 0x8
  3902                           
  3903                           
  3904                           ; 3 bytes @ 0x8
  3905  0028                     	ds	1
  3906  0029                     ___fttol@lval:
  3907                           
  3908                           ; 4 bytes @ 0x9
  3909  0029                     	ds	2
  3910  002B                     ?___ftdiv:
  3911  002B                     ___ftadd@f2:	
  3912                           ; 3 bytes @ 0xB
  3913                           
  3914  002B                     ___ftdiv@f2:	
  3915                           ; 3 bytes @ 0xB
  3916                           
  3917                           
  3918                           ; 3 bytes @ 0xB
  3919  002B                     	ds	2
  3920  002D                     ___fttol@exp1:
  3921                           
  3922                           ; 1 bytes @ 0xD
  3923  002D                     	ds	1
  3924  002E                     ??___ftadd:
  3925  002E                     ?___altoft:	
  3926                           ; 1 bytes @ 0xE
  3927                           
  3928  002E                     ___ftdiv@f1:	
  3929                           ; 3 bytes @ 0xE
  3930                           
  3931  002E                     ___altoft@c:	
  3932                           ; 3 bytes @ 0xE
  3933                           
  3934                           
  3935                           ; 4 bytes @ 0xE
  3936  002E                     	ds	3
  3937  0031                     ??___ftdiv:
  3938                           
  3939                           ; 1 bytes @ 0x11
  3940  0031                     	ds	1
  3941  0032                     ??___altoft:
  3942  0032                     ___ftadd@sign:	
  3943                           ; 1 bytes @ 0x12
  3944                           
  3945                           
  3946                           ; 1 bytes @ 0x12
  3947  0032                     	ds	1
  3948  0033                     ___ftadd@exp2:
  3949                           
  3950                           ; 1 bytes @ 0x13
  3951  0033                     	ds	1
  3952  0034                     ___altoft@exp:
  3953  0034                     ___ftadd@exp1:	
  3954                           ; 1 bytes @ 0x14
  3955                           
  3956                           
  3957                           ; 1 bytes @ 0x14
  3958  0034                     	ds	1
  3959  0035                     ___altoft@sign:
  3960  0035                     ___ftdiv@cntr:	
  3961                           ; 1 bytes @ 0x15
  3962                           
  3963                           
  3964                           ; 1 bytes @ 0x15
  3965  0035                     	ds	1
  3966  0036                     ?_trunc:
  3967  0036                     ___ftdiv@exp:	
  3968                           ; 3 bytes @ 0x16
  3969                           
  3970  0036                     trunc@x:	
  3971                           ; 1 bytes @ 0x16
  3972                           
  3973                           
  3974                           ; 3 bytes @ 0x16
  3975  0036                     	ds	1
  3976  0037                     ___ftdiv@f3:
  3977                           
  3978                           ; 3 bytes @ 0x17
  3979  0037                     	ds	2
  3980  0039                     ??_trunc:
  3981                           
  3982                           ; 1 bytes @ 0x19
  3983  0039                     	ds	1
  3984  003A                     ___ftdiv@sign:
  3985  003A                     trunc@i:	
  3986                           ; 1 bytes @ 0x1A
  3987                           
  3988                           
  3989                           ; 3 bytes @ 0x1A
  3990  003A                     	ds	1
  3991  003B                     ?_Power_SetThreshold:
  3992  003B                     ?___ftmul:	
  3993                           ; 1 bytes @ 0x1B
  3994                           
  3995  003B                     Power_SetThreshold@metric:	
  3996                           ; 3 bytes @ 0x1B
  3997                           
  3998  003B                     ___ftmul@f1:	
  3999                           ; 1 bytes @ 0x1B
  4000                           
  4001                           
  4002                           ; 3 bytes @ 0x1B
  4003  003B                     	ds	1
  4004  003C                     Power_SetThreshold@thresholdData:
  4005                           
  4006                           ; 1 bytes @ 0x1C
  4007  003C                     	ds	1
  4008  003D                     ??_Power_SetThreshold:
  4009  003D                     trunc@expon:	
  4010                           ; 1 bytes @ 0x1D
  4011                           
  4012                           
  4013                           ; 2 bytes @ 0x1D
  4014  003D                     	ds	1
  4015  003E                     ___ftmul@f2:
  4016                           
  4017                           ; 3 bytes @ 0x1E
  4018  003E                     	ds	1
  4019  003F                     ?___ftsub:
  4020  003F                     ___ftsub@f2:	
  4021                           ; 3 bytes @ 0x1F
  4022                           
  4023                           
  4024                           ; 3 bytes @ 0x1F
  4025  003F                     	ds	2
  4026  0041                     ??___ftmul:
  4027                           
  4028                           ; 1 bytes @ 0x21
  4029  0041                     	ds	1
  4030  0042                     ___ftsub@f1:
  4031                           
  4032                           ; 3 bytes @ 0x22
  4033  0042                     	ds	3
  4034  0045                     ___ftmul@exp:
  4035                           
  4036                           ; 1 bytes @ 0x25
  4037  0045                     	ds	1
  4038  0046                     ___ftmul@f3_as_product:
  4039                           
  4040                           ; 3 bytes @ 0x26
  4041  0046                     	ds	3
  4042  0049                     ___ftmul@cntr:
  4043                           
  4044                           ; 1 bytes @ 0x29
  4045  0049                     	ds	1
  4046  004A                     ___ftmul@sign:
  4047                           
  4048                           ; 1 bytes @ 0x2A
  4049  004A                     	ds	1
  4050                           
  4051                           	psect	maintext
  4052  030C                     __pmaintext:	
  4053 ;;
  4054 ;;Main: autosize = 0, tempsize = 2, incstack = 0, save=0
  4055 ;;
  4056 ;; *************** function _main *****************
  4057 ;; Defined at:
  4058 ;;		line 53 in file "main.c"
  4059 ;; Parameters:    Size  Location     Type
  4060 ;;		None
  4061 ;; Auto vars:     Size  Location     Type
  4062 ;;  data           20    0[BANK3 ] unsigned char [20]
  4063 ;;  len             1   25[BANK3 ] unsigned char 
  4064 ;;  retries         1   20[BANK3 ] unsigned char 
  4065 ;;  mnr             1   23[BANK3 ] unsigned char 
  4066 ;;  type            1   22[BANK3 ] unsigned char 
  4067 ;;  ack             1   21[BANK3 ] unsigned char 
  4068 ;;  cmd             1   24[BANK3 ] unsigned char 
  4069 ;; Return value:  Size  Location     Type
  4070 ;;                  1    wreg      void 
  4071 ;; Registers used:
  4072 ;;		wreg, fsr0l, fsr0h, fsr1l, fsr1h, status,2, status,0, pclath, cstack
  4073 ;; Tracked objects:
  4074 ;;		On entry : B3F/0
  4075 ;;		On exit  : 0/0
  4076 ;;		Unchanged: 0/0
  4077 ;; Data sizes:     COMMON   BANK0   BANK1   BANK2   BANK3   BANK4   BANK5   BANK6   BANK7   BANK8   BANK9  BANK10  BANK1
      +1  BANK12  BANK13  BANK14  BANK15  BANK16  BANK17  BANK18  BANK19  BANK20  BANK21  BANK22  BANK23  BANK24  BANK25
  4078 ;;      Params:         0       0       0       0       0       0       0       0       0       0       0       0       
      +0       0       0       0       0       0       0       0       0       0       0       0       0       0       0
  4079 ;;      Locals:         0       0       0       0      26       0       0       0       0       0       0       0       
      +0       0       0       0       0       0       0       0       0       0       0       0       0       0       0
  4080 ;;      Temps:          0       0       2       0       0       0       0       0       0       0       0       0       
      +0       0       0       0       0       0       0       0       0       0       0       0       0       0       0
  4081 ;;      Totals:         0       0       2       0      26       0       0       0       0       0       0       0       
      +0       0       0       0       0       0       0       0       0       0       0       0       0       0       0
  4082 ;;Total ram usage:       28 bytes
  4083 ;; Hardware stack levels required when called:    9
  4084 ;; This function calls:
  4085 ;;		_I2C1_CommandReceived
  4086 ;;		_I2C1_GetCommand
  4087 ;;		_I2C1_GetCommandData
  4088 ;;		_I2C1_SetTransmitData
  4089 ;;		_I2C1_TxBufferEmpty
  4090 ;;		_Power_GetData
  4091 ;;		_Power_Init
  4092 ;;		_Power_Loop
  4093 ;;		_Power_Measure
  4094 ;;		_Power_SetThreshold
  4095 ;;		_SYSTEM_Initialize
  4096 ;;		_toggleInt
  4097 ;; This function is called by:
  4098 ;;		Startup code after reset
  4099 ;; This function uses a non-reentrant model
  4100 ;;
  4101                           
  4102                           
  4103                           ;psect for function _main
  4104  030C                     _main:
  4105  030C                     l5438:	
  4106                           ;incstack = 0
  4107                           ; Regs used in _main: [wreg-fsr1h+status,2+status,0+pclath+cstack]
  4108                           
  4109                           
  4110                           ;main.c: 56: SYSTEM_Initialize(0x45);
  4111  030C  3045               	movlw	69
  4112  030D  318D  252C  3183   	fcall	_SYSTEM_Initialize
  4113                           
  4114                           ;main.c: 58: sensorAPI.Init();
  4115  0310  0142               	movlb	2	; select bank2
  4116  0311  0867               	movf	(_sensorAPI+1)^(0+256),w
  4117  0312  008A               	movwf	10
  4118  0313  0866               	movf	_sensorAPI^(0+256),w
  4119  0314  000A               	callw
  4120  0315  3183               	pagesel	$
  4121  0316                     l5440:
  4122                           
  4123                           ;main.c: 61: sensorAPI.Loop();
  4124  0316  3004               	movlw	4
  4125  0317  3E66               	addlw	(low (_sensorAPI| (0+256)))& (0+255)
  4126  0318  0086               	movwf	6
  4127  0319  3001               	movlw	1	; select bank2/3
  4128  031A  0087               	movwf	7
  4129  031B  3F41               	moviw [1]fsr1
  4130  031C  008A               	movwf	10
  4131  031D  3F40               	moviw [0]fsr1
  4132  031E  000A               	callw
  4133  031F  3183               	pagesel	$
  4134  0320                     l5442:
  4135                           
  4136                           ;main.c: 62: sensorAPI.GetData(mData, &mDataLength);
  4137  0320  3060               	movlw	(low (_mData| (0+256)))& (0+255)
  4138  0321  0141               	movlb	1	; select bank1
  4139  0322  00D7               	movwf	??_main^(0+128)
  4140  0323  0857               	movf	??_main^(0+128),w
  4141  0324  00F4               	movwf	Power_GetData@data
  4142  0325  30C5               	movlw	(low (_mDataLength| 0))& (0+255)
  4143  0326  00D8               	movwf	(??_main+1)^(0+128)
  4144  0327  0858               	movf	(??_main+1)^(0+128),w
  4145  0328  00F5               	movwf	Power_GetData@length
  4146  0329  3006               	movlw	6
  4147  032A  3E66               	addlw	(low (_sensorAPI| (0+256)))& (0+255)
  4148  032B  0086               	movwf	6
  4149  032C  3001               	movlw	1	; select bank2/3
  4150  032D  0087               	movwf	7
  4151  032E  3F41               	moviw [1]fsr1
  4152  032F  008A               	movwf	10
  4153  0330  3F40               	moviw [0]fsr1
  4154  0331  000A               	callw
  4155  0332  3183               	pagesel	$
  4156  0333                     l5444:
  4157                           
  4158                           ;main.c: 63: I2C1_SetTransmitData(mData, mDataLength);
  4159  0333  0141               	movlb	1	; select bank1
  4160  0334  0845               	movf	_mDataLength^(0+128),w
  4161  0335  00D7               	movwf	??_main^(0+128)
  4162  0336  0857               	movf	??_main^(0+128),w
  4163  0337  0140               	movlb	0	; select bank0
  4164  0338  00A0               	movwf	I2C1_SetTransmitData@len
  4165  0339  3060               	movlw	(low (_mData| (0+256)))& (0+255)
  4166  033A  318D  259C  3183   	fcall	_I2C1_SetTransmitData
  4167  033D                     l5446:
  4168                           
  4169                           ;main.c: 66: if(I2C1_CommandReceived()){
  4170  033D  318C  2440  3183   	fcall	_I2C1_CommandReceived
  4171  0340  3A00               	xorlw	0
  4172  0341  1903               	skipnz
  4173  0342  2B44               	goto	u5401
  4174  0343  2B45               	goto	u5400
  4175  0344                     u5401:
  4176  0344  2B16               	goto	l5440
  4177  0345                     u5400:
  4178  0345                     l5448:
  4179                           
  4180                           ;main.c: 67: uint8_t cmd;;main.c: 68: I2C1_GetCommand(&cmd);
  4181  0345  30B8               	movlw	(low (main@cmd| (0+256)))& (0+255)
  4182  0346  318C  2479  3183   	fcall	_I2C1_GetCommand
  4183                           
  4184                           ;main.c: 70: switch(cmd){
  4185  0349  2BD0               	goto	l5482
  4186  034A                     l5450:
  4187                           
  4188                           ;main.c: 74: uint8_t ack = 0xAA;
  4189  034A  30AA               	movlw	170
  4190  034B  0141               	movlb	1	; select bank1
  4191  034C  00D7               	movwf	??_main^(0+128)
  4192  034D  0857               	movf	??_main^(0+128),w
  4193  034E  0143               	movlb	3	; select bank3
  4194  034F  00B5               	movwf	main@ack^(0+384)
  4195  0350                     l5452:
  4196                           
  4197                           ;main.c: 75: I2C1_SetTransmitData(&ack, 1);
  4198  0350  0140               	movlb	0	; select bank0
  4199  0351  01A0               	clrf	I2C1_SetTransmitData@len
  4200  0352  0AA0               	incf	I2C1_SetTransmitData@len,f
  4201  0353  30B5               	movlw	(low (main@ack| (0+256)))& (0+255)
  4202  0354  318D  259C  3183   	fcall	_I2C1_SetTransmitData
  4203                           
  4204                           ;main.c: 76: } break;
  4205  0357  2B16               	goto	l5440
  4206  0358                     l691:	
  4207                           ;main.c: 79: case 0x11:{
  4208                           
  4209                           
  4210                           ;main.c: 81: uint8_t type = 0x01;
  4211  0358  01B6               	clrf	main@type^(0+384)
  4212  0359  0AB6               	incf	main@type^(0+384),f
  4213  035A                     l5454:
  4214                           
  4215                           ;main.c: 82: I2C1_SetTransmitData(&type, 1);
  4216  035A  0140               	movlb	0	; select bank0
  4217  035B  01A0               	clrf	I2C1_SetTransmitData@len
  4218  035C  0AA0               	incf	I2C1_SetTransmitData@len,f
  4219  035D  30B6               	movlw	(low (main@type| (0+256)))& (0+255)
  4220  035E  318D  259C  3183   	fcall	_I2C1_SetTransmitData
  4221                           
  4222                           ;main.c: 83: } break;
  4223  0361  2B16               	goto	l5440
  4224  0362                     l5456:
  4225                           
  4226                           ;main.c: 88: uint8_t mnr = 0x03;
  4227  0362  3003               	movlw	3
  4228  0363  0141               	movlb	1	; select bank1
  4229  0364  00D7               	movwf	??_main^(0+128)
  4230  0365  0857               	movf	??_main^(0+128),w
  4231  0366  0143               	movlb	3	; select bank3
  4232  0367  00B7               	movwf	main@mnr^(0+384)
  4233  0368                     l5458:
  4234                           
  4235                           ;main.c: 89: I2C1_SetTransmitData(&mnr, 1);
  4236  0368  0140               	movlb	0	; select bank0
  4237  0369  01A0               	clrf	I2C1_SetTransmitData@len
  4238  036A  0AA0               	incf	I2C1_SetTransmitData@len,f
  4239  036B  30B7               	movlw	(low (main@mnr| (0+256)))& (0+255)
  4240  036C  318D  259C  3183   	fcall	_I2C1_SetTransmitData
  4241                           
  4242                           ;main.c: 90: } break;
  4243  036F  2B16               	goto	l5440
  4244  0370                     l5460:
  4245                           
  4246                           ;main.c: 95: sensorAPI.Measure();
  4247  0370  3002               	movlw	2
  4248  0371  3E66               	addlw	(low (_sensorAPI| (0+256)))& (0+255)
  4249  0372  0086               	movwf	6
  4250  0373  3001               	movlw	1	; select bank2/3
  4251  0374  0087               	movwf	7
  4252  0375  3F41               	moviw [1]fsr1
  4253  0376  008A               	movwf	10
  4254  0377  3F40               	moviw [0]fsr1
  4255  0378  000A               	callw
  4256  0379  3183               	pagesel	$
  4257                           
  4258                           ;main.c: 96: } break;
  4259  037A  2B16               	goto	l5440
  4260  037B                     l5462:
  4261                           
  4262                           ;main.c: 101: uint8_t retries = 20;
  4263  037B  3014               	movlw	20
  4264  037C  0141               	movlb	1	; select bank1
  4265  037D  00D7               	movwf	??_main^(0+128)
  4266  037E  0857               	movf	??_main^(0+128),w
  4267  037F  0143               	movlb	3	; select bank3
  4268  0380  00B4               	movwf	main@retries^(0+384)
  4269                           
  4270                           ;main.c: 102: while(!I2C1_TxBufferEmpty() && retries--){
  4271  0381  2B8B               	goto	l5466
  4272  0382                     l5464:
  4273                           
  4274                           ;main.c: 103: _delay((unsigned long)((1)*(32000000/4000.0)));
  4275  0382  300B               	movlw	11
  4276  0383  0141               	movlb	1	; select bank1
  4277  0384  00D7               	movwf	??_main^(0+128)
  4278  0385  3062               	movlw	98
  4279  0386                     u5447:
  4280  0386  0B89               	decfsz	9,f
  4281  0387  2B86               	goto	u5447
  4282  0388  0BD7               	decfsz	??_main^(0+128),f
  4283  0389  2B86               	goto	u5447
  4284  038A  0000               	nop
  4285  038B                     l5466:
  4286  038B  318C  2467  3183   	fcall	_I2C1_TxBufferEmpty
  4287  038E  3A00               	xorlw	0
  4288  038F  1D03               	skipz
  4289  0390  2B92               	goto	u5411
  4290  0391  2B93               	goto	u5410
  4291  0392                     u5411:
  4292  0392  2BE8               	goto	l687
  4293  0393                     u5410:
  4294  0393                     l5468:
  4295  0393  3001               	movlw	1
  4296  0394  0143               	movlb	3	; select bank3
  4297  0395  02B4               	subwf	main@retries^(0+384),f
  4298  0396  0A34               	incf	main@retries^(0+384),w
  4299  0397  1D03               	btfss	3,2
  4300  0398  2B9A               	goto	u5421
  4301  0399  2B9B               	goto	u5420
  4302  039A                     u5421:
  4303  039A  2B82               	goto	l5464
  4304  039B                     u5420:
  4305  039B  2B16               	goto	l5440
  4306  039C                     l5470:
  4307                           
  4308                           ;main.c: 109: toggleInt();
  4309  039C  318C  2492  3183   	fcall	_toggleInt
  4310                           
  4311                           ;main.c: 110: } break;
  4312  039F  2B16               	goto	l5440
  4313  03A0                     l5472:
  4314                           
  4315                           ;main.c: 114: _delay((unsigned long)((2)*(32000000/4000.0)));
  4316  03A0  3015               	movlw	21
  4317  03A1  0141               	movlb	1	; select bank1
  4318  03A2  00D7               	movwf	??_main^(0+128)
  4319  03A3  30C6               	movlw	198
  4320  03A4                     u5457:
  4321  03A4  0B89               	decfsz	9,f
  4322  03A5  2BA4               	goto	u5457
  4323  03A6  0BD7               	decfsz	??_main^(0+128),f
  4324  03A7  2BA4               	goto	u5457
  4325  03A8  0000               	nop
  4326  03A9                     l5474:
  4327                           
  4328                           ;main.c: 115: uint8_t len;;main.c: 116: uint8_t data[20];;main.c: 117: I2C1_GetCommandDa
      +                          ta(data, &len);
  4329  03A9  30B9               	movlw	(low (main@len| (0+256)))& (0+255)
  4330  03AA  0141               	movlb	1	; select bank1
  4331  03AB  00D7               	movwf	??_main^(0+128)
  4332  03AC  0857               	movf	??_main^(0+128),w
  4333  03AD  00F4               	movwf	I2C1_GetCommandData@len
  4334  03AE  30A0               	movlw	(low (main@data| (0+256)))& (0+255)
  4335  03AF  318C  24EC  3183   	fcall	_I2C1_GetCommandData
  4336  03B2                     l5476:
  4337                           
  4338                           ;main.c: 118: if(len == 6){
  4339  03B2  3006               	movlw	6
  4340  03B3  0143               	movlb	3	; select bank3
  4341  03B4  0639               	xorwf	main@len^(0+384),w
  4342  03B5  1D03               	btfss	3,2
  4343  03B6  2BB8               	goto	u5431
  4344  03B7  2BB9               	goto	u5430
  4345  03B8                     u5431:
  4346  03B8  2BE8               	goto	l687
  4347  03B9                     u5430:
  4348  03B9                     l5478:
  4349                           
  4350                           ;main.c: 119: sensorAPI.UpdateThreshold(data[0], data+1);
  4351  03B9  0820               	movf	main@data^(0+384),w
  4352  03BA  0141               	movlb	1	; select bank1
  4353  03BB  00D7               	movwf	??_main^(0+128)
  4354  03BC  0857               	movf	??_main^(0+128),w
  4355  03BD  0140               	movlb	0	; select bank0
  4356  03BE  00BB               	movwf	Power_SetThreshold@metric
  4357  03BF  30A1               	movlw	(low ((main@data| (0+256)+1)))& (0+255)
  4358  03C0  0141               	movlb	1	; select bank1
  4359  03C1  00D8               	movwf	(??_main+1)^(0+128)
  4360  03C2  0858               	movf	(??_main+1)^(0+128),w
  4361  03C3  0140               	movlb	0	; select bank0
  4362  03C4  00BC               	movwf	Power_SetThreshold@thresholdData
  4363  03C5  3008               	movlw	8
  4364  03C6  3E66               	addlw	(low (_sensorAPI| (0+256)))& (0+255)
  4365  03C7  0086               	movwf	6
  4366  03C8  3001               	movlw	1	; select bank2/3
  4367  03C9  0087               	movwf	7
  4368  03CA  3F41               	moviw [1]fsr1
  4369  03CB  008A               	movwf	10
  4370  03CC  3F40               	moviw [0]fsr1
  4371  03CD  000A               	callw
  4372  03CE  3183               	pagesel	$
  4373  03CF  2B16               	goto	l5440
  4374  03D0                     l5482:
  4375  03D0  0143               	movlb	3	; select bank3
  4376  03D1  0838               	movf	main@cmd^(0+384),w
  4377                           
  4378                           ; Switch size 1, requested type "simple"
  4379                           ; Number of cases is 7, Range of values is 16 to 36
  4380                           ; switch strategies available:
  4381                           ; Name         Instructions Cycles
  4382                           ; simple_byte           22    12 (average)
  4383                           ; direct_byte           51     9 (fixed)
  4384                           ; jumptable            263     9 (fixed)
  4385                           ;	Chosen strategy is simple_byte
  4386  03D2  3A10               	xorlw	16	; case 16
  4387  03D3  1903               	skipnz
  4388  03D4  2B4A               	goto	l5450
  4389  03D5  3A01               	xorlw	1	; case 17
  4390  03D6  1903               	skipnz
  4391  03D7  2B58               	goto	l691
  4392  03D8  3A02               	xorlw	2	; case 19
  4393  03D9  1903               	skipnz
  4394  03DA  2B70               	goto	l5460
  4395  03DB  3A07               	xorlw	7	; case 20
  4396  03DC  1903               	skipnz
  4397  03DD  2B7B               	goto	l5462
  4398  03DE  3A01               	xorlw	1	; case 21
  4399  03DF  1903               	skipnz
  4400  03E0  2B9C               	goto	l5470
  4401  03E1  3A36               	xorlw	54	; case 35
  4402  03E2  1903               	skipnz
  4403  03E3  2B62               	goto	l5456
  4404  03E4  3A07               	xorlw	7	; case 36
  4405  03E5  1903               	skipnz
  4406  03E6  2BA0               	goto	l5472
  4407  03E7  2BE8               	goto	l687
  4408  03E8                     l687:
  4409  03E8  2B16               	goto	l5440
  4410  03E9  3180  282B         	ljmp	start
  4411  03EB                     __end_of_main:
  4412                           
  4413                           	psect	text1
  4414  0C92                     __ptext1:	
  4415 ;; *************** function _toggleInt *****************
  4416 ;; Defined at:
  4417 ;;		line 131 in file "main.c"
  4418 ;; Parameters:    Size  Location     Type
  4419 ;;		None
  4420 ;; Auto vars:     Size  Location     Type
  4421 ;;		None
  4422 ;; Return value:  Size  Location     Type
  4423 ;;                  1    wreg      void 
  4424 ;; Registers used:
  4425 ;;		status,0
  4426 ;; Tracked objects:
  4427 ;;		On entry : 0/0
  4428 ;;		On exit  : 0/0
  4429 ;;		Unchanged: 0/0
  4430 ;; Data sizes:     COMMON   BANK0   BANK1   BANK2   BANK3   BANK4   BANK5   BANK6   BANK7   BANK8   BANK9  BANK10  BANK1
      +1  BANK12  BANK13  BANK14  BANK15  BANK16  BANK17  BANK18  BANK19  BANK20  BANK21  BANK22  BANK23  BANK24  BANK25
  4431 ;;      Params:         0       0       0       0       0       0       0       0       0       0       0       0       
      +0       0       0       0       0       0       0       0       0       0       0       0       0       0       0
  4432 ;;      Locals:         0       0       0       0       0       0       0       0       0       0       0       0       
      +0       0       0       0       0       0       0       0       0       0       0       0       0       0       0
  4433 ;;      Temps:          0       0       0       0       0       0       0       0       0       0       0       0       
      +0       0       0       0       0       0       0       0       0       0       0       0       0       0       0
  4434 ;;      Totals:         0       0       0       0       0       0       0       0       0       0       0       0       
      +0       0       0       0       0       0       0       0       0       0       0       0       0       0       0
  4435 ;;Total ram usage:        0 bytes
  4436 ;; Hardware stack levels used:    1
  4437 ;; Hardware stack levels required when called:    3
  4438 ;; This function calls:
  4439 ;;		Nothing
  4440 ;; This function is called by:
  4441 ;;		_main
  4442 ;; This function uses a non-reentrant model
  4443 ;;
  4444                           
  4445                           
  4446                           ;psect for function _toggleInt
  4447  0C92                     _toggleInt:
  4448  0C92                     l709:	
  4449                           ;incstack = 0
  4450                           ; Regs used in _toggleInt: [status,0]
  4451                           ;main.c: 132: do { LATCbits.LATC7 = ~LATCbits.LATC7; } while(0);
  4452                           
  4453  0C92                     l5376:
  4454  0C92  1003               	clrc
  4455  0C93  0140               	movlb	0	; select bank0
  4456  0C94  1F9A               	btfss	26,7	;volatile
  4457  0C95  1403               	setc
  4458  0C96  1803               	btfsc	3,0
  4459  0C97  2C99               	goto	u5321
  4460  0C98  2C9C               	goto	u5320
  4461  0C99                     u5321:
  4462  0C99  0140               	movlb	0	; select bank0
  4463  0C9A  179A               	bsf	26,7	;volatile
  4464  0C9B  2C9E               	goto	u5334
  4465  0C9C                     u5320:
  4466  0C9C  0140               	movlb	0	; select bank0
  4467  0C9D  139A               	bcf	26,7	;volatile
  4468  0C9E                     u5334:
  4469  0C9E                     l711:
  4470  0C9E  0008               	return
  4471  0C9F                     __end_of_toggleInt:
  4472                           
  4473                           	psect	text2
  4474  0D2C                     __ptext2:	
  4475 ;; *************** function _SYSTEM_Initialize *****************
  4476 ;; Defined at:
  4477 ;;		line 32 in file "system/system.c"
  4478 ;; Parameters:    Size  Location     Type
  4479 ;;  slave_addres    1    wreg     unsigned char 
  4480 ;; Auto vars:     Size  Location     Type
  4481 ;;  slave_addres    1    5[COMMON] unsigned char 
  4482 ;; Return value:  Size  Location     Type
  4483 ;;                  1    wreg      void 
  4484 ;; Registers used:
  4485 ;;		wreg, status,2, status,0, pclath, cstack
  4486 ;; Tracked objects:
  4487 ;;		On entry : 0/0
  4488 ;;		On exit  : 0/0
  4489 ;;		Unchanged: 0/0
  4490 ;; Data sizes:     COMMON   BANK0   BANK1   BANK2   BANK3   BANK4   BANK5   BANK6   BANK7   BANK8   BANK9  BANK10  BANK1
      +1  BANK12  BANK13  BANK14  BANK15  BANK16  BANK17  BANK18  BANK19  BANK20  BANK21  BANK22  BANK23  BANK24  BANK25
  4491 ;;      Params:         0       0       0       0       0       0       0       0       0       0       0       0       
      +0       0       0       0       0       0       0       0       0       0       0       0       0       0       0
  4492 ;;      Locals:         1       0       0       0       0       0       0       0       0       0       0       0       
      +0       0       0       0       0       0       0       0       0       0       0       0       0       0       0
  4493 ;;      Temps:          0       0       0       0       0       0       0       0       0       0       0       0       
      +0       0       0       0       0       0       0       0       0       0       0       0       0       0       0
  4494 ;;      Totals:         1       0       0       0       0       0       0       0       0       0       0       0       
      +0       0       0       0       0       0       0       0       0       0       0       0       0       0       0
  4495 ;;Total ram usage:        1 bytes
  4496 ;; Hardware stack levels used:    1
  4497 ;; Hardware stack levels required when called:    4
  4498 ;; This function calls:
  4499 ;;		_I2C1_Initialize
  4500 ;;		_OSCILLATOR_Initialize
  4501 ;;		_PMD_Initialize
  4502 ;; This function is called by:
  4503 ;;		_main
  4504 ;; This function uses a non-reentrant model
  4505 ;;
  4506                           
  4507                           
  4508                           ;psect for function _SYSTEM_Initialize
  4509  0D2C                     _SYSTEM_Initialize:
  4510                           
  4511                           ;incstack = 0
  4512                           ; Regs used in _SYSTEM_Initialize: [wreg+status,2+status,0+pclath+cstack]
  4513                           ;SYSTEM_Initialize@slave_address stored from wreg
  4514  0D2C  00F5               	movwf	SYSTEM_Initialize@slave_address
  4515  0D2D                     l5220:
  4516                           
  4517                           ;system.c: 34: PMD_Initialize();
  4518  0D2D  318C  24AE  318D   	fcall	_PMD_Initialize
  4519                           
  4520                           ;system.c: 35: OSCILLATOR_Initialize();
  4521  0D30  318C  2447  318D   	fcall	_OSCILLATOR_Initialize
  4522  0D33                     l5222:
  4523                           
  4524                           ;system.c: 37: VREGCONbits.VREGPM = 1;
  4525  0D33  0150               	movlb	16	; select bank16
  4526  0D34  1492               	bsf	18,1	;volatile
  4527  0D35                     l5224:
  4528                           
  4529                           ;system.c: 42: ANSELA = 0x00;
  4530  0D35  017E               	movlb	62	; select bank62
  4531  0D36  01B8               	clrf	56	;volatile
  4532  0D37                     l5226:
  4533                           
  4534                           ;system.c: 43: ANSELB = 0x00;
  4535  0D37  01C3               	clrf	67	;volatile
  4536  0D38                     l5228:
  4537                           
  4538                           ;system.c: 44: ANSELC = 0x00;
  4539  0D38  01CE               	clrf	78	;volatile
  4540  0D39                     l5230:
  4541                           
  4542                           ;system.c: 45: ANSELCbits.ANSC1 = 1;
  4543  0D39  14CE               	bsf	78,1	;volatile
  4544  0D3A                     l5232:
  4545                           
  4546                           ;system.c: 47: TRISA = 0x00;
  4547  0D3A  0140               	movlb	0	; select bank0
  4548  0D3B  0192               	clrf	18	;volatile
  4549  0D3C                     l5234:
  4550                           
  4551                           ;system.c: 48: TRISB = 0x00;
  4552  0D3C  0193               	clrf	19	;volatile
  4553  0D3D                     l5236:
  4554                           
  4555                           ;system.c: 49: TRISC = 0x00;
  4556  0D3D  0194               	clrf	20	;volatile
  4557  0D3E                     l5238:
  4558                           
  4559                           ;system.c: 50: TRISCbits.TRISC1 = 1;
  4560  0D3E  1494               	bsf	20,1	;volatile
  4561  0D3F                     l5240:
  4562                           
  4563                           ;system.c: 52: LATA = 0xFF;
  4564  0D3F  30FF               	movlw	255
  4565  0D40  0098               	movwf	24	;volatile
  4566  0D41                     l5242:
  4567                           
  4568                           ;system.c: 53: LATB = 0xFF;
  4569  0D41  30FF               	movlw	255
  4570  0D42  0099               	movwf	25	;volatile
  4571  0D43                     l5244:
  4572                           
  4573                           ;system.c: 54: LATC = 0xFF;
  4574  0D43  30FF               	movlw	255
  4575  0D44  009A               	movwf	26	;volatile
  4576  0D45                     l5246:
  4577                           
  4578                           ;system.c: 55: LATCbits.LATC1 = 0;
  4579  0D45  109A               	bcf	26,1	;volatile
  4580  0D46                     l5248:
  4581                           
  4582                           ;system.c: 57: I2C1_Initialize(slave_address);
  4583  0D46  0875               	movf	SYSTEM_Initialize@slave_address,w
  4584  0D47  318D  2574  318D   	fcall	_I2C1_Initialize
  4585  0D4A                     l5250:
  4586                           
  4587                           ;system.c: 59: (INTCONbits.GIE = 1);
  4588  0D4A  178B               	bsf	11,7	;volatile
  4589  0D4B                     l5252:
  4590                           
  4591                           ;system.c: 60: (INTCONbits.PEIE = 1);
  4592  0D4B  170B               	bsf	11,6	;volatile
  4593  0D4C                     l214:
  4594  0D4C  0008               	return
  4595  0D4D                     __end_of_SYSTEM_Initialize:
  4596                           
  4597                           	psect	text3
  4598  0CAE                     __ptext3:	
  4599 ;; *************** function _PMD_Initialize *****************
  4600 ;; Defined at:
  4601 ;;		line 78 in file "system/system.c"
  4602 ;; Parameters:    Size  Location     Type
  4603 ;;		None
  4604 ;; Auto vars:     Size  Location     Type
  4605 ;;		None
  4606 ;; Return value:  Size  Location     Type
  4607 ;;                  1    wreg      void 
  4608 ;; Registers used:
  4609 ;;		wreg
  4610 ;; Tracked objects:
  4611 ;;		On entry : 0/0
  4612 ;;		On exit  : 0/0
  4613 ;;		Unchanged: 0/0
  4614 ;; Data sizes:     COMMON   BANK0   BANK1   BANK2   BANK3   BANK4   BANK5   BANK6   BANK7   BANK8   BANK9  BANK10  BANK1
      +1  BANK12  BANK13  BANK14  BANK15  BANK16  BANK17  BANK18  BANK19  BANK20  BANK21  BANK22  BANK23  BANK24  BANK25
  4615 ;;      Params:         0       0       0       0       0       0       0       0       0       0       0       0       
      +0       0       0       0       0       0       0       0       0       0       0       0       0       0       0
  4616 ;;      Locals:         0       0       0       0       0       0       0       0       0       0       0       0       
      +0       0       0       0       0       0       0       0       0       0       0       0       0       0       0
  4617 ;;      Temps:          0       0       0       0       0       0       0       0       0       0       0       0       
      +0       0       0       0       0       0       0       0       0       0       0       0       0       0       0
  4618 ;;      Totals:         0       0       0       0       0       0       0       0       0       0       0       0       
      +0       0       0       0       0       0       0       0       0       0       0       0       0       0       0
  4619 ;;Total ram usage:        0 bytes
  4620 ;; Hardware stack levels used:    1
  4621 ;; Hardware stack levels required when called:    3
  4622 ;; This function calls:
  4623 ;;		Nothing
  4624 ;; This function is called by:
  4625 ;;		_SYSTEM_Initialize
  4626 ;; This function uses a non-reentrant model
  4627 ;;
  4628                           
  4629                           
  4630                           ;psect for function _PMD_Initialize
  4631  0CAE                     _PMD_Initialize:
  4632  0CAE                     l5046:	
  4633                           ;incstack = 0
  4634                           ; Regs used in _PMD_Initialize: [wreg]
  4635                           
  4636                           
  4637                           ;system.c: 80: PMD0 = 0xFF;
  4638  0CAE  30FF               	movlw	255
  4639  0CAF  014F               	movlb	15	; select bank15
  4640  0CB0  0096               	movwf	22	;volatile
  4641  0CB1                     l5048:
  4642                           
  4643                           ;system.c: 82: PMD0bits.SYSCMD = 0;
  4644  0CB1  1396               	bcf	22,7	;volatile
  4645                           
  4646                           ;system.c: 84: PMD1 = 0xFF;
  4647  0CB2  30FF               	movlw	255
  4648  0CB3  0097               	movwf	23	;volatile
  4649                           
  4650                           ;system.c: 85: PMD2 = 0xFF;
  4651  0CB4  30FF               	movlw	255
  4652  0CB5  0098               	movwf	24	;volatile
  4653                           
  4654                           ;system.c: 86: PMD3 = 0xFF;
  4655  0CB6  30FF               	movlw	255
  4656  0CB7  0099               	movwf	25	;volatile
  4657                           
  4658                           ;system.c: 87: PMD4 = 0xFF;
  4659  0CB8  30FF               	movlw	255
  4660  0CB9  009A               	movwf	26	;volatile
  4661                           
  4662                           ;system.c: 88: PMD5 = 0xFF;
  4663  0CBA  30FF               	movlw	255
  4664  0CBB  009B               	movwf	27	;volatile
  4665                           
  4666                           ;system.c: 89: PMD6 = 0xFF;
  4667  0CBC  30FF               	movlw	255
  4668  0CBD  009C               	movwf	28	;volatile
  4669                           
  4670                           ;system.c: 90: PMD7 = 0xFF;
  4671  0CBE  30FF               	movlw	255
  4672  0CBF  009D               	movwf	29	;volatile
  4673  0CC0                     l223:
  4674  0CC0  0008               	return
  4675  0CC1                     __end_of_PMD_Initialize:
  4676                           
  4677                           	psect	text4
  4678  0C47                     __ptext4:	
  4679 ;; *************** function _OSCILLATOR_Initialize *****************
  4680 ;; Defined at:
  4681 ;;		line 70 in file "system/system.c"
  4682 ;; Parameters:    Size  Location     Type
  4683 ;;		None
  4684 ;; Auto vars:     Size  Location     Type
  4685 ;;		None
  4686 ;; Return value:  Size  Location     Type
  4687 ;;                  1    wreg      void 
  4688 ;; Registers used:
  4689 ;;		wreg
  4690 ;; Tracked objects:
  4691 ;;		On entry : 0/0
  4692 ;;		On exit  : 0/0
  4693 ;;		Unchanged: 0/0
  4694 ;; Data sizes:     COMMON   BANK0   BANK1   BANK2   BANK3   BANK4   BANK5   BANK6   BANK7   BANK8   BANK9  BANK10  BANK1
      +1  BANK12  BANK13  BANK14  BANK15  BANK16  BANK17  BANK18  BANK19  BANK20  BANK21  BANK22  BANK23  BANK24  BANK25
  4695 ;;      Params:         0       0       0       0       0       0       0       0       0       0       0       0       
      +0       0       0       0       0       0       0       0       0       0       0       0       0       0       0
  4696 ;;      Locals:         0       0       0       0       0       0       0       0       0       0       0       0       
      +0       0       0       0       0       0       0       0       0       0       0       0       0       0       0
  4697 ;;      Temps:          0       0       0       0       0       0       0       0       0       0       0       0       
      +0       0       0       0       0       0       0       0       0       0       0       0       0       0       0
  4698 ;;      Totals:         0       0       0       0       0       0       0       0       0       0       0       0       
      +0       0       0       0       0       0       0       0       0       0       0       0       0       0       0
  4699 ;;Total ram usage:        0 bytes
  4700 ;; Hardware stack levels used:    1
  4701 ;; Hardware stack levels required when called:    3
  4702 ;; This function calls:
  4703 ;;		Nothing
  4704 ;; This function is called by:
  4705 ;;		_SYSTEM_Initialize
  4706 ;; This function uses a non-reentrant model
  4707 ;;
  4708                           
  4709                           
  4710                           ;psect for function _OSCILLATOR_Initialize
  4711  0C47                     _OSCILLATOR_Initialize:
  4712  0C47                     l5050:	
  4713                           ;incstack = 0
  4714                           ; Regs used in _OSCILLATOR_Initialize: [wreg]
  4715                           
  4716                           
  4717                           ;system.c: 72: OSCCON1 = 0x60;
  4718  0C47  3060               	movlw	96
  4719  0C48  0151               	movlb	17	; select bank17
  4720  0C49  008D               	movwf	13	;volatile
  4721                           
  4722                           ;system.c: 74: OSCFRQ = 0x06;
  4723  0C4A  3006               	movlw	6
  4724  0C4B  0093               	movwf	19	;volatile
  4725  0C4C                     l220:
  4726  0C4C  0008               	return
  4727  0C4D                     __end_of_OSCILLATOR_Initialize:
  4728                           
  4729                           	psect	text5
  4730  0D74                     __ptext5:	
  4731 ;; *************** function _I2C1_Initialize *****************
  4732 ;; Defined at:
  4733 ;;		line 91 in file "system/i2c1.c"
  4734 ;; Parameters:    Size  Location     Type
  4735 ;;  slave_addres    1    wreg     unsigned char 
  4736 ;; Auto vars:     Size  Location     Type
  4737 ;;  slave_addres    1    4[COMMON] unsigned char 
  4738 ;; Return value:  Size  Location     Type
  4739 ;;                  1    wreg      void 
  4740 ;; Registers used:
  4741 ;;		wreg, status,2, status,0
  4742 ;; Tracked objects:
  4743 ;;		On entry : 0/0
  4744 ;;		On exit  : 0/0
  4745 ;;		Unchanged: 0/0
  4746 ;; Data sizes:     COMMON   BANK0   BANK1   BANK2   BANK3   BANK4   BANK5   BANK6   BANK7   BANK8   BANK9  BANK10  BANK1
      +1  BANK12  BANK13  BANK14  BANK15  BANK16  BANK17  BANK18  BANK19  BANK20  BANK21  BANK22  BANK23  BANK24  BANK25
  4747 ;;      Params:         0       0       0       0       0       0       0       0       0       0       0       0       
      +0       0       0       0       0       0       0       0       0       0       0       0       0       0       0
  4748 ;;      Locals:         1       0       0       0       0       0       0       0       0       0       0       0       
      +0       0       0       0       0       0       0       0       0       0       0       0       0       0       0
  4749 ;;      Temps:          0       0       0       0       0       0       0       0       0       0       0       0       
      +0       0       0       0       0       0       0       0       0       0       0       0       0       0       0
  4750 ;;      Totals:         1       0       0       0       0       0       0       0       0       0       0       0       
      +0       0       0       0       0       0       0       0       0       0       0       0       0       0       0
  4751 ;;Total ram usage:        1 bytes
  4752 ;; Hardware stack levels used:    1
  4753 ;; Hardware stack levels required when called:    3
  4754 ;; This function calls:
  4755 ;;		Nothing
  4756 ;; This function is called by:
  4757 ;;		_SYSTEM_Initialize
  4758 ;; This function uses a non-reentrant model
  4759 ;;
  4760                           
  4761                           
  4762                           ;psect for function _I2C1_Initialize
  4763  0D74                     _I2C1_Initialize:
  4764                           
  4765                           ;incstack = 0
  4766                           ; Regs used in _I2C1_Initialize: [wreg+status,2+status,0]
  4767                           ;I2C1_Initialize@slave_address stored from wreg
  4768  0D74  00F4               	movwf	I2C1_Initialize@slave_address
  4769  0D75                     l5020:
  4770                           
  4771                           ;i2c1.c: 93: PMD6bits.MSSP1MD = 0;
  4772  0D75  014F               	movlb	15	; select bank15
  4773  0D76  101C               	bcf	28,0	;volatile
  4774                           
  4775                           ;i2c1.c: 95: ANSELBbits.ANSB5 = 0;
  4776  0D77  017E               	movlb	62	; select bank62
  4777  0D78  12C3               	bcf	67,5	;volatile
  4778                           
  4779                           ;i2c1.c: 96: ANSELBbits.ANSB7 = 0;
  4780  0D79  13C3               	bcf	67,7	;volatile
  4781                           
  4782                           ;i2c1.c: 98: TRISBbits.TRISB5 = 1;
  4783  0D7A  0140               	movlb	0	; select bank0
  4784  0D7B  1693               	bsf	19,5	;volatile
  4785                           
  4786                           ;i2c1.c: 99: TRISBbits.TRISB7 = 1;
  4787  0D7C  1793               	bsf	19,7	;volatile
  4788  0D7D                     l5022:
  4789                           
  4790                           ;i2c1.c: 101: SSP1CLKPPS = 0x0F;
  4791  0D7D  300F               	movlw	15
  4792  0D7E  017D               	movlb	61	; select bank61
  4793  0D7F  00C5               	movwf	69	;volatile
  4794                           
  4795                           ;i2c1.c: 102: RB7PPS = 0x13;
  4796  0D80  3013               	movlw	19
  4797  0D81  017E               	movlb	62	; select bank62
  4798  0D82  009F               	movwf	31	;volatile
  4799                           
  4800                           ;i2c1.c: 103: RB5PPS = 0x14;
  4801  0D83  3014               	movlw	20
  4802  0D84  009D               	movwf	29	;volatile
  4803                           
  4804                           ;i2c1.c: 104: SSP1DATPPS = 0x0D;
  4805  0D85  300D               	movlw	13
  4806  0D86  017D               	movlb	61	; select bank61
  4807  0D87  00C6               	movwf	70	;volatile
  4808  0D88                     l5024:
  4809                           
  4810                           ;i2c1.c: 107: SSP1STAT = 0x00;
  4811  0D88  0143               	movlb	3	; select bank3
  4812  0D89  018F               	clrf	15	;volatile
  4813  0D8A                     l5026:
  4814                           
  4815                           ;i2c1.c: 109: SSP1CON1 = 0x26;
  4816  0D8A  3026               	movlw	38
  4817  0D8B  0090               	movwf	16	;volatile
  4818  0D8C                     l5028:
  4819                           
  4820                           ;i2c1.c: 111: SSP1CON2 = 0x01;
  4821  0D8C  3001               	movlw	1
  4822  0D8D  0091               	movwf	17	;volatile
  4823  0D8E                     l5030:
  4824                           
  4825                           ;i2c1.c: 113: SSP1CON3 = 0x00;
  4826  0D8E  0192               	clrf	18	;volatile
  4827  0D8F                     l5032:
  4828                           
  4829                           ;i2c1.c: 115: SSP1CON3bits.DHEN = 1;
  4830  0D8F  1412               	bsf	18,0	;volatile
  4831                           
  4832                           ;i2c1.c: 117: SSP1MSK = (0x7F << 1);
  4833  0D90  30FE               	movlw	254
  4834  0D91  008E               	movwf	14	;volatile
  4835  0D92                     l5034:
  4836                           
  4837                           ;i2c1.c: 119: SSP1ADD = (slave_address << 1);
  4838  0D92  3574               	lslf	I2C1_Initialize@slave_address,w
  4839  0D93  008D               	movwf	13	;volatile
  4840  0D94                     l5036:
  4841                           
  4842                           ;i2c1.c: 123: PIR3bits.SSP1IF = 0;
  4843  0D94  014E               	movlb	14	; select bank14
  4844  0D95  100F               	bcf	15,0	;volatile
  4845  0D96                     l5038:
  4846                           
  4847                           ;i2c1.c: 125: PIE3bits.SSP1IE = 1;
  4848  0D96  1419               	bsf	25,0	;volatile
  4849  0D97                     l5040:
  4850                           
  4851                           ;i2c1.c: 127: txCnt = 0;
  4852  0D97  01F6               	clrf	_txCnt
  4853  0D98                     l5042:
  4854                           
  4855                           ;i2c1.c: 128: rxLen = 0;
  4856  0D98  01F7               	clrf	_rxLen
  4857  0D99                     l5044:
  4858                           
  4859                           ;i2c1.c: 129: cmdReceived = 0;
  4860  0D99  0141               	movlb	1	; select bank1
  4861  0D9A  01C0               	clrf	_cmdReceived^(0+128)
  4862  0D9B                     l63:
  4863  0D9B  0008               	return
  4864  0D9C                     __end_of_I2C1_Initialize:
  4865                           
  4866                           	psect	text6
  4867  0680                     __ptext6:	
  4868 ;; *************** function _Power_SetThreshold *****************
  4869 ;; Defined at:
  4870 ;;		line 320 in file "sensor/power.c"
  4871 ;; Parameters:    Size  Location     Type
  4872 ;;  metric          1   27[BANK0 ] unsigned char 
  4873 ;;  thresholdDat    1   28[BANK0 ] PTR unsigned char 
  4874 ;;		 -> main@data(20), 
  4875 ;; Auto vars:     Size  Location     Type
  4876 ;;		None
  4877 ;; Return value:  Size  Location     Type
  4878 ;;                  1    wreg      void 
  4879 ;; Registers used:
  4880 ;;		wreg, fsr1l, fsr1h, status,2, status,0, pclath, cstack
  4881 ;; Tracked objects:
  4882 ;;		On entry : 0/0
  4883 ;;		On exit  : 0/0
  4884 ;;		Unchanged: 0/0
  4885 ;; Data sizes:     COMMON   BANK0   BANK1   BANK2   BANK3   BANK4   BANK5   BANK6   BANK7   BANK8   BANK9  BANK10  BANK1
      +1  BANK12  BANK13  BANK14  BANK15  BANK16  BANK17  BANK18  BANK19  BANK20  BANK21  BANK22  BANK23  BANK24  BANK25
  4886 ;;      Params:         0       2       0       0       0       0       0       0       0       0       0       0       
      +0       0       0       0       0       0       0       0       0       0       0       0       0       0       0
  4887 ;;      Locals:         0       0       0       0       0       0       0       0       0       0       0       0       
      +0       0       0       0       0       0       0       0       0       0       0       0       0       0       0
  4888 ;;      Temps:          0       5       0       0       0       0       0       0       0       0       0       0       
      +0       0       0       0       0       0       0       0       0       0       0       0       0       0       0
  4889 ;;      Totals:         0       7       0       0       0       0       0       0       0       0       0       0       
      +0       0       0       0       0       0       0       0       0       0       0       0       0       0       0
  4890 ;;Total ram usage:        7 bytes
  4891 ;; Hardware stack levels used:    1
  4892 ;; Hardware stack levels required when called:    5
  4893 ;; This function calls:
  4894 ;;		_WDT_Init
  4895 ;;		___ftdiv
  4896 ;;		___lwtoft
  4897 ;; This function is called by:
  4898 ;;		_main
  4899 ;; This function uses a non-reentrant model
  4900 ;;
  4901                           
  4902                           
  4903                           ;psect for function _Power_SetThreshold
  4904  0680                     _Power_SetThreshold:
  4905  0680                     l5356:	
  4906                           ;incstack = 0
  4907                           ; Regs used in _Power_SetThreshold: [wreg+fsr1l+fsr1h+status,2+status,0+pclath+cstack]
  4908                           
  4909                           
  4910                           ;power.c: 321: if(metric == 0){
  4911  0680  0140               	movlb	0	; select bank0
  4912  0681  083B               	movf	Power_SetThreshold@metric,w
  4913  0682  1D03               	btfss	3,2
  4914  0683  2E85               	goto	u5271
  4915  0684  2E86               	goto	u5270
  4916  0685                     u5271:
  4917  0685  2ED4               	goto	l5364
  4918  0686                     u5270:
  4919  0686                     l5358:
  4920                           
  4921                           ;power.c: 322: batThresholdEnabled = thresholdData[0];
  4922  0686  083C               	movf	Power_SetThreshold@thresholdData,w
  4923  0687  0086               	movwf	6
  4924  0688  3001               	movlw	1	; select bank2/3
  4925  0689  0087               	movwf	7
  4926  068A  0801               	movf	1,w
  4927  068B  00BD               	movwf	??_Power_SetThreshold
  4928  068C  083D               	movf	??_Power_SetThreshold,w
  4929  068D  0141               	movlb	1	; select bank1
  4930  068E  00BB               	movwf	_batThresholdEnabled^(0+128)
  4931  068F                     l5360:
  4932                           
  4933                           ;power.c: 323: batThresholdLevel = (uint16_t)((thresholdData[3]<<8) | thresholdData[4]);
  4934  068F  0140               	movlb	0	; select bank0
  4935  0690  083C               	movf	Power_SetThreshold@thresholdData,w
  4936  0691  3E04               	addlw	4
  4937  0692  0086               	movwf	6
  4938  0693  3001               	movlw	1	; select bank2/3
  4939  0694  0087               	movwf	7
  4940  0695  0801               	movf	1,w
  4941  0696  00BD               	movwf	??_Power_SetThreshold
  4942  0697  01BE               	clrf	??_Power_SetThreshold+1
  4943  0698  083C               	movf	Power_SetThreshold@thresholdData,w
  4944  0699  3E03               	addlw	3
  4945  069A  0086               	movwf	6
  4946  069B  3001               	movlw	1	; select bank2/3
  4947  069C  0087               	movwf	7
  4948  069D  0801               	movf	1,w
  4949  069E  00BF               	movwf	??_Power_SetThreshold+2
  4950  069F  01C0               	clrf	??_Power_SetThreshold+3
  4951  06A0  083F               	movf	??_Power_SetThreshold+2,w
  4952  06A1  00C0               	movwf	??_Power_SetThreshold+3
  4953  06A2  01BF               	clrf	??_Power_SetThreshold+2
  4954  06A3  083D               	movf	??_Power_SetThreshold,w
  4955  06A4  043F               	iorwf	??_Power_SetThreshold+2,w
  4956  06A5  0141               	movlb	1	; select bank1
  4957  06A6  00B4               	movwf	_batThresholdLevel^(0+128)
  4958  06A7  0140               	movlb	0	; select bank0
  4959  06A8  083E               	movf	??_Power_SetThreshold+1,w
  4960  06A9  0440               	iorwf	??_Power_SetThreshold+3,w
  4961  06AA  0141               	movlb	1	; select bank1
  4962  06AB  00B5               	movwf	(_batThresholdLevel+1)^(0+128)
  4963  06AC                     l5362:
  4964                           
  4965                           ;power.c: 324: floatBatThresholdLevel = (float) batThresholdLevel/600;
  4966  06AC  3000               	movlw	0
  4967  06AD  0140               	movlb	0	; select bank0
  4968  06AE  00AB               	movwf	___ftdiv@f2
  4969  06AF  3016               	movlw	22
  4970  06B0  00AC               	movwf	___ftdiv@f2+1
  4971  06B1  3044               	movlw	68
  4972  06B2  00AD               	movwf	___ftdiv@f2+2
  4973  06B3  0141               	movlb	1	; select bank1
  4974  06B4  0835               	movf	(_batThresholdLevel+1)^(0+128),w
  4975  06B5  0140               	movlb	0	; select bank0
  4976  06B6  00A9               	movwf	___lwtoft@c+1
  4977  06B7  0141               	movlb	1	; select bank1
  4978  06B8  0834               	movf	_batThresholdLevel^(0+128),w
  4979  06B9  0140               	movlb	0	; select bank0
  4980  06BA  00A8               	movwf	___lwtoft@c
  4981  06BB  318C  24D6  3186   	fcall	___lwtoft
  4982  06BE  0140               	movlb	0	; select bank0
  4983  06BF  0828               	movf	?___lwtoft,w
  4984  06C0  00AE               	movwf	___ftdiv@f1
  4985  06C1  0829               	movf	?___lwtoft+1,w
  4986  06C2  00AF               	movwf	___ftdiv@f1+1
  4987  06C3  082A               	movf	?___lwtoft+2,w
  4988  06C4  00B0               	movwf	___ftdiv@f1+2
  4989  06C5  3184  24AC  3186   	fcall	___ftdiv
  4990  06C8  0140               	movlb	0	; select bank0
  4991  06C9  082B               	movf	?___ftdiv,w
  4992  06CA  0141               	movlb	1	; select bank1
  4993  06CB  00A6               	movwf	_floatBatThresholdLevel^(0+128)
  4994  06CC  0140               	movlb	0	; select bank0
  4995  06CD  082C               	movf	?___ftdiv+1,w
  4996  06CE  0141               	movlb	1	; select bank1
  4997  06CF  00A7               	movwf	(_floatBatThresholdLevel+1)^(0+128)
  4998  06D0  0140               	movlb	0	; select bank0
  4999  06D1  082D               	movf	?___ftdiv+2,w
  5000  06D2  0141               	movlb	1	; select bank1
  5001  06D3  00A8               	movwf	(_floatBatThresholdLevel+2)^(0+128)
  5002  06D4                     l5364:
  5003                           
  5004                           ;power.c: 325: };power.c: 327: if(batThresholdEnabled && WDTCON0bits.SEN == 0){
  5005  06D4  0141               	movlb	1	; select bank1
  5006  06D5  083B               	movf	_batThresholdEnabled^(0+128),w
  5007  06D6  1903               	btfsc	3,2
  5008  06D7  2ED9               	goto	u5281
  5009  06D8  2EDA               	goto	u5280
  5010  06D9                     u5281:
  5011  06D9  2EE3               	goto	l5370
  5012  06DA                     u5280:
  5013  06DA                     l5366:
  5014  06DA  0150               	movlb	16	; select bank16
  5015  06DB  180C               	btfsc	12,0	;volatile
  5016  06DC  2EDE               	goto	u5291
  5017  06DD  2EDF               	goto	u5290
  5018  06DE                     u5291:
  5019  06DE  2EE3               	goto	l5370
  5020  06DF                     u5290:
  5021  06DF                     l5368:
  5022                           
  5023                           ;power.c: 328: WDT_Init();
  5024  06DF  318C  2460  3186   	fcall	_WDT_Init
  5025                           
  5026                           ;power.c: 329: }
  5027  06E2  2EF6               	goto	l647
  5028  06E3                     l5370:
  5029                           
  5030                           ;power.c: 330: else if(batThresholdEnabled && WDTCON0bits.SEN == 1){
  5031  06E3  0141               	movlb	1	; select bank1
  5032  06E4  083B               	movf	_batThresholdEnabled^(0+128),w
  5033  06E5  1903               	btfsc	3,2
  5034  06E6  2EE8               	goto	u5301
  5035  06E7  2EE9               	goto	u5300
  5036  06E8                     u5301:
  5037  06E8  2EF3               	goto	l645
  5038  06E9                     u5300:
  5039  06E9                     l5372:
  5040  06E9  0150               	movlb	16	; select bank16
  5041  06EA  1C0C               	btfss	12,0	;volatile
  5042  06EB  2EED               	goto	u5311
  5043  06EC  2EEE               	goto	u5310
  5044  06ED                     u5311:
  5045  06ED  2EF3               	goto	l645
  5046  06EE                     u5310:
  5047  06EE                     l5374:
  5048                           
  5049                           ;power.c: 331: WDTCON0bits.SEN = 0;
  5050  06EE  100C               	bcf	12,0	;volatile
  5051  06EF  0064               	clrwdt	;# 
  5052                           
  5053                           ;power.c: 333: WDTCON0bits.SEN = 1;
  5054  06F0  0150               	movlb	16	; select bank16
  5055  06F1  140C               	bsf	12,0	;volatile
  5056                           
  5057                           ;power.c: 334: }
  5058  06F2  2EF6               	goto	l647
  5059  06F3                     l645:
  5060                           
  5061                           ;power.c: 335: else{;power.c: 336: WDTCON0bits.SEN = 0;
  5062  06F3  0150               	movlb	16	; select bank16
  5063  06F4  100C               	bcf	12,0	;volatile
  5064  06F5  0064               	clrwdt	;# 
  5065  06F6                     l647:
  5066  06F6  0008               	return
  5067  06F7                     __end_of_Power_SetThreshold:
  5068                           
  5069                           	psect	text7
  5070  0C60                     __ptext7:	
  5071 ;; *************** function _WDT_Init *****************
  5072 ;; Defined at:
  5073 ;;		line 105 in file "sensor/power.c"
  5074 ;; Parameters:    Size  Location     Type
  5075 ;;		None
  5076 ;; Auto vars:     Size  Location     Type
  5077 ;;		None
  5078 ;; Return value:  Size  Location     Type
  5079 ;;                  1    wreg      void 
  5080 ;; Registers used:
  5081 ;;		wreg
  5082 ;; Tracked objects:
  5083 ;;		On entry : 0/0
  5084 ;;		On exit  : 0/0
  5085 ;;		Unchanged: 0/0
  5086 ;; Data sizes:     COMMON   BANK0   BANK1   BANK2   BANK3   BANK4   BANK5   BANK6   BANK7   BANK8   BANK9  BANK10  BANK1
      +1  BANK12  BANK13  BANK14  BANK15  BANK16  BANK17  BANK18  BANK19  BANK20  BANK21  BANK22  BANK23  BANK24  BANK25
  5087 ;;      Params:         0       0       0       0       0       0       0       0       0       0       0       0       
      +0       0       0       0       0       0       0       0       0       0       0       0       0       0       0
  5088 ;;      Locals:         0       0       0       0       0       0       0       0       0       0       0       0       
      +0       0       0       0       0       0       0       0       0       0       0       0       0       0       0
  5089 ;;      Temps:          0       0       0       0       0       0       0       0       0       0       0       0       
      +0       0       0       0       0       0       0       0       0       0       0       0       0       0       0
  5090 ;;      Totals:         0       0       0       0       0       0       0       0       0       0       0       0       
      +0       0       0       0       0       0       0       0       0       0       0       0       0       0       0
  5091 ;;Total ram usage:        0 bytes
  5092 ;; Hardware stack levels used:    1
  5093 ;; Hardware stack levels required when called:    3
  5094 ;; This function calls:
  5095 ;;		Nothing
  5096 ;; This function is called by:
  5097 ;;		_Power_SetThreshold
  5098 ;; This function uses a non-reentrant model
  5099 ;;
  5100                           
  5101                           
  5102                           ;psect for function _WDT_Init
  5103  0C60                     _WDT_Init:
  5104  0C60                     l5098:	
  5105                           ;incstack = 0
  5106                           ; Regs used in _WDT_Init: [wreg]
  5107                           
  5108                           
  5109                           ;power.c: 108: WDTCON0 = 0x1C;
  5110  0C60  301C               	movlw	28
  5111  0C61  0150               	movlb	16	; select bank16
  5112  0C62  008C               	movwf	12	;volatile
  5113                           
  5114                           ;power.c: 109: WDTCON1 = 0x07;
  5115  0C63  3007               	movlw	7
  5116  0C64  008D               	movwf	13	;volatile
  5117  0C65                     l5100:
  5118                           
  5119                           ;power.c: 110: WDTCON0bits.SEN = 1;
  5120  0C65  140C               	bsf	12,0	;volatile
  5121  0C66                     l515:
  5122  0C66  0008               	return
  5123  0C67                     __end_of_WDT_Init:
  5124                           
  5125                           	psect	text8
  5126  0C43                     __ptext8:	
  5127 ;; *************** function _Power_Measure *****************
  5128 ;; Defined at:
  5129 ;;		line 257 in file "sensor/power.c"
  5130 ;; Parameters:    Size  Location     Type
  5131 ;;		None
  5132 ;; Auto vars:     Size  Location     Type
  5133 ;;		None
  5134 ;; Return value:  Size  Location     Type
  5135 ;;                  1    wreg      void 
  5136 ;; Registers used:
  5137 ;;		None
  5138 ;; Tracked objects:
  5139 ;;		On entry : 0/0
  5140 ;;		On exit  : 0/0
  5141 ;;		Unchanged: 0/0
  5142 ;; Data sizes:     COMMON   BANK0   BANK1   BANK2   BANK3   BANK4   BANK5   BANK6   BANK7   BANK8   BANK9  BANK10  BANK1
      +1  BANK12  BANK13  BANK14  BANK15  BANK16  BANK17  BANK18  BANK19  BANK20  BANK21  BANK22  BANK23  BANK24  BANK25
  5143 ;;      Params:         0       0       0       0       0       0       0       0       0       0       0       0       
      +0       0       0       0       0       0       0       0       0       0       0       0       0       0       0
  5144 ;;      Locals:         0       0       0       0       0       0       0       0       0       0       0       0       
      +0       0       0       0       0       0       0       0       0       0       0       0       0       0       0
  5145 ;;      Temps:          0       0       0       0       0       0       0       0       0       0       0       0       
      +0       0       0       0       0       0       0       0       0       0       0       0       0       0       0
  5146 ;;      Totals:         0       0       0       0       0       0       0       0       0       0       0       0       
      +0       0       0       0       0       0       0       0       0       0       0       0       0       0       0
  5147 ;;Total ram usage:        0 bytes
  5148 ;; Hardware stack levels used:    1
  5149 ;; Hardware stack levels required when called:    3
  5150 ;; This function calls:
  5151 ;;		Nothing
  5152 ;; This function is called by:
  5153 ;;		_main
  5154 ;; This function uses a non-reentrant model
  5155 ;;
  5156                           
  5157                           
  5158                           ;psect for function _Power_Measure
  5159  0C43                     _Power_Measure:
  5160  0C43                     l5298:	
  5161                           ;incstack = 0
  5162                           ; Regs used in _Power_Measure: []
  5163                           
  5164                           
  5165                           ;power.c: 258: PollingMeasurement = 1;
  5166  0C43  0141               	movlb	1	; select bank1
  5167  0C44  01BD               	clrf	_PollingMeasurement^(0+128)
  5168  0C45  0ABD               	incf	_PollingMeasurement^(0+128),f
  5169  0C46                     l609:
  5170  0C46  0008               	return
  5171  0C47                     __end_of_Power_Measure:
  5172                           
  5173                           	psect	text9
  5174  0F9B                     __ptext9:	
  5175 ;; *************** function _Power_Loop *****************
  5176 ;; Defined at:
  5177 ;;		line 261 in file "sensor/power.c"
  5178 ;; Parameters:    Size  Location     Type
  5179 ;;		None
  5180 ;; Auto vars:     Size  Location     Type
  5181 ;;		None
  5182 ;; Return value:  Size  Location     Type
  5183 ;;                  1    wreg      void 
  5184 ;; Registers used:
  5185 ;;		wreg, fsr1l, fsr1h, status,2, status,0, pclath, cstack
  5186 ;; Tracked objects:
  5187 ;;		On entry : 0/0
  5188 ;;		On exit  : 0/0
  5189 ;;		Unchanged: 0/0
  5190 ;; Data sizes:     COMMON   BANK0   BANK1   BANK2   BANK3   BANK4   BANK5   BANK6   BANK7   BANK8   BANK9  BANK10  BANK1
      +1  BANK12  BANK13  BANK14  BANK15  BANK16  BANK17  BANK18  BANK19  BANK20  BANK21  BANK22  BANK23  BANK24  BANK25
  5191 ;;      Params:         0       0       0       0       0       0       0       0       0       0       0       0       
      +0       0       0       0       0       0       0       0       0       0       0       0       0       0       0
  5192 ;;      Locals:         0       0       0       0       0       0       0       0       0       0       0       0       
      +0       0       0       0       0       0       0       0       0       0       0       0       0       0       0
  5193 ;;      Temps:          0       0       2       0       0       0       0       0       0       0       0       0       
      +0       0       0       0       0       0       0       0       0       0       0       0       0       0       0
  5194 ;;      Totals:         0       0       2       0       0       0       0       0       0       0       0       0       
      +0       0       0       0       0       0       0       0       0       0       0       0       0       0       0
  5195 ;;Total ram usage:        2 bytes
  5196 ;; Hardware stack levels used:    1
  5197 ;; Hardware stack levels required when called:    8
  5198 ;; This function calls:
  5199 ;;		_enterSleep
  5200 ;;		_generateIntPower
  5201 ;;		_ledBlink
  5202 ;;		_measure
  5203 ;; This function is called by:
  5204 ;;		_main
  5205 ;; This function uses a non-reentrant model
  5206 ;;
  5207                           
  5208                           
  5209                           ;psect for function _Power_Loop
  5210  0F9B                     _Power_Loop:
  5211  0F9B                     l5300:	
  5212                           ;incstack = 0
  5213                           ; Regs used in _Power_Loop: [wreg+fsr1l+fsr1h+status,2+status,0+pclath+cstack]
  5214                           
  5215                           
  5216                           ;power.c: 263: if(PollingMeasurement && !MeasurementRunning){
  5217  0F9B  0141               	movlb	1	; select bank1
  5218  0F9C  083D               	movf	_PollingMeasurement^(0+128),w
  5219  0F9D  1903               	btfsc	3,2
  5220  0F9E  2FA0               	goto	u5201
  5221  0F9F  2FA1               	goto	u5200
  5222  0FA0                     u5201:
  5223  0FA0  2FCC               	goto	l612
  5224  0FA1                     u5200:
  5225  0FA1                     l5302:
  5226  0FA1  083C               	movf	_MeasurementRunning^(0+128),w
  5227  0FA2  1D03               	btfss	3,2
  5228  0FA3  2FA5               	goto	u5211
  5229  0FA4  2FA6               	goto	u5210
  5230  0FA5                     u5211:
  5231  0FA5  2FCC               	goto	l612
  5232  0FA6                     u5210:
  5233  0FA6                     l5304:
  5234                           
  5235                           ;power.c: 264: PollingMeasurement = 0;
  5236  0FA6  01BD               	clrf	_PollingMeasurement^(0+128)
  5237  0FA7                     l5306:
  5238                           
  5239                           ;power.c: 266: if(WDTCON0bits.SEN == 0){
  5240  0FA7  0150               	movlb	16	; select bank16
  5241  0FA8  180C               	btfsc	12,0	;volatile
  5242  0FA9  2FAB               	goto	u5221
  5243  0FAA  2FAC               	goto	u5220
  5244  0FAB                     u5221:
  5245  0FAB  2FB7               	goto	l613
  5246  0FAC                     u5220:
  5247  0FAC                     l614:	
  5248                           ;power.c: 267: do { LATBbits.LATB6 = 1; } while(0);
  5249                           
  5250  0FAC  0140               	movlb	0	; select bank0
  5251  0FAD  1719               	bsf	25,6	;volatile
  5252  0FAE                     l5308:
  5253                           
  5254                           ;power.c: 268: measure();
  5255  0FAE  3180  205D  318F   	fcall	_measure
  5256  0FB1                     l5310:
  5257                           
  5258                           ;power.c: 269: generateIntPower();
  5259  0FB1  318C  2485  318F   	fcall	_generateIntPower
  5260  0FB4                     l5312:
  5261  0FB4  0140               	movlb	0	; select bank0
  5262  0FB5  1319               	bcf	25,6	;volatile
  5263  0FB6  2FFF               	goto	l636
  5264  0FB7                     l613:
  5265                           
  5266                           ;power.c: 273: else if(WDTCON0bits.SEN == 1){
  5267  0FB7  1C0C               	btfss	12,0	;volatile
  5268  0FB8  2FBA               	goto	u5231
  5269  0FB9  2FBB               	goto	u5230
  5270  0FBA                     u5231:
  5271  0FBA  2FFF               	goto	l636
  5272  0FBB                     u5230:
  5273  0FBB                     l5314:
  5274                           
  5275                           ;power.c: 274: WDTCON0bits.SEN = 0;
  5276  0FBB  100C               	bcf	12,0	;volatile
  5277  0FBC                     l620:	
  5278                           ;power.c: 275: do { LATBbits.LATB6 = 1; } while(0);
  5279                           
  5280  0FBC  0140               	movlb	0	; select bank0
  5281  0FBD  1719               	bsf	25,6	;volatile
  5282  0FBE                     l622:	
  5283                           ;power.c: 276: do { LATCbits.LATC1 = 1; } while(0);
  5284                           
  5285  0FBE  149A               	bsf	26,1	;volatile
  5286  0FBF                     l5316:
  5287                           
  5288                           ;power.c: 277: measure();
  5289  0FBF  3180  205D  318F   	fcall	_measure
  5290  0FC2                     l5318:
  5291                           
  5292                           ;power.c: 278: generateIntPower();
  5293  0FC2  318C  2485  318F   	fcall	_generateIntPower
  5294  0FC5                     l5320:
  5295  0FC5  0140               	movlb	0	; select bank0
  5296  0FC6  1319               	bcf	25,6	;volatile
  5297  0FC7                     l5322:
  5298  0FC7  109A               	bcf	26,1	;volatile
  5299  0FC8                     l627:
  5300  0FC8  0064               	clrwdt	;# 
  5301  0FC9                     l5324:
  5302                           
  5303                           ;power.c: 283: WDTCON0bits.SEN = 1;
  5304  0FC9  0150               	movlb	16	; select bank16
  5305  0FCA  140C               	bsf	12,0	;volatile
  5306  0FCB  2FFF               	goto	l636
  5307  0FCC                     l612:
  5308                           
  5309                           ;power.c: 287: else if(STATUSbits.nTO == 0){
  5310  0FCC  0140               	movlb	0	; select bank0
  5311  0FCD  1A03               	btfsc	3,4	;volatile
  5312  0FCE  2FD0               	goto	u5241
  5313  0FCF  2FD1               	goto	u5240
  5314  0FD0                     u5241:
  5315  0FD0  2FFC               	goto	l5344
  5316  0FD1                     u5240:
  5317  0FD1                     l5326:
  5318                           
  5319                           ;power.c: 288: WDTCON0bits.SEN = 0;
  5320  0FD1  0150               	movlb	16	; select bank16
  5321  0FD2  100C               	bcf	12,0	;volatile
  5322  0FD3                     l630:	
  5323                           ;power.c: 289: do { LATCbits.LATC1 = 1; } while(0);
  5324                           
  5325  0FD3  0140               	movlb	0	; select bank0
  5326  0FD4  149A               	bsf	26,1	;volatile
  5327  0FD5                     l5328:
  5328                           
  5329                           ;power.c: 291: if(batThresholdEnabled && alertThreshold){
  5330  0FD5  0141               	movlb	1	; select bank1
  5331  0FD6  083B               	movf	_batThresholdEnabled^(0+128),w
  5332  0FD7  1903               	btfsc	3,2
  5333  0FD8  2FDA               	goto	u5251
  5334  0FD9  2FDB               	goto	u5250
  5335  0FDA                     u5251:
  5336  0FDA  2FE9               	goto	l5338
  5337  0FDB                     u5250:
  5338  0FDB                     l5330:
  5339  0FDB  083A               	movf	_alertThreshold^(0+128),w
  5340  0FDC  1903               	btfsc	3,2
  5341  0FDD  2FDF               	goto	u5261
  5342  0FDE  2FE0               	goto	u5260
  5343  0FDF                     u5261:
  5344  0FDF  2FE9               	goto	l5338
  5345  0FE0                     u5260:
  5346  0FE0                     l5332:
  5347                           
  5348                           ;power.c: 292: measure();
  5349  0FE0  3180  205D  318F   	fcall	_measure
  5350  0FE3                     l5334:
  5351                           
  5352                           ;power.c: 293: ledBlink();
  5353  0FE3  3185  255E  318F   	fcall	_ledBlink
  5354  0FE6                     l5336:
  5355                           
  5356                           ;power.c: 294: generateIntPower();
  5357  0FE6  318C  2485  318F   	fcall	_generateIntPower
  5358  0FE9                     l5338:
  5359                           
  5360                           ;power.c: 295: };power.c: 297: _delay((unsigned long)((2000)*(32000000/4000.0)));
  5361  0FE9  3052               	movlw	82
  5362  0FEA  0141               	movlb	1	; select bank1
  5363  0FEB  00D6               	movwf	(??_Power_Loop^(0+128)+1)
  5364  0FEC  302B               	movlw	43
  5365  0FED  00D5               	movwf	??_Power_Loop^(0+128)
  5366  0FEE  3000               	movlw	0
  5367  0FEF                     u5467:
  5368  0FEF  0B89               	decfsz	9,f
  5369  0FF0  2FEF               	goto	u5467
  5370  0FF1  0BD5               	decfsz	??_Power_Loop^(0+128),f
  5371  0FF2  2FEF               	goto	u5467
  5372  0FF3  0BD6               	decfsz	(??_Power_Loop^(0+128)+1),f
  5373  0FF4  2FEF               	goto	u5467
  5374  0FF5  0000               	nop
  5375  0FF6                     l5340:
  5376  0FF6  0140               	movlb	0	; select bank0
  5377  0FF7  109A               	bcf	26,1	;volatile
  5378  0FF8                     l634:
  5379  0FF8  0064               	clrwdt	;# 
  5380  0FF9                     l5342:
  5381                           
  5382                           ;power.c: 301: WDTCON0bits.SEN = 1;
  5383  0FF9  0150               	movlb	16	; select bank16
  5384  0FFA  140C               	bsf	12,0	;volatile
  5385                           
  5386                           ;power.c: 302: }
  5387  0FFB  2FFF               	goto	l636
  5388  0FFC                     l5344:
  5389                           
  5390                           ;power.c: 303: else{;power.c: 304: enterSleep();
  5391  0FFC  318C  2459  318F   	fcall	_enterSleep
  5392  0FFF                     l636:
  5393  0FFF  0008               	return
  5394  1000                     __end_of_Power_Loop:
  5395                           
  5396                           	psect	text10
  5397  005D                     __ptext10:	
  5398 ;; *************** function _measure *****************
  5399 ;; Defined at:
  5400 ;;		line 119 in file "sensor/power.c"
  5401 ;; Parameters:    Size  Location     Type
  5402 ;;		None
  5403 ;; Auto vars:     Size  Location     Type
  5404 ;;  datasolvolta    2   10[BANK1 ] unsigned int 
  5405 ;;  databatvolta    2    8[BANK1 ] unsigned int 
  5406 ;; Return value:  Size  Location     Type
  5407 ;;                  1    wreg      void 
  5408 ;; Registers used:
  5409 ;;		wreg, fsr1l, fsr1h, status,2, status,0, pclath, cstack
  5410 ;; Tracked objects:
  5411 ;;		On entry : 0/0
  5412 ;;		On exit  : 0/0
  5413 ;;		Unchanged: 0/0
  5414 ;; Data sizes:     COMMON   BANK0   BANK1   BANK2   BANK3   BANK4   BANK5   BANK6   BANK7   BANK8   BANK9  BANK10  BANK1
      +1  BANK12  BANK13  BANK14  BANK15  BANK16  BANK17  BANK18  BANK19  BANK20  BANK21  BANK22  BANK23  BANK24  BANK25
  5415 ;;      Params:         0       0       0       0       0       0       0       0       0       0       0       0       
      +0       0       0       0       0       0       0       0       0       0       0       0       0       0       0
  5416 ;;      Locals:         0       0       7       0       0       0       0       0       0       0       0       0       
      +0       0       0       0       0       0       0       0       0       0       0       0       0       0       0
  5417 ;;      Temps:          0       0       2       0       0       0       0       0       0       0       0       0       
      +0       0       0       0       0       0       0       0       0       0       0       0       0       0       0
  5418 ;;      Totals:         0       0       9       0       0       0       0       0       0       0       0       0       
      +0       0       0       0       0       0       0       0       0       0       0       0       0       0       0
  5419 ;;Total ram usage:        9 bytes
  5420 ;; Hardware stack levels used:    1
  5421 ;; Hardware stack levels required when called:    7
  5422 ;; This function calls:
  5423 ;;		_ADCC_GetSingleConversion
  5424 ;;		___ftdiv
  5425 ;;		___ftge
  5426 ;;		___ftmul
  5427 ;;		___fttol
  5428 ;;		___lwtoft
  5429 ;;		_round
  5430 ;; This function is called by:
  5431 ;;		_Power_Loop
  5432 ;; This function uses a non-reentrant model
  5433 ;;
  5434                           
  5435                           
  5436                           ;psect for function _measure
  5437  005D                     _measure:
  5438  005D                     l5106:	
  5439                           ;incstack = 0
  5440                           ; Regs used in _measure: [wreg+fsr1l+fsr1h+status,2+status,0+pclath+cstack]
  5441                           
  5442                           
  5443                           ;power.c: 121: FVRCON = 0x82;
  5444  005D  3082               	movlw	130
  5445  005E  0152               	movlb	18	; select bank18
  5446  005F  008C               	movwf	12	;volatile
  5447  0060                     l5108:
  5448                           
  5449                           ;power.c: 122: MeasurementRunning = 1;
  5450  0060  0141               	movlb	1	; select bank1
  5451  0061  01BC               	clrf	_MeasurementRunning^(0+128)
  5452  0062  0ABC               	incf	_MeasurementRunning^(0+128),f
  5453  0063                     l5110:
  5454  0063  0140               	movlb	0	; select bank0
  5455  0064  141A               	bsf	26,0	;volatile
  5456  0065                     l526:
  5457                           
  5458                           ;power.c: 126: _delay((unsigned long)((10)*(32000000/4000.0)));
  5459  0065  3068               	movlw	104
  5460  0066  0141               	movlb	1	; select bank1
  5461  0067  00CC               	movwf	??_measure^(0+128)
  5462  0068  30E4               	movlw	228
  5463  0069                     u5477:
  5464  0069  0B89               	decfsz	9,f
  5465  006A  2869               	goto	u5477
  5466  006B  0BCC               	decfsz	??_measure^(0+128),f
  5467  006C  2869               	goto	u5477
  5468  006D  0000               	nop
  5469  006E                     l5112:
  5470                           
  5471                           ;power.c: 128: ADCC_GetSingleConversion(0x13);
  5472  006E  3013               	movlw	19
  5473  006F  318C  24C1  3180   	fcall	_ADCC_GetSingleConversion
  5474  0072                     l5114:
  5475                           
  5476                           ;power.c: 129: voltageLDRMeasured = ADCC_GetSingleConversion(0x13);
  5477  0072  3013               	movlw	19
  5478  0073  318C  24C1  3180   	fcall	_ADCC_GetSingleConversion
  5479  0076  0140               	movlb	0	; select bank0
  5480  0077  0821               	movf	?_ADCC_GetSingleConversion+1,w
  5481  0078  0141               	movlb	1	; select bank1
  5482  0079  00C2               	movwf	(_voltageLDRMeasured+1)^(0+128)
  5483  007A  0140               	movlb	0	; select bank0
  5484  007B  0820               	movf	?_ADCC_GetSingleConversion,w
  5485  007C  0141               	movlb	1	; select bank1
  5486  007D  00C1               	movwf	_voltageLDRMeasured^(0+128)
  5487  007E                     l5116:
  5488                           
  5489                           ;power.c: 131: _delay((unsigned long)((200)*(32000000/4000.0)));
  5490  007E  3009               	movlw	9
  5491  007F  0141               	movlb	1	; select bank1
  5492  0080  00CD               	movwf	(??_measure^(0+128)+1)
  5493  0081  301E               	movlw	30
  5494  0082  00CC               	movwf	??_measure^(0+128)
  5495  0083  30E4               	movlw	228
  5496  0084                     u5487:
  5497  0084  0B89               	decfsz	9,f
  5498  0085  2884               	goto	u5487
  5499  0086  0BCC               	decfsz	??_measure^(0+128),f
  5500  0087  2884               	goto	u5487
  5501  0088  0BCD               	decfsz	(??_measure^(0+128)+1),f
  5502  0089  2884               	goto	u5487
  5503  008A  0000               	nop
  5504  008B                     l5118:
  5505                           
  5506                           ;power.c: 133: tempValue = ADCC_GetSingleConversion(0x13);
  5507  008B  3013               	movlw	19
  5508  008C  318C  24C1  3180   	fcall	_ADCC_GetSingleConversion
  5509  008F  0140               	movlb	0	; select bank0
  5510  0090  0821               	movf	?_ADCC_GetSingleConversion+1,w
  5511  0091  0141               	movlb	1	; select bank1
  5512  0092  00B7               	movwf	(_tempValue+1)^(0+128)
  5513  0093  0140               	movlb	0	; select bank0
  5514  0094  0820               	movf	?_ADCC_GetSingleConversion,w
  5515  0095  0141               	movlb	1	; select bank1
  5516  0096  00B6               	movwf	_tempValue^(0+128)
  5517  0097                     l5120:
  5518                           
  5519                           ;power.c: 134: if(tempValue < voltageLDRMeasured){
  5520  0097  0842               	movf	(_voltageLDRMeasured+1)^(0+128),w
  5521  0098  0237               	subwf	(_tempValue+1)^(0+128),w
  5522  0099  1D03               	skipz
  5523  009A  289D               	goto	u5135
  5524  009B  0841               	movf	_voltageLDRMeasured^(0+128),w
  5525  009C  0236               	subwf	_tempValue^(0+128),w
  5526  009D                     u5135:
  5527  009D  1803               	skipnc
  5528  009E  28A0               	goto	u5131
  5529  009F  28A1               	goto	u5130
  5530  00A0                     u5131:
  5531  00A0  28A5               	goto	l5124
  5532  00A1                     u5130:
  5533  00A1                     l5122:
  5534                           
  5535                           ;power.c: 135: voltageLDRMeasured = tempValue;
  5536  00A1  0837               	movf	(_tempValue+1)^(0+128),w
  5537  00A2  00C2               	movwf	(_voltageLDRMeasured+1)^(0+128)
  5538  00A3  0836               	movf	_tempValue^(0+128),w
  5539  00A4  00C1               	movwf	_voltageLDRMeasured^(0+128)
  5540  00A5                     l5124:
  5541                           
  5542                           ;power.c: 136: };power.c: 137: floatVoltageLDRMeasured = ((float)voltageLDRMeasured /409
      +                          6) * 2.048 * ((10+10)/10);
  5543  00A5  3012               	movlw	18
  5544  00A6  0140               	movlb	0	; select bank0
  5545  00A7  00BB               	movwf	___ftmul@f1
  5546  00A8  3083               	movlw	131
  5547  00A9  00BC               	movwf	___ftmul@f1+1
  5548  00AA  3040               	movlw	64
  5549  00AB  00BD               	movwf	___ftmul@f1+2
  5550  00AC  3000               	movlw	0
  5551  00AD  00AB               	movwf	___ftdiv@f2
  5552  00AE  3080               	movlw	128
  5553  00AF  00AC               	movwf	___ftdiv@f2+1
  5554  00B0  3045               	movlw	69
  5555  00B1  00AD               	movwf	___ftdiv@f2+2
  5556  00B2  0141               	movlb	1	; select bank1
  5557  00B3  0842               	movf	(_voltageLDRMeasured+1)^(0+128),w
  5558  00B4  0140               	movlb	0	; select bank0
  5559  00B5  00A9               	movwf	___lwtoft@c+1
  5560  00B6  0141               	movlb	1	; select bank1
  5561  00B7  0841               	movf	_voltageLDRMeasured^(0+128),w
  5562  00B8  0140               	movlb	0	; select bank0
  5563  00B9  00A8               	movwf	___lwtoft@c
  5564  00BA  318C  24D6  3180   	fcall	___lwtoft
  5565  00BD  0140               	movlb	0	; select bank0
  5566  00BE  0828               	movf	?___lwtoft,w
  5567  00BF  00AE               	movwf	___ftdiv@f1
  5568  00C0  0829               	movf	?___lwtoft+1,w
  5569  00C1  00AF               	movwf	___ftdiv@f1+1
  5570  00C2  082A               	movf	?___lwtoft+2,w
  5571  00C3  00B0               	movwf	___ftdiv@f1+2
  5572  00C4  3184  24AC  3180   	fcall	___ftdiv
  5573  00C7  0140               	movlb	0	; select bank0
  5574  00C8  082B               	movf	?___ftdiv,w
  5575  00C9  00BE               	movwf	___ftmul@f2
  5576  00CA  082C               	movf	?___ftdiv+1,w
  5577  00CB  00BF               	movwf	___ftmul@f2+1
  5578  00CC  082D               	movf	?___ftdiv+2,w
  5579  00CD  00C0               	movwf	___ftmul@f2+2
  5580  00CE  3183  23EB  3180   	fcall	___ftmul
  5581  00D1  0140               	movlb	0	; select bank0
  5582  00D2  083B               	movf	?___ftmul,w
  5583  00D3  0141               	movlb	1	; select bank1
  5584  00D4  00A9               	movwf	_floatVoltageLDRMeasured^(0+128)
  5585  00D5  0140               	movlb	0	; select bank0
  5586  00D6  083C               	movf	?___ftmul+1,w
  5587  00D7  0141               	movlb	1	; select bank1
  5588  00D8  00AA               	movwf	(_floatVoltageLDRMeasured+1)^(0+128)
  5589  00D9  0140               	movlb	0	; select bank0
  5590  00DA  083D               	movf	?___ftmul+2,w
  5591  00DB  0141               	movlb	1	; select bank1
  5592  00DC  00AB               	movwf	(_floatVoltageLDRMeasured+2)^(0+128)
  5593  00DD                     l5126:
  5594  00DD  0140               	movlb	0	; select bank0
  5595  00DE  101A               	bcf	26,0	;volatile
  5596  00DF                     l5128:
  5597  00DF  171A               	bsf	26,6	;volatile
  5598  00E0                     l5130:
  5599                           
  5600                           ;power.c: 142: _delay((unsigned long)((10)*(32000000/4000.0)));
  5601  00E0  3068               	movlw	104
  5602  00E1  0141               	movlb	1	; select bank1
  5603  00E2  00CC               	movwf	??_measure^(0+128)
  5604  00E3  30E4               	movlw	228
  5605  00E4                     u5497:
  5606  00E4  0B89               	decfsz	9,f
  5607  00E5  28E4               	goto	u5497
  5608  00E6  0BCC               	decfsz	??_measure^(0+128),f
  5609  00E7  28E4               	goto	u5497
  5610  00E8  0000               	nop
  5611                           
  5612                           ;power.c: 144: ADCC_GetSingleConversion(0x14);
  5613  00E9  3014               	movlw	20
  5614  00EA  318C  24C1  3180   	fcall	_ADCC_GetSingleConversion
  5615  00ED                     l5132:
  5616                           
  5617                           ;power.c: 145: voltageBatMeasured = ADCC_GetSingleConversion(0x14);
  5618  00ED  3014               	movlw	20
  5619  00EE  318C  24C1  3180   	fcall	_ADCC_GetSingleConversion
  5620  00F1  0140               	movlb	0	; select bank0
  5621  00F2  0821               	movf	?_ADCC_GetSingleConversion+1,w
  5622  00F3  0141               	movlb	1	; select bank1
  5623  00F4  00C4               	movwf	(_voltageBatMeasured+1)^(0+128)
  5624  00F5  0140               	movlb	0	; select bank0
  5625  00F6  0820               	movf	?_ADCC_GetSingleConversion,w
  5626  00F7  0141               	movlb	1	; select bank1
  5627  00F8  00C3               	movwf	_voltageBatMeasured^(0+128)
  5628  00F9                     l5134:
  5629                           
  5630                           ;power.c: 147: floatVoltageBatMeasured = ((float)voltageBatMeasured /4096) * 2.048 * ((1
      +                          0+4.5)/4.5);
  5631  00F9  302C               	movlw	44
  5632  00FA  0140               	movlb	0	; select bank0
  5633  00FB  00BB               	movwf	___ftmul@f1
  5634  00FC  30D3               	movlw	211
  5635  00FD  00BC               	movwf	___ftmul@f1+1
  5636  00FE  3040               	movlw	64
  5637  00FF  00BD               	movwf	___ftmul@f1+2
  5638  0100  3000               	movlw	0
  5639  0101  00AB               	movwf	___ftdiv@f2
  5640  0102  3080               	movlw	128
  5641  0103  00AC               	movwf	___ftdiv@f2+1
  5642  0104  3045               	movlw	69
  5643  0105  00AD               	movwf	___ftdiv@f2+2
  5644  0106  0141               	movlb	1	; select bank1
  5645  0107  0844               	movf	(_voltageBatMeasured+1)^(0+128),w
  5646  0108  0140               	movlb	0	; select bank0
  5647  0109  00A9               	movwf	___lwtoft@c+1
  5648  010A  0141               	movlb	1	; select bank1
  5649  010B  0843               	movf	_voltageBatMeasured^(0+128),w
  5650  010C  0140               	movlb	0	; select bank0
  5651  010D  00A8               	movwf	___lwtoft@c
  5652  010E  318C  24D6  3180   	fcall	___lwtoft
  5653  0111  0140               	movlb	0	; select bank0
  5654  0112  0828               	movf	?___lwtoft,w
  5655  0113  00AE               	movwf	___ftdiv@f1
  5656  0114  0829               	movf	?___lwtoft+1,w
  5657  0115  00AF               	movwf	___ftdiv@f1+1
  5658  0116  082A               	movf	?___lwtoft+2,w
  5659  0117  00B0               	movwf	___ftdiv@f1+2
  5660  0118  3184  24AC  3180   	fcall	___ftdiv
  5661  011B  0140               	movlb	0	; select bank0
  5662  011C  082B               	movf	?___ftdiv,w
  5663  011D  00BE               	movwf	___ftmul@f2
  5664  011E  082C               	movf	?___ftdiv+1,w
  5665  011F  00BF               	movwf	___ftmul@f2+1
  5666  0120  082D               	movf	?___ftdiv+2,w
  5667  0121  00C0               	movwf	___ftmul@f2+2
  5668  0122  3183  23EB  3180   	fcall	___ftmul
  5669  0125  0140               	movlb	0	; select bank0
  5670  0126  083B               	movf	?___ftmul,w
  5671  0127  0141               	movlb	1	; select bank1
  5672  0128  00AC               	movwf	_floatVoltageBatMeasured^(0+128)
  5673  0129  0140               	movlb	0	; select bank0
  5674  012A  083C               	movf	?___ftmul+1,w
  5675  012B  0141               	movlb	1	; select bank1
  5676  012C  00AD               	movwf	(_floatVoltageBatMeasured+1)^(0+128)
  5677  012D  0140               	movlb	0	; select bank0
  5678  012E  083D               	movf	?___ftmul+2,w
  5679  012F  0141               	movlb	1	; select bank1
  5680  0130  00AE               	movwf	(_floatVoltageBatMeasured+2)^(0+128)
  5681  0131                     l5136:
  5682  0131  0140               	movlb	0	; select bank0
  5683  0132  131A               	bcf	26,6	;volatile
  5684  0133                     l5138:
  5685                           
  5686                           ;power.c: 152: if(floatVoltageBatMeasured < floatBatThresholdLevel){
  5687  0133  0141               	movlb	1	; select bank1
  5688  0134  082C               	movf	_floatVoltageBatMeasured^(0+128),w
  5689  0135  0140               	movlb	0	; select bank0
  5690  0136  00A0               	movwf	___ftge@ff1
  5691  0137  0141               	movlb	1	; select bank1
  5692  0138  082D               	movf	(_floatVoltageBatMeasured+1)^(0+128),w
  5693  0139  0140               	movlb	0	; select bank0
  5694  013A  00A1               	movwf	___ftge@ff1+1
  5695  013B  0141               	movlb	1	; select bank1
  5696  013C  082E               	movf	(_floatVoltageBatMeasured+2)^(0+128),w
  5697  013D  0140               	movlb	0	; select bank0
  5698  013E  00A2               	movwf	___ftge@ff1+2
  5699  013F  0141               	movlb	1	; select bank1
  5700  0140  0826               	movf	_floatBatThresholdLevel^(0+128),w
  5701  0141  0140               	movlb	0	; select bank0
  5702  0142  00A3               	movwf	___ftge@ff2
  5703  0143  0141               	movlb	1	; select bank1
  5704  0144  0827               	movf	(_floatBatThresholdLevel+1)^(0+128),w
  5705  0145  0140               	movlb	0	; select bank0
  5706  0146  00A4               	movwf	___ftge@ff2+1
  5707  0147  0141               	movlb	1	; select bank1
  5708  0148  0828               	movf	(_floatBatThresholdLevel+2)^(0+128),w
  5709  0149  0140               	movlb	0	; select bank0
  5710  014A  00A5               	movwf	___ftge@ff2+2
  5711  014B  318D  25FE  3180   	fcall	___ftge
  5712  014E  1803               	btfsc	3,0
  5713  014F  2951               	goto	u5141
  5714  0150  2952               	goto	u5140
  5715  0151                     u5141:
  5716  0151  2955               	goto	l5142
  5717  0152                     u5140:
  5718  0152                     l5140:
  5719                           
  5720                           ;power.c: 153: alertThreshold = 1;
  5721  0152  0141               	movlb	1	; select bank1
  5722  0153  01BA               	clrf	_alertThreshold^(0+128)
  5723  0154  0ABA               	incf	_alertThreshold^(0+128),f
  5724  0155                     l5142:
  5725                           
  5726                           ;power.c: 154: };power.c: 157: uint16_t databatvoltage = (uint16_t)(round(floatVoltageBa
      +                          tMeasured * 600));
  5727  0155  0141               	movlb	1	; select bank1
  5728  0156  082C               	movf	_floatVoltageBatMeasured^(0+128),w
  5729  0157  0140               	movlb	0	; select bank0
  5730  0158  00BE               	movwf	___ftmul@f2
  5731  0159  0141               	movlb	1	; select bank1
  5732  015A  082D               	movf	(_floatVoltageBatMeasured+1)^(0+128),w
  5733  015B  0140               	movlb	0	; select bank0
  5734  015C  00BF               	movwf	___ftmul@f2+1
  5735  015D  0141               	movlb	1	; select bank1
  5736  015E  082E               	movf	(_floatVoltageBatMeasured+2)^(0+128),w
  5737  015F  0140               	movlb	0	; select bank0
  5738  0160  00C0               	movwf	___ftmul@f2+2
  5739  0161  3000               	movlw	0
  5740  0162  00BB               	movwf	___ftmul@f1
  5741  0163  3016               	movlw	22
  5742  0164  00BC               	movwf	___ftmul@f1+1
  5743  0165  3044               	movlw	68
  5744  0166  00BD               	movwf	___ftmul@f1+2
  5745  0167  3183  23EB  3180   	fcall	___ftmul
  5746  016A  0140               	movlb	0	; select bank0
  5747  016B  083B               	movf	?___ftmul,w
  5748  016C  0141               	movlb	1	; select bank1
  5749  016D  00C6               	movwf	round@x^(0+128)
  5750  016E  0140               	movlb	0	; select bank0
  5751  016F  083C               	movf	?___ftmul+1,w
  5752  0170  0141               	movlb	1	; select bank1
  5753  0171  00C7               	movwf	(round@x+1)^(0+128)
  5754  0172  0140               	movlb	0	; select bank0
  5755  0173  083D               	movf	?___ftmul+2,w
  5756  0174  0141               	movlb	1	; select bank1
  5757  0175  00C8               	movwf	(round@x+2)^(0+128)
  5758  0176  3187  276C  3180   	fcall	_round
  5759  0179  0141               	movlb	1	; select bank1
  5760  017A  0846               	movf	?_round^(0+128),w
  5761  017B  00D2               	movwf	_measure$2342^(0+128)
  5762  017C  0847               	movf	(?_round+1)^(0+128),w
  5763  017D  00D3               	movwf	(_measure$2342+1)^(0+128)
  5764  017E  0848               	movf	(?_round+2)^(0+128),w
  5765  017F  00D4               	movwf	(_measure$2342+2)^(0+128)
  5766  0180                     l5144:
  5767                           
  5768                           ;power.c: 154: };power.c: 157: uint16_t databatvoltage = (uint16_t)(round(floatVoltageBa
      +                          tMeasured * 600));
  5769  0180  0852               	movf	_measure$2342^(0+128),w
  5770  0181  0140               	movlb	0	; select bank0
  5771  0182  00A0               	movwf	___fttol@f1
  5772  0183  0141               	movlb	1	; select bank1
  5773  0184  0853               	movf	(_measure$2342+1)^(0+128),w
  5774  0185  0140               	movlb	0	; select bank0
  5775  0186  00A1               	movwf	___fttol@f1+1
  5776  0187  0141               	movlb	1	; select bank1
  5777  0188  0854               	movf	(_measure$2342+2)^(0+128),w
  5778  0189  0140               	movlb	0	; select bank0
  5779  018A  00A2               	movwf	___fttol@f1+2
  5780  018B  3185  25FB  3180   	fcall	___fttol
  5781  018E  0140               	movlb	0	; select bank0
  5782  018F  0821               	movf	?___fttol+1,w
  5783  0190  0141               	movlb	1	; select bank1
  5784  0191  00CF               	movwf	(measure@databatvoltage+1)^(0+128)
  5785  0192  0140               	movlb	0	; select bank0
  5786  0193  0820               	movf	?___fttol,w
  5787  0194  0141               	movlb	1	; select bank1
  5788  0195  00CE               	movwf	measure@databatvoltage^(0+128)
  5789  0196                     l5146:
  5790                           
  5791                           ;power.c: 158: uint16_t datasolvoltage = (uint16_t)(round(floatVoltageLDRMeasured * 600)
      +                          );
  5792  0196  0829               	movf	_floatVoltageLDRMeasured^(0+128),w
  5793  0197  0140               	movlb	0	; select bank0
  5794  0198  00BE               	movwf	___ftmul@f2
  5795  0199  0141               	movlb	1	; select bank1
  5796  019A  082A               	movf	(_floatVoltageLDRMeasured+1)^(0+128),w
  5797  019B  0140               	movlb	0	; select bank0
  5798  019C  00BF               	movwf	___ftmul@f2+1
  5799  019D  0141               	movlb	1	; select bank1
  5800  019E  082B               	movf	(_floatVoltageLDRMeasured+2)^(0+128),w
  5801  019F  0140               	movlb	0	; select bank0
  5802  01A0  00C0               	movwf	___ftmul@f2+2
  5803  01A1  3000               	movlw	0
  5804  01A2  00BB               	movwf	___ftmul@f1
  5805  01A3  3016               	movlw	22
  5806  01A4  00BC               	movwf	___ftmul@f1+1
  5807  01A5  3044               	movlw	68
  5808  01A6  00BD               	movwf	___ftmul@f1+2
  5809  01A7  3183  23EB  3180   	fcall	___ftmul
  5810  01AA  0140               	movlb	0	; select bank0
  5811  01AB  083B               	movf	?___ftmul,w
  5812  01AC  0141               	movlb	1	; select bank1
  5813  01AD  00C6               	movwf	round@x^(0+128)
  5814  01AE  0140               	movlb	0	; select bank0
  5815  01AF  083C               	movf	?___ftmul+1,w
  5816  01B0  0141               	movlb	1	; select bank1
  5817  01B1  00C7               	movwf	(round@x+1)^(0+128)
  5818  01B2  0140               	movlb	0	; select bank0
  5819  01B3  083D               	movf	?___ftmul+2,w
  5820  01B4  0141               	movlb	1	; select bank1
  5821  01B5  00C8               	movwf	(round@x+2)^(0+128)
  5822  01B6  3187  276C  3180   	fcall	_round
  5823  01B9  0141               	movlb	1	; select bank1
  5824  01BA  0846               	movf	?_round^(0+128),w
  5825  01BB  00D2               	movwf	_measure$2342^(0+128)
  5826  01BC  0847               	movf	(?_round+1)^(0+128),w
  5827  01BD  00D3               	movwf	(_measure$2342+1)^(0+128)
  5828  01BE  0848               	movf	(?_round+2)^(0+128),w
  5829  01BF  00D4               	movwf	(_measure$2342+2)^(0+128)
  5830                           
  5831                           ;power.c: 158: uint16_t datasolvoltage = (uint16_t)(round(floatVoltageLDRMeasured * 600)
      +                          );
  5832  01C0  0852               	movf	_measure$2342^(0+128),w
  5833  01C1  0140               	movlb	0	; select bank0
  5834  01C2  00A0               	movwf	___fttol@f1
  5835  01C3  0141               	movlb	1	; select bank1
  5836  01C4  0853               	movf	(_measure$2342+1)^(0+128),w
  5837  01C5  0140               	movlb	0	; select bank0
  5838  01C6  00A1               	movwf	___fttol@f1+1
  5839  01C7  0141               	movlb	1	; select bank1
  5840  01C8  0854               	movf	(_measure$2342+2)^(0+128),w
  5841  01C9  0140               	movlb	0	; select bank0
  5842  01CA  00A2               	movwf	___fttol@f1+2
  5843  01CB  3185  25FB  3180   	fcall	___fttol
  5844  01CE  0140               	movlb	0	; select bank0
  5845  01CF  0821               	movf	?___fttol+1,w
  5846  01D0  0141               	movlb	1	; select bank1
  5847  01D1  00D1               	movwf	(measure@datasolvoltage+1)^(0+128)
  5848  01D2  0140               	movlb	0	; select bank0
  5849  01D3  0820               	movf	?___fttol,w
  5850  01D4  0141               	movlb	1	; select bank1
  5851  01D5  00D0               	movwf	measure@datasolvoltage^(0+128)
  5852  01D6                     l5148:
  5853                           
  5854                           ;power.c: 160: measurementData[0] = (uint8_t)(databatvoltage>>8);
  5855  01D6  084F               	movf	(measure@databatvoltage+1)^(0+128),w
  5856  01D7  00CC               	movwf	??_measure^(0+128)
  5857  01D8  084C               	movf	??_measure^(0+128),w
  5858  01D9  00A0               	movwf	_measurementData^(0+128)	;volatile
  5859  01DA                     l5150:
  5860                           
  5861                           ;power.c: 161: measurementData[1] = (uint8_t)(databatvoltage);
  5862  01DA  084E               	movf	measure@databatvoltage^(0+128),w
  5863  01DB  00CC               	movwf	??_measure^(0+128)
  5864  01DC  084C               	movf	??_measure^(0+128),w
  5865  01DD  00A1               	movwf	(_measurementData^(0+128)+1)	;volatile
  5866  01DE                     l5152:
  5867                           
  5868                           ;power.c: 163: measurementData[2] = (uint8_t)(datasolvoltage>>8);
  5869  01DE  0851               	movf	(measure@datasolvoltage+1)^(0+128),w
  5870  01DF  00CC               	movwf	??_measure^(0+128)
  5871  01E0  084C               	movf	??_measure^(0+128),w
  5872  01E1  00A2               	movwf	(_measurementData^(0+128)+2)	;volatile
  5873  01E2                     l5154:
  5874                           
  5875                           ;power.c: 164: measurementData[3] = (uint8_t)(datasolvoltage);
  5876  01E2  0850               	movf	measure@datasolvoltage^(0+128),w
  5877  01E3  00CC               	movwf	??_measure^(0+128)
  5878  01E4  084C               	movf	??_measure^(0+128),w
  5879  01E5  00A3               	movwf	(_measurementData^(0+128)+3)	;volatile
  5880  01E6                     l5156:
  5881                           
  5882                           ;power.c: 166: measurementData[4] = 0x00;
  5883  01E6  01A4               	clrf	(_measurementData^(0+128)+4)	;volatile
  5884  01E7                     l5158:
  5885                           
  5886                           ;power.c: 167: measurementData[5] = 0x00;
  5887  01E7  01A5               	clrf	(_measurementData^(0+128)+5)	;volatile
  5888  01E8                     l5160:
  5889                           
  5890                           ;power.c: 169: MeasurementRunning = 0;
  5891  01E8  01BC               	clrf	_MeasurementRunning^(0+128)
  5892  01E9                     l5162:
  5893                           
  5894                           ;power.c: 170: FVRCON = 0x00;
  5895  01E9  0152               	movlb	18	; select bank18
  5896  01EA  018C               	clrf	12	;volatile
  5897  01EB                     l535:
  5898  01EB  0008               	return
  5899  01EC                     __end_of_measure:
  5900                           
  5901                           	psect	text11
  5902  076C                     __ptext11:	
  5903 ;; *************** function _round *****************
  5904 ;; Defined at:
  5905 ;;		line 6 in file "C:\Program Files\Microchip\xc8\v2.31\pic\sources\c90\common\round.c"
  5906 ;; Parameters:    Size  Location     Type
  5907 ;;  x               3    0[BANK1 ] void 
  5908 ;; Auto vars:     Size  Location     Type
  5909 ;;  f               3    3[BANK1 ] void 
  5910 ;; Return value:  Size  Location     Type
  5911 ;;                  3    0[BANK1 ] void 
  5912 ;; Registers used:
  5913 ;;		wreg, fsr1l, fsr1h, status,2, status,0, pclath, cstack
  5914 ;; Tracked objects:
  5915 ;;		On entry : 0/0
  5916 ;;		On exit  : 0/0
  5917 ;;		Unchanged: 0/0
  5918 ;; Data sizes:     COMMON   BANK0   BANK1   BANK2   BANK3   BANK4   BANK5   BANK6   BANK7   BANK8   BANK9  BANK10  BANK1
      +1  BANK12  BANK13  BANK14  BANK15  BANK16  BANK17  BANK18  BANK19  BANK20  BANK21  BANK22  BANK23  BANK24  BANK25
  5919 ;;      Params:         0       0       3       0       0       0       0       0       0       0       0       0       
      +0       0       0       0       0       0       0       0       0       0       0       0       0       0       0
  5920 ;;      Locals:         0       0       3       0       0       0       0       0       0       0       0       0       
      +0       0       0       0       0       0       0       0       0       0       0       0       0       0       0
  5921 ;;      Temps:          0       0       0       0       0       0       0       0       0       0       0       0       
      +0       0       0       0       0       0       0       0       0       0       0       0       0       0       0
  5922 ;;      Totals:         0       0       6       0       0       0       0       0       0       0       0       0       
      +0       0       0       0       0       0       0       0       0       0       0       0       0       0       0
  5923 ;;Total ram usage:        6 bytes
  5924 ;; Hardware stack levels used:    1
  5925 ;; Hardware stack levels required when called:    6
  5926 ;; This function calls:
  5927 ;;		___ftadd
  5928 ;;		___ftsub
  5929 ;;		_trunc
  5930 ;; This function is called by:
  5931 ;;		_measure
  5932 ;; This function uses a non-reentrant model
  5933 ;;
  5934                           
  5935                           
  5936                           ;psect for function _round
  5937  076C                     _round:
  5938  076C                     l4896:	
  5939                           ;incstack = 0
  5940                           ; Regs used in _round: [wreg+fsr1l+fsr1h+status,2+status,0+pclath+cstack]
  5941                           
  5942  076C  0141               	movlb	1	; select bank1
  5943  076D  0846               	movf	round@x^(0+128),w
  5944  076E  0140               	movlb	0	; select bank0
  5945  076F  00B6               	movwf	trunc@x
  5946  0770  0141               	movlb	1	; select bank1
  5947  0771  0847               	movf	(round@x+1)^(0+128),w
  5948  0772  0140               	movlb	0	; select bank0
  5949  0773  00B7               	movwf	trunc@x+1
  5950  0774  0141               	movlb	1	; select bank1
  5951  0775  0848               	movf	(round@x+2)^(0+128),w
  5952  0776  0140               	movlb	0	; select bank0
  5953  0777  00B8               	movwf	trunc@x+2
  5954  0778  318E  26B8  3187   	fcall	_trunc
  5955  077B  0140               	movlb	0	; select bank0
  5956  077C  0836               	movf	?_trunc,w
  5957  077D  00BF               	movwf	___ftsub@f2
  5958  077E  0837               	movf	?_trunc+1,w
  5959  077F  00C0               	movwf	___ftsub@f2+1
  5960  0780  0838               	movf	?_trunc+2,w
  5961  0781  00C1               	movwf	___ftsub@f2+2
  5962  0782  0141               	movlb	1	; select bank1
  5963  0783  0846               	movf	round@x^(0+128),w
  5964  0784  0140               	movlb	0	; select bank0
  5965  0785  00C2               	movwf	___ftsub@f1
  5966  0786  0141               	movlb	1	; select bank1
  5967  0787  0847               	movf	(round@x+1)^(0+128),w
  5968  0788  0140               	movlb	0	; select bank0
  5969  0789  00C3               	movwf	___ftsub@f1+1
  5970  078A  0141               	movlb	1	; select bank1
  5971  078B  0848               	movf	(round@x+2)^(0+128),w
  5972  078C  0140               	movlb	0	; select bank0
  5973  078D  00C4               	movwf	___ftsub@f1+2
  5974  078E  318D  250B  3187   	fcall	___ftsub
  5975  0791  0140               	movlb	0	; select bank0
  5976  0792  083F               	movf	?___ftsub,w
  5977  0793  0141               	movlb	1	; select bank1
  5978  0794  00C9               	movwf	round@f^(0+128)
  5979  0795  0140               	movlb	0	; select bank0
  5980  0796  0840               	movf	?___ftsub+1,w
  5981  0797  0141               	movlb	1	; select bank1
  5982  0798  00CA               	movwf	(round@f+1)^(0+128)
  5983  0799  0140               	movlb	0	; select bank0
  5984  079A  0841               	movf	?___ftsub+2,w
  5985  079B  0141               	movlb	1	; select bank1
  5986  079C  00CB               	movwf	(round@f+2)^(0+128)
  5987  079D                     l4898:
  5988  079D  0849               	movf	round@f^(0+128),w
  5989  079E  0140               	movlb	0	; select bank0
  5990  079F  00A8               	movwf	___ftadd@f1
  5991  07A0  0141               	movlb	1	; select bank1
  5992  07A1  084A               	movf	(round@f+1)^(0+128),w
  5993  07A2  0140               	movlb	0	; select bank0
  5994  07A3  00A9               	movwf	___ftadd@f1+1
  5995  07A4  0141               	movlb	1	; select bank1
  5996  07A5  084B               	movf	(round@f+2)^(0+128),w
  5997  07A6  0140               	movlb	0	; select bank0
  5998  07A7  00AA               	movwf	___ftadd@f1+2
  5999  07A8  0141               	movlb	1	; select bank1
  6000  07A9  0846               	movf	round@x^(0+128),w
  6001  07AA  0140               	movlb	0	; select bank0
  6002  07AB  00AB               	movwf	___ftadd@f2
  6003  07AC  0141               	movlb	1	; select bank1
  6004  07AD  0847               	movf	(round@x+1)^(0+128),w
  6005  07AE  0140               	movlb	0	; select bank0
  6006  07AF  00AC               	movwf	___ftadd@f2+1
  6007  07B0  0141               	movlb	1	; select bank1
  6008  07B1  0848               	movf	(round@x+2)^(0+128),w
  6009  07B2  0140               	movlb	0	; select bank0
  6010  07B3  00AD               	movwf	___ftadd@f2+2
  6011  07B4  3181  21EC  3187   	fcall	___ftadd
  6012  07B7  0140               	movlb	0	; select bank0
  6013  07B8  0828               	movf	?___ftadd,w
  6014  07B9  0141               	movlb	1	; select bank1
  6015  07BA  00C6               	movwf	round@x^(0+128)
  6016  07BB  0140               	movlb	0	; select bank0
  6017  07BC  0829               	movf	?___ftadd+1,w
  6018  07BD  0141               	movlb	1	; select bank1
  6019  07BE  00C7               	movwf	(round@x+1)^(0+128)
  6020  07BF  0140               	movlb	0	; select bank0
  6021  07C0  082A               	movf	?___ftadd+2,w
  6022  07C1  0141               	movlb	1	; select bank1
  6023  07C2  00C8               	movwf	(round@x+2)^(0+128)
  6024  07C3                     l4900:
  6025  07C3  0846               	movf	round@x^(0+128),w
  6026  07C4  0140               	movlb	0	; select bank0
  6027  07C5  00B6               	movwf	trunc@x
  6028  07C6  0141               	movlb	1	; select bank1
  6029  07C7  0847               	movf	(round@x+1)^(0+128),w
  6030  07C8  0140               	movlb	0	; select bank0
  6031  07C9  00B7               	movwf	trunc@x+1
  6032  07CA  0141               	movlb	1	; select bank1
  6033  07CB  0848               	movf	(round@x+2)^(0+128),w
  6034  07CC  0140               	movlb	0	; select bank0
  6035  07CD  00B8               	movwf	trunc@x+2
  6036  07CE  318E  26B8  3187   	fcall	_trunc
  6037  07D1  0140               	movlb	0	; select bank0
  6038  07D2  0836               	movf	?_trunc,w
  6039  07D3  0141               	movlb	1	; select bank1
  6040  07D4  00C6               	movwf	?_round^(0+128)
  6041  07D5  0140               	movlb	0	; select bank0
  6042  07D6  0837               	movf	?_trunc+1,w
  6043  07D7  0141               	movlb	1	; select bank1
  6044  07D8  00C7               	movwf	(?_round+1)^(0+128)
  6045  07D9  0140               	movlb	0	; select bank0
  6046  07DA  0838               	movf	?_trunc+2,w
  6047  07DB  0141               	movlb	1	; select bank1
  6048  07DC  00C8               	movwf	(?_round+2)^(0+128)
  6049  07DD                     l1291:
  6050  07DD  0008               	return
  6051  07DE                     __end_of_round:
  6052                           
  6053                           	psect	text12
  6054  0EB8                     __ptext12:	
  6055 ;; *************** function _trunc *****************
  6056 ;; Defined at:
  6057 ;;		line 13 in file "C:\Program Files\Microchip\xc8\v2.31\pic\sources\c90\common\trunc.c"
  6058 ;; Parameters:    Size  Location     Type
  6059 ;;  x               3   22[BANK0 ] void 
  6060 ;; Auto vars:     Size  Location     Type
  6061 ;;  i               3   26[BANK0 ] void 
  6062 ;;  expon           2   29[BANK0 ] int 
  6063 ;; Return value:  Size  Location     Type
  6064 ;;                  3   22[BANK0 ] int 
  6065 ;; Registers used:
  6066 ;;		wreg, fsr1l, fsr1h, status,2, status,0, pclath, cstack
  6067 ;; Tracked objects:
  6068 ;;		On entry : 0/0
  6069 ;;		On exit  : 0/0
  6070 ;;		Unchanged: 0/0
  6071 ;; Data sizes:     COMMON   BANK0   BANK1   BANK2   BANK3   BANK4   BANK5   BANK6   BANK7   BANK8   BANK9  BANK10  BANK1
      +1  BANK12  BANK13  BANK14  BANK15  BANK16  BANK17  BANK18  BANK19  BANK20  BANK21  BANK22  BANK23  BANK24  BANK25
  6072 ;;      Params:         0       3       0       0       0       0       0       0       0       0       0       0       
      +0       0       0       0       0       0       0       0       0       0       0       0       0       0       0
  6073 ;;      Locals:         0       5       0       0       0       0       0       0       0       0       0       0       
      +0       0       0       0       0       0       0       0       0       0       0       0       0       0       0
  6074 ;;      Temps:          0       1       0       0       0       0       0       0       0       0       0       0       
      +0       0       0       0       0       0       0       0       0       0       0       0       0       0       0
  6075 ;;      Totals:         0       9       0       0       0       0       0       0       0       0       0       0       
      +0       0       0       0       0       0       0       0       0       0       0       0       0       0       0
  6076 ;;Total ram usage:        9 bytes
  6077 ;; Hardware stack levels used:    1
  6078 ;; Hardware stack levels required when called:    5
  6079 ;; This function calls:
  6080 ;;		___altoft
  6081 ;;		___fttol
  6082 ;;		_frexp
  6083 ;; This function is called by:
  6084 ;;		_round
  6085 ;; This function uses a non-reentrant model
  6086 ;;
  6087                           
  6088                           
  6089                           ;psect for function _trunc
  6090  0EB8                     _trunc:
  6091  0EB8                     l4866:	
  6092                           ;incstack = 0
  6093                           ; Regs used in _trunc: [wreg+fsr1l+fsr1h+status,2+status,0+pclath+cstack]
  6094                           
  6095  0EB8  0140               	movlb	0	; select bank0
  6096  0EB9  0836               	movf	trunc@x,w
  6097  0EBA  00A0               	movwf	frexp@value
  6098  0EBB  0837               	movf	trunc@x+1,w
  6099  0EBC  00A1               	movwf	frexp@value+1
  6100  0EBD  0838               	movf	trunc@x+2,w
  6101  0EBE  00A2               	movwf	frexp@value+2
  6102  0EBF  303D               	movlw	(low (trunc@expon| 0))& (0+255)
  6103  0EC0  00B9               	movwf	??_trunc
  6104  0EC1  0839               	movf	??_trunc,w
  6105  0EC2  00A3               	movwf	frexp@eptr
  6106  0EC3  318D  25C6  318E   	fcall	_frexp
  6107  0EC6                     l4868:
  6108  0EC6  0140               	movlb	0	; select bank0
  6109  0EC7  1FBE               	btfss	trunc@expon+1,7
  6110  0EC8  2ECA               	goto	u4871
  6111  0EC9  2ECB               	goto	u4870
  6112  0ECA                     u4871:
  6113  0ECA  2ED2               	goto	l4874
  6114  0ECB                     u4870:
  6115  0ECB                     l4870:
  6116  0ECB  3000               	movlw	0
  6117  0ECC  00B6               	movwf	?_trunc
  6118  0ECD  3000               	movlw	0
  6119  0ECE  00B7               	movwf	?_trunc+1
  6120  0ECF  3000               	movlw	0
  6121  0ED0  00B8               	movwf	?_trunc+2
  6122  0ED1  2EFE               	goto	l1297
  6123  0ED2                     l4874:
  6124  0ED2  3000               	movlw	0
  6125  0ED3  023E               	subwf	trunc@expon+1,w
  6126  0ED4  3015               	movlw	21
  6127  0ED5  1903               	skipnz
  6128  0ED6  023D               	subwf	trunc@expon,w
  6129  0ED7  1C03               	skipc
  6130  0ED8  2EDA               	goto	u4881
  6131  0ED9  2EDB               	goto	u4880
  6132  0EDA                     u4881:
  6133  0EDA  2EDC               	goto	l4878
  6134  0EDB                     u4880:
  6135  0EDB                     l4876:
  6136  0EDB  2EFE               	goto	l1297
  6137  0EDC                     l4878:
  6138  0EDC  0836               	movf	trunc@x,w
  6139  0EDD  00A0               	movwf	___fttol@f1
  6140  0EDE  0837               	movf	trunc@x+1,w
  6141  0EDF  00A1               	movwf	___fttol@f1+1
  6142  0EE0  0838               	movf	trunc@x+2,w
  6143  0EE1  00A2               	movwf	___fttol@f1+2
  6144  0EE2  3185  25FB  318E   	fcall	___fttol
  6145  0EE5  0140               	movlb	0	; select bank0
  6146  0EE6  0823               	movf	?___fttol+3,w
  6147  0EE7  00B1               	movwf	___altoft@c+3
  6148  0EE8  0822               	movf	?___fttol+2,w
  6149  0EE9  00B0               	movwf	___altoft@c+2
  6150  0EEA  0821               	movf	?___fttol+1,w
  6151  0EEB  00AF               	movwf	___altoft@c+1
  6152  0EEC  0820               	movf	?___fttol,w
  6153  0EED  00AE               	movwf	___altoft@c
  6154  0EEE  318E  2676  318E   	fcall	___altoft
  6155  0EF1  0140               	movlb	0	; select bank0
  6156  0EF2  082E               	movf	?___altoft,w
  6157  0EF3  00BA               	movwf	trunc@i
  6158  0EF4  082F               	movf	?___altoft+1,w
  6159  0EF5  00BB               	movwf	trunc@i+1
  6160  0EF6  0830               	movf	?___altoft+2,w
  6161  0EF7  00BC               	movwf	trunc@i+2
  6162  0EF8                     l4880:
  6163  0EF8  083A               	movf	trunc@i,w
  6164  0EF9  00B6               	movwf	?_trunc
  6165  0EFA  083B               	movf	trunc@i+1,w
  6166  0EFB  00B7               	movwf	?_trunc+1
  6167  0EFC  083C               	movf	trunc@i+2,w
  6168  0EFD  00B8               	movwf	?_trunc+2
  6169  0EFE                     l1297:
  6170  0EFE  0008               	return
  6171  0EFF                     __end_of_trunc:
  6172                           
  6173                           	psect	text13
  6174  0DC6                     __ptext13:	
  6175 ;; *************** function _frexp *****************
  6176 ;; Defined at:
  6177 ;;		line 254 in file "C:\Program Files\Microchip\xc8\v2.31\pic\sources\c90\common\frexp.c"
  6178 ;; Parameters:    Size  Location     Type
  6179 ;;  value           3    0[BANK0 ] int 
  6180 ;;  eptr            1    3[BANK0 ] PTR int 
  6181 ;;		 -> trunc@expon(2), 
  6182 ;; Auto vars:     Size  Location     Type
  6183 ;;		None
  6184 ;; Return value:  Size  Location     Type
  6185 ;;                  3    0[BANK0 ] PTR int 
  6186 ;; Registers used:
  6187 ;;		wreg, fsr1l, fsr1h, status,2, status,0
  6188 ;; Tracked objects:
  6189 ;;		On entry : 0/0
  6190 ;;		On exit  : 0/0
  6191 ;;		Unchanged: 0/0
  6192 ;; Data sizes:     COMMON   BANK0   BANK1   BANK2   BANK3   BANK4   BANK5   BANK6   BANK7   BANK8   BANK9  BANK10  BANK1
      +1  BANK12  BANK13  BANK14  BANK15  BANK16  BANK17  BANK18  BANK19  BANK20  BANK21  BANK22  BANK23  BANK24  BANK25
  6193 ;;      Params:         0       4       0       0       0       0       0       0       0       0       0       0       
      +0       0       0       0       0       0       0       0       0       0       0       0       0       0       0
  6194 ;;      Locals:         0       0       0       0       0       0       0       0       0       0       0       0       
      +0       0       0       0       0       0       0       0       0       0       0       0       0       0       0
  6195 ;;      Temps:          2       0       0       0       0       0       0       0       0       0       0       0       
      +0       0       0       0       0       0       0       0       0       0       0       0       0       0       0
  6196 ;;      Totals:         2       4       0       0       0       0       0       0       0       0       0       0       
      +0       0       0       0       0       0       0       0       0       0       0       0       0       0       0
  6197 ;;Total ram usage:        6 bytes
  6198 ;; Hardware stack levels used:    1
  6199 ;; Hardware stack levels required when called:    3
  6200 ;; This function calls:
  6201 ;;		Nothing
  6202 ;; This function is called by:
  6203 ;;		_trunc
  6204 ;; This function uses a non-reentrant model
  6205 ;;
  6206                           
  6207                           
  6208                           ;psect for function _frexp
  6209  0DC6                     _frexp:
  6210  0DC6                     l4842:	
  6211                           ;incstack = 0
  6212                           ; Regs used in _frexp: [wreg+fsr1l+fsr1h+status,2+status,0]
  6213                           
  6214  0DC6  0140               	movlb	0	; select bank0
  6215  0DC7  0822               	movf	frexp@value+2,w
  6216  0DC8  0421               	iorwf	frexp@value+1,w
  6217  0DC9  0420               	iorwf	frexp@value,w
  6218  0DCA  1D03               	skipz
  6219  0DCB  2DCD               	goto	u4851
  6220  0DCC  2DCE               	goto	u4850
  6221  0DCD                     u4851:
  6222  0DCD  2DD5               	goto	l4848
  6223  0DCE                     u4850:
  6224  0DCE                     l4844:
  6225  0DCE  0823               	movf	frexp@eptr,w
  6226  0DCF  0086               	movwf	6
  6227  0DD0  0187               	clrf	7
  6228  0DD1  3000               	movlw	0
  6229  0DD2  3FC0               	movwi [0]fsr1
  6230  0DD3  3FC1               	movwi [1]fsr1
  6231  0DD4  2DFD               	goto	l1304
  6232  0DD5                     l4848:
  6233  0DD5  0822               	movf	frexp@value+2,w
  6234  0DD6  397F               	andlw	127
  6235  0DD7  00F4               	movwf	??_frexp
  6236  0DD8  01F5               	clrf	??_frexp+1
  6237  0DD9  35F4               	lslf	??_frexp,f
  6238  0DDA  0DF5               	rlf	??_frexp+1,f
  6239  0DDB  0823               	movf	frexp@eptr,w
  6240  0DDC  0086               	movwf	6
  6241  0DDD  0187               	clrf	7
  6242  0DDE  0874               	movf	??_frexp,w
  6243  0DDF  3FC0               	movwi [0]fsr1
  6244  0DE0  0875               	movf	??_frexp+1,w
  6245  0DE1  3FC1               	movwi [1]fsr1
  6246  0DE2  0D21               	rlf	frexp@value+1,w
  6247  0DE3  0D21               	rlf	frexp@value+1,w
  6248  0DE4  3901               	andlw	1
  6249  0DE5  00F4               	movwf	??_frexp
  6250  0DE6  01F5               	clrf	??_frexp+1
  6251  0DE7  0823               	movf	frexp@eptr,w
  6252  0DE8  0086               	movwf	6
  6253  0DE9  0187               	clrf	7
  6254  0DEA  0874               	movf	??_frexp,w
  6255  0DEB  0481               	iorwf	1,f
  6256  0DEC  3141               	addfsr 1,1
  6257  0DED  0875               	movf	??_frexp+1,w
  6258  0DEE  0481               	iorwf	1,f
  6259  0DEF                     l4850:
  6260  0DEF  0823               	movf	frexp@eptr,w
  6261  0DF0  0086               	movwf	6
  6262  0DF1  0187               	clrf	7
  6263  0DF2  3082               	movlw	130
  6264  0DF3  0781               	addwf	1,f
  6265  0DF4  3141               	addfsr 1,1
  6266  0DF5  30FF               	movlw	255
  6267  0DF6  3D81               	addwfc	1,f
  6268  0DF7  317F               	addfsr 1,-1
  6269  0DF8                     l4852:
  6270  0DF8  0822               	movf	frexp@value+2,w
  6271  0DF9  3980               	andlw	-128
  6272  0DFA  383F               	iorlw	63
  6273  0DFB  00A2               	movwf	frexp@value+2
  6274  0DFC                     l4854:
  6275  0DFC  13A1               	bcf	frexp@value+1,7
  6276  0DFD                     l1304:
  6277  0DFD  0008               	return
  6278  0DFE                     __end_of_frexp:
  6279                           
  6280                           	psect	text14
  6281  05FB                     __ptext14:	
  6282 ;; *************** function ___fttol *****************
  6283 ;; Defined at:
  6284 ;;		line 44 in file "C:\Program Files\Microchip\xc8\v2.31\pic\sources\c90\common\fttol.c"
  6285 ;; Parameters:    Size  Location     Type
  6286 ;;  f1              3    0[BANK0 ] float 
  6287 ;; Auto vars:     Size  Location     Type
  6288 ;;  lval            4    9[BANK0 ] unsigned long 
  6289 ;;  exp1            1   13[BANK0 ] unsigned char 
  6290 ;;  sign1           1    8[BANK0 ] unsigned char 
  6291 ;; Return value:  Size  Location     Type
  6292 ;;                  4    0[BANK0 ] long 
  6293 ;; Registers used:
  6294 ;;		wreg, status,2, status,0
  6295 ;; Tracked objects:
  6296 ;;		On entry : 0/0
  6297 ;;		On exit  : 0/0
  6298 ;;		Unchanged: 0/0
  6299 ;; Data sizes:     COMMON   BANK0   BANK1   BANK2   BANK3   BANK4   BANK5   BANK6   BANK7   BANK8   BANK9  BANK10  BANK1
      +1  BANK12  BANK13  BANK14  BANK15  BANK16  BANK17  BANK18  BANK19  BANK20  BANK21  BANK22  BANK23  BANK24  BANK25
  6300 ;;      Params:         0       4       0       0       0       0       0       0       0       0       0       0       
      +0       0       0       0       0       0       0       0       0       0       0       0       0       0       0
  6301 ;;      Locals:         0       6       0       0       0       0       0       0       0       0       0       0       
      +0       0       0       0       0       0       0       0       0       0       0       0       0       0       0
  6302 ;;      Temps:          0       4       0       0       0       0       0       0       0       0       0       0       
      +0       0       0       0       0       0       0       0       0       0       0       0       0       0       0
  6303 ;;      Totals:         0      14       0       0       0       0       0       0       0       0       0       0       
      +0       0       0       0       0       0       0       0       0       0       0       0       0       0       0
  6304 ;;Total ram usage:       14 bytes
  6305 ;; Hardware stack levels used:    1
  6306 ;; Hardware stack levels required when called:    3
  6307 ;; This function calls:
  6308 ;;		Nothing
  6309 ;; This function is called by:
  6310 ;;		_measure
  6311 ;;		_trunc
  6312 ;; This function uses a non-reentrant model
  6313 ;;
  6314                           
  6315                           
  6316                           ;psect for function ___fttol
  6317  05FB                     ___fttol:
  6318  05FB                     l4800:	
  6319                           ;incstack = 0
  6320                           ; Regs used in ___fttol: [wreg+status,2+status,0]
  6321                           
  6322  05FB  0140               	movlb	0	; select bank0
  6323  05FC  0820               	movf	___fttol@f1,w
  6324  05FD  00A4               	movwf	??___fttol
  6325  05FE  0821               	movf	___fttol@f1+1,w
  6326  05FF  00A5               	movwf	??___fttol+1
  6327  0600  0822               	movf	___fttol@f1+2,w
  6328  0601  00A6               	movwf	??___fttol+2
  6329  0602  1003               	clrc
  6330  0603  0D25               	rlf	??___fttol+1,w
  6331  0604  0D26               	rlf	??___fttol+2,w
  6332  0605  00A7               	movwf	??___fttol+3
  6333  0606  0827               	movf	??___fttol+3,w
  6334  0607  00AD               	movwf	___fttol@exp1
  6335  0608  082D               	movf	___fttol@exp1,w
  6336  0609  1D03               	btfss	3,2
  6337  060A  2E0C               	goto	u4751
  6338  060B  2E0D               	goto	u4750
  6339  060C                     u4751:
  6340  060C  2E16               	goto	l4806
  6341  060D                     u4750:
  6342  060D                     l4802:
  6343  060D  3000               	movlw	0
  6344  060E  00A3               	movwf	?___fttol+3
  6345  060F  3000               	movlw	0
  6346  0610  00A2               	movwf	?___fttol+2
  6347  0611  3000               	movlw	0
  6348  0612  00A1               	movwf	?___fttol+1
  6349  0613  3000               	movlw	0
  6350  0614  00A0               	movwf	?___fttol
  6351  0615  2E7F               	goto	l1159
  6352  0616                     l4806:
  6353  0616  0820               	movf	___fttol@f1,w
  6354  0617  00A4               	movwf	??___fttol
  6355  0618  0821               	movf	___fttol@f1+1,w
  6356  0619  00A5               	movwf	??___fttol+1
  6357  061A  0822               	movf	___fttol@f1+2,w
  6358  061B  00A6               	movwf	??___fttol+2
  6359  061C  3017               	movlw	23
  6360  061D                     u4765:
  6361  061D  36A6               	lsrf	??___fttol+2,f
  6362  061E  0CA5               	rrf	??___fttol+1,f
  6363  061F  0CA4               	rrf	??___fttol,f
  6364  0620                     u4760:
  6365  0620  0B89               	decfsz	9,f
  6366  0621  2E1D               	goto	u4765
  6367  0622  0824               	movf	??___fttol,w
  6368  0623  00A7               	movwf	??___fttol+3
  6369  0624  0827               	movf	??___fttol+3,w
  6370  0625  00A8               	movwf	___fttol@sign1
  6371  0626                     l4808:
  6372  0626  17A1               	bsf	___fttol@f1+1,7
  6373  0627                     l4810:
  6374  0627  30FF               	movlw	255
  6375  0628  05A0               	andwf	___fttol@f1,f
  6376  0629  30FF               	movlw	255
  6377  062A  05A1               	andwf	___fttol@f1+1,f
  6378  062B  3000               	movlw	0
  6379  062C  05A2               	andwf	___fttol@f1+2,f
  6380  062D                     l4812:
  6381  062D  0820               	movf	___fttol@f1,w
  6382  062E  00A9               	movwf	___fttol@lval
  6383  062F  0821               	movf	___fttol@f1+1,w
  6384  0630  00AA               	movwf	___fttol@lval+1
  6385  0631  0822               	movf	___fttol@f1+2,w
  6386  0632  00AB               	movwf	___fttol@lval+2
  6387  0633  01AC               	clrf	___fttol@lval+3
  6388  0634                     l4814:
  6389  0634  308E               	movlw	142
  6390  0635  02AD               	subwf	___fttol@exp1,f
  6391  0636                     l4816:
  6392  0636  1FAD               	btfss	___fttol@exp1,7
  6393  0637  2E39               	goto	u4771
  6394  0638  2E3A               	goto	u4770
  6395  0639                     u4771:
  6396  0639  2E52               	goto	l4826
  6397  063A                     u4770:
  6398  063A                     l4818:
  6399  063A  082D               	movf	___fttol@exp1,w
  6400  063B  3A80               	xorlw	128
  6401  063C  3E8F               	addlw	143
  6402  063D  1803               	skipnc
  6403  063E  2E40               	goto	u4781
  6404  063F  2E41               	goto	u4780
  6405  0640                     u4781:
  6406  0640  2E42               	goto	l4824
  6407  0641                     u4780:
  6408  0641  2E0D               	goto	l4802
  6409  0642                     l4824:
  6410  0642  3001               	movlw	1
  6411  0643                     u4795:
  6412  0643  36AC               	lsrf	___fttol@lval+3,f
  6413  0644  0CAB               	rrf	___fttol@lval+2,f
  6414  0645  0CAA               	rrf	___fttol@lval+1,f
  6415  0646  0CA9               	rrf	___fttol@lval,f
  6416  0647  0B89               	decfsz	9,f
  6417  0648  2E43               	goto	u4795
  6418  0649  3001               	movlw	1
  6419  064A  00A4               	movwf	??___fttol
  6420  064B  0824               	movf	??___fttol,w
  6421  064C  07AD               	addwf	___fttol@exp1,f
  6422  064D  1D03               	btfss	3,2
  6423  064E  2E50               	goto	u4801
  6424  064F  2E51               	goto	u4800
  6425  0650                     u4801:
  6426  0650  2E42               	goto	l4824
  6427  0651                     u4800:
  6428  0651  2E67               	goto	l4834
  6429  0652                     l4826:
  6430  0652  3018               	movlw	24
  6431  0653  022D               	subwf	___fttol@exp1,w
  6432  0654  1C03               	skipc
  6433  0655  2E57               	goto	u4811
  6434  0656  2E58               	goto	u4810
  6435  0657                     u4811:
  6436  0657  2E62               	goto	l1166
  6437  0658                     u4810:
  6438  0658  2E0D               	goto	l4802
  6439  0659                     l4832:
  6440  0659  3001               	movlw	1
  6441  065A                     u4825:
  6442  065A  35A9               	lslf	___fttol@lval,f
  6443  065B  0DAA               	rlf	___fttol@lval+1,f
  6444  065C  0DAB               	rlf	___fttol@lval+2,f
  6445  065D  0DAC               	rlf	___fttol@lval+3,f
  6446  065E  0B89               	decfsz	9,f
  6447  065F  2E5A               	goto	u4825
  6448  0660  3001               	movlw	1
  6449  0661  02AD               	subwf	___fttol@exp1,f
  6450  0662                     l1166:
  6451  0662  082D               	movf	___fttol@exp1,w
  6452  0663  1D03               	btfss	3,2
  6453  0664  2E66               	goto	u4831
  6454  0665  2E67               	goto	u4830
  6455  0666                     u4831:
  6456  0666  2E59               	goto	l4832
  6457  0667                     u4830:
  6458  0667                     l4834:
  6459  0667  0828               	movf	___fttol@sign1,w
  6460  0668  1903               	btfsc	3,2
  6461  0669  2E6B               	goto	u4841
  6462  066A  2E6C               	goto	u4840
  6463  066B                     u4841:
  6464  066B  2E77               	goto	l4838
  6465  066C                     u4840:
  6466  066C                     l4836:
  6467  066C  09A9               	comf	___fttol@lval,f
  6468  066D  09AA               	comf	___fttol@lval+1,f
  6469  066E  09AB               	comf	___fttol@lval+2,f
  6470  066F  09AC               	comf	___fttol@lval+3,f
  6471  0670  0AA9               	incf	___fttol@lval,f
  6472  0671  1903               	skipnz
  6473  0672  0AAA               	incf	___fttol@lval+1,f
  6474  0673  1903               	skipnz
  6475  0674  0AAB               	incf	___fttol@lval+2,f
  6476  0675  1903               	skipnz
  6477  0676  0AAC               	incf	___fttol@lval+3,f
  6478  0677                     l4838:
  6479  0677  082C               	movf	___fttol@lval+3,w
  6480  0678  00A3               	movwf	?___fttol+3
  6481  0679  082B               	movf	___fttol@lval+2,w
  6482  067A  00A2               	movwf	?___fttol+2
  6483  067B  082A               	movf	___fttol@lval+1,w
  6484  067C  00A1               	movwf	?___fttol+1
  6485  067D  0829               	movf	___fttol@lval,w
  6486  067E  00A0               	movwf	?___fttol
  6487  067F                     l1159:
  6488  067F  0008               	return
  6489  0680                     __end_of___fttol:
  6490                           
  6491                           	psect	text15
  6492  0E76                     __ptext15:	
  6493 ;; *************** function ___altoft *****************
  6494 ;; Defined at:
  6495 ;;		line 42 in file "C:\Program Files\Microchip\xc8\v2.31\pic\sources\c90\common\altoft.c"
  6496 ;; Parameters:    Size  Location     Type
  6497 ;;  c               4   14[BANK0 ] long 
  6498 ;; Auto vars:     Size  Location     Type
  6499 ;;  sign            1   21[BANK0 ] unsigned char 
  6500 ;;  exp             1   20[BANK0 ] unsigned char 
  6501 ;; Return value:  Size  Location     Type
  6502 ;;                  3   14[BANK0 ] float 
  6503 ;; Registers used:
  6504 ;;		wreg, status,2, status,0, pclath, cstack
  6505 ;; Tracked objects:
  6506 ;;		On entry : 0/0
  6507 ;;		On exit  : 0/0
  6508 ;;		Unchanged: 0/0
  6509 ;; Data sizes:     COMMON   BANK0   BANK1   BANK2   BANK3   BANK4   BANK5   BANK6   BANK7   BANK8   BANK9  BANK10  BANK1
      +1  BANK12  BANK13  BANK14  BANK15  BANK16  BANK17  BANK18  BANK19  BANK20  BANK21  BANK22  BANK23  BANK24  BANK25
  6510 ;;      Params:         0       4       0       0       0       0       0       0       0       0       0       0       
      +0       0       0       0       0       0       0       0       0       0       0       0       0       0       0
  6511 ;;      Locals:         0       2       0       0       0       0       0       0       0       0       0       0       
      +0       0       0       0       0       0       0       0       0       0       0       0       0       0       0
  6512 ;;      Temps:          0       2       0       0       0       0       0       0       0       0       0       0       
      +0       0       0       0       0       0       0       0       0       0       0       0       0       0       0
  6513 ;;      Totals:         0       8       0       0       0       0       0       0       0       0       0       0       
      +0       0       0       0       0       0       0       0       0       0       0       0       0       0       0
  6514 ;;Total ram usage:        8 bytes
  6515 ;; Hardware stack levels used:    1
  6516 ;; Hardware stack levels required when called:    4
  6517 ;; This function calls:
  6518 ;;		___ftpack
  6519 ;; This function is called by:
  6520 ;;		_trunc
  6521 ;; This function uses a non-reentrant model
  6522 ;;
  6523                           
  6524                           
  6525                           ;psect for function ___altoft
  6526  0E76                     ___altoft:
  6527  0E76                     l4714:	
  6528                           ;incstack = 0
  6529                           ; Regs used in ___altoft: [wreg+status,2+status,0+pclath+cstack]
  6530                           
  6531  0E76  0140               	movlb	0	; select bank0
  6532  0E77  01B5               	clrf	___altoft@sign
  6533  0E78                     l4716:
  6534  0E78  308E               	movlw	142
  6535  0E79  00B2               	movwf	??___altoft
  6536  0E7A  0832               	movf	??___altoft,w
  6537  0E7B  00B4               	movwf	___altoft@exp
  6538  0E7C                     l4718:
  6539  0E7C  1FB1               	btfss	___altoft@c+3,7
  6540  0E7D  2E7F               	goto	u4491
  6541  0E7E  2E80               	goto	u4490
  6542  0E7F                     u4491:
  6543  0E7F  2E99               	goto	l4724
  6544  0E80                     u4490:
  6545  0E80                     l4720:
  6546  0E80  09AE               	comf	___altoft@c,f
  6547  0E81  09AF               	comf	___altoft@c+1,f
  6548  0E82  09B0               	comf	___altoft@c+2,f
  6549  0E83  09B1               	comf	___altoft@c+3,f
  6550  0E84  0AAE               	incf	___altoft@c,f
  6551  0E85  1903               	skipnz
  6552  0E86  0AAF               	incf	___altoft@c+1,f
  6553  0E87  1903               	skipnz
  6554  0E88  0AB0               	incf	___altoft@c+2,f
  6555  0E89  1903               	skipnz
  6556  0E8A  0AB1               	incf	___altoft@c+3,f
  6557  0E8B  01B5               	clrf	___altoft@sign
  6558  0E8C  0AB5               	incf	___altoft@sign,f
  6559  0E8D  2E99               	goto	l4724
  6560  0E8E                     l4722:
  6561  0E8E  3001               	movlw	1
  6562  0E8F                     u4505:
  6563  0E8F  36B1               	lsrf	___altoft@c+3,f
  6564  0E90  0CB0               	rrf	___altoft@c+2,f
  6565  0E91  0CAF               	rrf	___altoft@c+1,f
  6566  0E92  0CAE               	rrf	___altoft@c,f
  6567  0E93  0B89               	decfsz	9,f
  6568  0E94  2E8F               	goto	u4505
  6569  0E95  3001               	movlw	1
  6570  0E96  00B2               	movwf	??___altoft
  6571  0E97  0832               	movf	??___altoft,w
  6572  0E98  07B4               	addwf	___altoft@exp,f
  6573  0E99                     l4724:
  6574  0E99  30FF               	movlw	255
  6575  0E9A  0531               	andwf	___altoft@c+3,w
  6576  0E9B  1D03               	btfss	3,2
  6577  0E9C  2E9E               	goto	u4511
  6578  0E9D  2E9F               	goto	u4510
  6579  0E9E                     u4511:
  6580  0E9E  2E8E               	goto	l4722
  6581  0E9F                     u4510:
  6582  0E9F                     l4726:
  6583  0E9F  082E               	movf	___altoft@c,w
  6584  0EA0  00A0               	movwf	___ftpack@arg
  6585  0EA1  082F               	movf	___altoft@c+1,w
  6586  0EA2  00A1               	movwf	___ftpack@arg+1
  6587  0EA3  0830               	movf	___altoft@c+2,w
  6588  0EA4  00A2               	movwf	___ftpack@arg+2
  6589  0EA5  0834               	movf	___altoft@exp,w
  6590  0EA6  00B2               	movwf	??___altoft
  6591  0EA7  0832               	movf	??___altoft,w
  6592  0EA8  00A3               	movwf	___ftpack@exp
  6593  0EA9  0835               	movf	___altoft@sign,w
  6594  0EAA  00B3               	movwf	??___altoft+1
  6595  0EAB  0833               	movf	??___altoft+1,w
  6596  0EAC  00A4               	movwf	___ftpack@sign
  6597  0EAD  3186  26F7  318E   	fcall	___ftpack
  6598  0EB0  0140               	movlb	0	; select bank0
  6599  0EB1  0820               	movf	?___ftpack,w
  6600  0EB2  00AE               	movwf	?___altoft
  6601  0EB3  0821               	movf	?___ftpack+1,w
  6602  0EB4  00AF               	movwf	?___altoft+1
  6603  0EB5  0822               	movf	?___ftpack+2,w
  6604  0EB6  00B0               	movwf	?___altoft+2
  6605  0EB7                     l966:
  6606  0EB7  0008               	return
  6607  0EB8                     __end_of___altoft:
  6608                           
  6609                           	psect	text16
  6610  0D0B                     __ptext16:	
  6611 ;; *************** function ___ftsub *****************
  6612 ;; Defined at:
  6613 ;;		line 17 in file "C:\Program Files\Microchip\xc8\v2.31\pic\sources\c90\common\ftsub.c"
  6614 ;; Parameters:    Size  Location     Type
  6615 ;;  f2              3   31[BANK0 ] float 
  6616 ;;  f1              3   34[BANK0 ] float 
  6617 ;; Auto vars:     Size  Location     Type
  6618 ;;		None
  6619 ;; Return value:  Size  Location     Type
  6620 ;;                  3   31[BANK0 ] float 
  6621 ;; Registers used:
  6622 ;;		wreg, status,2, status,0, pclath, cstack
  6623 ;; Tracked objects:
  6624 ;;		On entry : 0/0
  6625 ;;		On exit  : 0/0
  6626 ;;		Unchanged: 0/0
  6627 ;; Data sizes:     COMMON   BANK0   BANK1   BANK2   BANK3   BANK4   BANK5   BANK6   BANK7   BANK8   BANK9  BANK10  BANK1
      +1  BANK12  BANK13  BANK14  BANK15  BANK16  BANK17  BANK18  BANK19  BANK20  BANK21  BANK22  BANK23  BANK24  BANK25
  6628 ;;      Params:         0       6       0       0       0       0       0       0       0       0       0       0       
      +0       0       0       0       0       0       0       0       0       0       0       0       0       0       0
  6629 ;;      Locals:         0       0       0       0       0       0       0       0       0       0       0       0       
      +0       0       0       0       0       0       0       0       0       0       0       0       0       0       0
  6630 ;;      Temps:          0       0       0       0       0       0       0       0       0       0       0       0       
      +0       0       0       0       0       0       0       0       0       0       0       0       0       0       0
  6631 ;;      Totals:         0       6       0       0       0       0       0       0       0       0       0       0       
      +0       0       0       0       0       0       0       0       0       0       0       0       0       0       0
  6632 ;;Total ram usage:        6 bytes
  6633 ;; Hardware stack levels used:    1
  6634 ;; Hardware stack levels required when called:    5
  6635 ;; This function calls:
  6636 ;;		___ftadd
  6637 ;; This function is called by:
  6638 ;;		_round
  6639 ;; This function uses a non-reentrant model
  6640 ;;
  6641                           
  6642                           
  6643                           ;psect for function ___ftsub
  6644  0D0B                     ___ftsub:
  6645  0D0B                     l4858:	
  6646                           ;incstack = 0
  6647                           ; Regs used in ___ftsub: [wreg+status,2+status,0+pclath+cstack]
  6648                           
  6649  0D0B  0140               	movlb	0	; select bank0
  6650  0D0C  0841               	movf	___ftsub@f2+2,w
  6651  0D0D  0440               	iorwf	___ftsub@f2+1,w
  6652  0D0E  043F               	iorwf	___ftsub@f2,w
  6653  0D0F  1903               	skipnz
  6654  0D10  2D12               	goto	u4861
  6655  0D11  2D13               	goto	u4860
  6656  0D12                     u4861:
  6657  0D12  2D15               	goto	l4862
  6658  0D13                     u4860:
  6659  0D13                     l4860:
  6660  0D13  3080               	movlw	128
  6661  0D14  06C1               	xorwf	___ftsub@f2+2,f
  6662  0D15                     l4862:
  6663  0D15  0842               	movf	___ftsub@f1,w
  6664  0D16  00A8               	movwf	___ftadd@f1
  6665  0D17  0843               	movf	___ftsub@f1+1,w
  6666  0D18  00A9               	movwf	___ftadd@f1+1
  6667  0D19  0844               	movf	___ftsub@f1+2,w
  6668  0D1A  00AA               	movwf	___ftadd@f1+2
  6669  0D1B  083F               	movf	___ftsub@f2,w
  6670  0D1C  00AB               	movwf	___ftadd@f2
  6671  0D1D  0840               	movf	___ftsub@f2+1,w
  6672  0D1E  00AC               	movwf	___ftadd@f2+1
  6673  0D1F  0841               	movf	___ftsub@f2+2,w
  6674  0D20  00AD               	movwf	___ftadd@f2+2
  6675  0D21  3181  21EC  318D   	fcall	___ftadd
  6676  0D24  0140               	movlb	0	; select bank0
  6677  0D25  0828               	movf	?___ftadd,w
  6678  0D26  00BF               	movwf	?___ftsub
  6679  0D27  0829               	movf	?___ftadd+1,w
  6680  0D28  00C0               	movwf	?___ftsub+1
  6681  0D29  082A               	movf	?___ftadd+2,w
  6682  0D2A  00C1               	movwf	?___ftsub+2
  6683  0D2B                     l1155:
  6684  0D2B  0008               	return
  6685  0D2C                     __end_of___ftsub:
  6686                           
  6687                           	psect	text17
  6688  01EC                     __ptext17:	
  6689 ;; *************** function ___ftadd *****************
  6690 ;; Defined at:
  6691 ;;		line 86 in file "C:\Program Files\Microchip\xc8\v2.31\pic\sources\c90\common\ftadd.c"
  6692 ;; Parameters:    Size  Location     Type
  6693 ;;  f1              3    8[BANK0 ] float 
  6694 ;;  f2              3   11[BANK0 ] float 
  6695 ;; Auto vars:     Size  Location     Type
  6696 ;;  exp1            1   20[BANK0 ] unsigned char 
  6697 ;;  exp2            1   19[BANK0 ] unsigned char 
  6698 ;;  sign            1   18[BANK0 ] unsigned char 
  6699 ;; Return value:  Size  Location     Type
  6700 ;;                  3    8[BANK0 ] float 
  6701 ;; Registers used:
  6702 ;;		wreg, status,2, status,0, pclath, cstack
  6703 ;; Tracked objects:
  6704 ;;		On entry : 0/0
  6705 ;;		On exit  : 0/0
  6706 ;;		Unchanged: 0/0
  6707 ;; Data sizes:     COMMON   BANK0   BANK1   BANK2   BANK3   BANK4   BANK5   BANK6   BANK7   BANK8   BANK9  BANK10  BANK1
      +1  BANK12  BANK13  BANK14  BANK15  BANK16  BANK17  BANK18  BANK19  BANK20  BANK21  BANK22  BANK23  BANK24  BANK25
  6708 ;;      Params:         0       6       0       0       0       0       0       0       0       0       0       0       
      +0       0       0       0       0       0       0       0       0       0       0       0       0       0       0
  6709 ;;      Locals:         0       3       0       0       0       0       0       0       0       0       0       0       
      +0       0       0       0       0       0       0       0       0       0       0       0       0       0       0
  6710 ;;      Temps:          0       4       0       0       0       0       0       0       0       0       0       0       
      +0       0       0       0       0       0       0       0       0       0       0       0       0       0       0
  6711 ;;      Totals:         0      13       0       0       0       0       0       0       0       0       0       0       
      +0       0       0       0       0       0       0       0       0       0       0       0       0       0       0
  6712 ;;Total ram usage:       13 bytes
  6713 ;; Hardware stack levels used:    1
  6714 ;; Hardware stack levels required when called:    4
  6715 ;; This function calls:
  6716 ;;		___ftpack
  6717 ;; This function is called by:
  6718 ;;		___ftsub
  6719 ;;		_round
  6720 ;; This function uses a non-reentrant model
  6721 ;;
  6722                           
  6723                           
  6724                           ;psect for function ___ftadd
  6725  01EC                     ___ftadd:
  6726  01EC                     l4730:	
  6727                           ;incstack = 0
  6728                           ; Regs used in ___ftadd: [wreg+status,2+status,0+pclath+cstack]
  6729                           
  6730  01EC  0140               	movlb	0	; select bank0
  6731  01ED  0828               	movf	___ftadd@f1,w
  6732  01EE  00AE               	movwf	??___ftadd
  6733  01EF  0829               	movf	___ftadd@f1+1,w
  6734  01F0  00AF               	movwf	??___ftadd+1
  6735  01F1  082A               	movf	___ftadd@f1+2,w
  6736  01F2  00B0               	movwf	??___ftadd+2
  6737  01F3  1003               	clrc
  6738  01F4  0D2F               	rlf	??___ftadd+1,w
  6739  01F5  0D30               	rlf	??___ftadd+2,w
  6740  01F6  00B1               	movwf	??___ftadd+3
  6741  01F7  0831               	movf	??___ftadd+3,w
  6742  01F8  00B4               	movwf	___ftadd@exp1
  6743  01F9  082B               	movf	___ftadd@f2,w
  6744  01FA  00AE               	movwf	??___ftadd
  6745  01FB  082C               	movf	___ftadd@f2+1,w
  6746  01FC  00AF               	movwf	??___ftadd+1
  6747  01FD  082D               	movf	___ftadd@f2+2,w
  6748  01FE  00B0               	movwf	??___ftadd+2
  6749  01FF  1003               	clrc
  6750  0200  0D2F               	rlf	??___ftadd+1,w
  6751  0201  0D30               	rlf	??___ftadd+2,w
  6752  0202  00B1               	movwf	??___ftadd+3
  6753  0203  0831               	movf	??___ftadd+3,w
  6754  0204  00B3               	movwf	___ftadd@exp2
  6755  0205  0834               	movf	___ftadd@exp1,w
  6756  0206  1903               	btfsc	3,2
  6757  0207  2A09               	goto	u4521
  6758  0208  2A0A               	goto	u4520
  6759  0209                     u4521:
  6760  0209  2A1A               	goto	l4736
  6761  020A                     u4520:
  6762  020A                     l4732:
  6763  020A  0833               	movf	___ftadd@exp2,w
  6764  020B  0234               	subwf	___ftadd@exp1,w
  6765  020C  1803               	skipnc
  6766  020D  2A0F               	goto	u4531
  6767  020E  2A10               	goto	u4530
  6768  020F                     u4531:
  6769  020F  2A21               	goto	l4740
  6770  0210                     u4530:
  6771  0210                     l4734:
  6772  0210  0833               	movf	___ftadd@exp2,w
  6773  0211  00AE               	movwf	??___ftadd
  6774  0212  0834               	movf	___ftadd@exp1,w
  6775  0213  02AE               	subwf	??___ftadd,f
  6776  0214  3019               	movlw	25
  6777  0215  022E               	subwf	??___ftadd,w
  6778  0216  1C03               	skipc
  6779  0217  2A19               	goto	u4541
  6780  0218  2A1A               	goto	u4540
  6781  0219                     u4541:
  6782  0219  2A21               	goto	l4740
  6783  021A                     u4540:
  6784  021A                     l4736:
  6785  021A  082B               	movf	___ftadd@f2,w
  6786  021B  00A8               	movwf	?___ftadd
  6787  021C  082C               	movf	___ftadd@f2+1,w
  6788  021D  00A9               	movwf	?___ftadd+1
  6789  021E  082D               	movf	___ftadd@f2+2,w
  6790  021F  00AA               	movwf	?___ftadd+2
  6791  0220  2B0B               	goto	l1092
  6792  0221                     l4740:
  6793  0221  0833               	movf	___ftadd@exp2,w
  6794  0222  1903               	btfsc	3,2
  6795  0223  2A25               	goto	u4551
  6796  0224  2A26               	goto	u4550
  6797  0225                     u4551:
  6798  0225  2A36               	goto	l1095
  6799  0226                     u4550:
  6800  0226                     l4742:
  6801  0226  0834               	movf	___ftadd@exp1,w
  6802  0227  0233               	subwf	___ftadd@exp2,w
  6803  0228  1803               	skipnc
  6804  0229  2A2B               	goto	u4561
  6805  022A  2A2C               	goto	u4560
  6806  022B                     u4561:
  6807  022B  2A37               	goto	l4746
  6808  022C                     u4560:
  6809  022C                     l4744:
  6810  022C  0834               	movf	___ftadd@exp1,w
  6811  022D  00AE               	movwf	??___ftadd
  6812  022E  0833               	movf	___ftadd@exp2,w
  6813  022F  02AE               	subwf	??___ftadd,f
  6814  0230  3019               	movlw	25
  6815  0231  022E               	subwf	??___ftadd,w
  6816  0232  1C03               	skipc
  6817  0233  2A35               	goto	u4571
  6818  0234  2A36               	goto	u4570
  6819  0235                     u4571:
  6820  0235  2A37               	goto	l4746
  6821  0236                     u4570:
  6822  0236                     l1095:
  6823  0236  2B0B               	goto	l1092
  6824  0237                     l4746:
  6825  0237  3006               	movlw	6
  6826  0238  00AE               	movwf	??___ftadd
  6827  0239  082E               	movf	??___ftadd,w
  6828  023A  00B2               	movwf	___ftadd@sign
  6829  023B                     l4748:
  6830  023B  1FAA               	btfss	___ftadd@f1+2,7
  6831  023C  2A3E               	goto	u4581
  6832  023D  2A3F               	goto	u4580
  6833  023E                     u4581:
  6834  023E  2A40               	goto	l1096
  6835  023F                     u4580:
  6836  023F                     l4750:
  6837  023F  17B2               	bsf	___ftadd@sign,7
  6838  0240                     l1096:
  6839  0240  1FAD               	btfss	___ftadd@f2+2,7
  6840  0241  2A43               	goto	u4591
  6841  0242  2A44               	goto	u4590
  6842  0243                     u4591:
  6843  0243  2A45               	goto	l1097
  6844  0244                     u4590:
  6845  0244                     l4752:
  6846  0244  1732               	bsf	___ftadd@sign,6
  6847  0245                     l1097:
  6848  0245  17A9               	bsf	___ftadd@f1+1,7
  6849  0246                     l4754:
  6850  0246  30FF               	movlw	255
  6851  0247  05A8               	andwf	___ftadd@f1,f
  6852  0248  30FF               	movlw	255
  6853  0249  05A9               	andwf	___ftadd@f1+1,f
  6854  024A  3000               	movlw	0
  6855  024B  05AA               	andwf	___ftadd@f1+2,f
  6856  024C                     l4756:
  6857  024C  17AC               	bsf	___ftadd@f2+1,7
  6858  024D  30FF               	movlw	255
  6859  024E  05AB               	andwf	___ftadd@f2,f
  6860  024F  30FF               	movlw	255
  6861  0250  05AC               	andwf	___ftadd@f2+1,f
  6862  0251  3000               	movlw	0
  6863  0252  05AD               	andwf	___ftadd@f2+2,f
  6864  0253  0833               	movf	___ftadd@exp2,w
  6865  0254  0234               	subwf	___ftadd@exp1,w
  6866  0255  1803               	skipnc
  6867  0256  2A58               	goto	u4601
  6868  0257  2A59               	goto	u4600
  6869  0258                     u4601:
  6870  0258  2A81               	goto	l4768
  6871  0259                     u4600:
  6872  0259                     l4758:
  6873  0259  3001               	movlw	1
  6874  025A                     u4615:
  6875  025A  35AB               	lslf	___ftadd@f2,f
  6876  025B  0DAC               	rlf	___ftadd@f2+1,f
  6877  025C  0DAD               	rlf	___ftadd@f2+2,f
  6878  025D  0B89               	decfsz	9,f
  6879  025E  2A5A               	goto	u4615
  6880  025F  3001               	movlw	1
  6881  0260  02B3               	subwf	___ftadd@exp2,f
  6882  0261                     l4760:
  6883  0261  0833               	movf	___ftadd@exp2,w
  6884  0262  0634               	xorwf	___ftadd@exp1,w
  6885  0263  1903               	skipnz
  6886  0264  2A66               	goto	u4621
  6887  0265  2A67               	goto	u4620
  6888  0266                     u4621:
  6889  0266  2A7A               	goto	l4766
  6890  0267                     u4620:
  6891  0267                     l4762:
  6892  0267  3001               	movlw	1
  6893  0268  02B2               	subwf	___ftadd@sign,f
  6894  0269  0832               	movf	___ftadd@sign,w
  6895  026A  3907               	andlw	7
  6896  026B  1D03               	btfss	3,2
  6897  026C  2A6E               	goto	u4631
  6898  026D  2A6F               	goto	u4630
  6899  026E                     u4631:
  6900  026E  2A59               	goto	l4758
  6901  026F                     u4630:
  6902  026F  2A7A               	goto	l4766
  6903  0270                     l4764:
  6904  0270  3001               	movlw	1
  6905  0271                     u4645:
  6906  0271  36AA               	lsrf	___ftadd@f1+2,f
  6907  0272  0CA9               	rrf	___ftadd@f1+1,f
  6908  0273  0CA8               	rrf	___ftadd@f1,f
  6909  0274  0B89               	decfsz	9,f
  6910  0275  2A71               	goto	u4645
  6911  0276  3001               	movlw	1
  6912  0277  00AE               	movwf	??___ftadd
  6913  0278  082E               	movf	??___ftadd,w
  6914  0279  07B4               	addwf	___ftadd@exp1,f
  6915  027A                     l4766:
  6916  027A  0834               	movf	___ftadd@exp1,w
  6917  027B  0633               	xorwf	___ftadd@exp2,w
  6918  027C  1D03               	skipz
  6919  027D  2A7F               	goto	u4651
  6920  027E  2A80               	goto	u4650
  6921  027F                     u4651:
  6922  027F  2A70               	goto	l4764
  6923  0280                     u4650:
  6924  0280  2AAE               	goto	l1106
  6925  0281                     l4768:
  6926  0281  0834               	movf	___ftadd@exp1,w
  6927  0282  0233               	subwf	___ftadd@exp2,w
  6928  0283  1803               	skipnc
  6929  0284  2A86               	goto	u4661
  6930  0285  2A87               	goto	u4660
  6931  0286                     u4661:
  6932  0286  2AAE               	goto	l1106
  6933  0287                     u4660:
  6934  0287                     l4770:
  6935  0287  3001               	movlw	1
  6936  0288                     u4675:
  6937  0288  35A8               	lslf	___ftadd@f1,f
  6938  0289  0DA9               	rlf	___ftadd@f1+1,f
  6939  028A  0DAA               	rlf	___ftadd@f1+2,f
  6940  028B  0B89               	decfsz	9,f
  6941  028C  2A88               	goto	u4675
  6942  028D  3001               	movlw	1
  6943  028E  02B4               	subwf	___ftadd@exp1,f
  6944  028F                     l4772:
  6945  028F  0833               	movf	___ftadd@exp2,w
  6946  0290  0634               	xorwf	___ftadd@exp1,w
  6947  0291  1903               	skipnz
  6948  0292  2A94               	goto	u4681
  6949  0293  2A95               	goto	u4680
  6950  0294                     u4681:
  6951  0294  2AA8               	goto	l4778
  6952  0295                     u4680:
  6953  0295                     l4774:
  6954  0295  3001               	movlw	1
  6955  0296  02B2               	subwf	___ftadd@sign,f
  6956  0297  0832               	movf	___ftadd@sign,w
  6957  0298  3907               	andlw	7
  6958  0299  1D03               	btfss	3,2
  6959  029A  2A9C               	goto	u4691
  6960  029B  2A9D               	goto	u4690
  6961  029C                     u4691:
  6962  029C  2A87               	goto	l4770
  6963  029D                     u4690:
  6964  029D  2AA8               	goto	l4778
  6965  029E                     l4776:
  6966  029E  3001               	movlw	1
  6967  029F                     u4705:
  6968  029F  36AD               	lsrf	___ftadd@f2+2,f
  6969  02A0  0CAC               	rrf	___ftadd@f2+1,f
  6970  02A1  0CAB               	rrf	___ftadd@f2,f
  6971  02A2  0B89               	decfsz	9,f
  6972  02A3  2A9F               	goto	u4705
  6973  02A4  3001               	movlw	1
  6974  02A5  00AE               	movwf	??___ftadd
  6975  02A6  082E               	movf	??___ftadd,w
  6976  02A7  07B3               	addwf	___ftadd@exp2,f
  6977  02A8                     l4778:
  6978  02A8  0834               	movf	___ftadd@exp1,w
  6979  02A9  0633               	xorwf	___ftadd@exp2,w
  6980  02AA  1D03               	skipz
  6981  02AB  2AAD               	goto	u4711
  6982  02AC  2AAE               	goto	u4710
  6983  02AD                     u4711:
  6984  02AD  2A9E               	goto	l4776
  6985  02AE                     u4710:
  6986  02AE                     l1106:
  6987  02AE  1FB2               	btfss	___ftadd@sign,7
  6988  02AF  2AB1               	goto	u4721
  6989  02B0  2AB2               	goto	u4720
  6990  02B1                     u4721:
  6991  02B1  2AC2               	goto	l4782
  6992  02B2                     u4720:
  6993  02B2                     l4780:
  6994  02B2  30FF               	movlw	255
  6995  02B3  06A8               	xorwf	___ftadd@f1,f
  6996  02B4  30FF               	movlw	255
  6997  02B5  06A9               	xorwf	___ftadd@f1+1,f
  6998  02B6  30FF               	movlw	255
  6999  02B7  06AA               	xorwf	___ftadd@f1+2,f
  7000  02B8  3001               	movlw	1
  7001  02B9  07A8               	addwf	___ftadd@f1,f
  7002  02BA  3000               	movlw	0
  7003  02BB  1803               	skipnc
  7004  02BC  3001               	movlw	1
  7005  02BD  07A9               	addwf	___ftadd@f1+1,f
  7006  02BE  3000               	movlw	0
  7007  02BF  1803               	skipnc
  7008  02C0  3001               	movlw	1
  7009  02C1  07AA               	addwf	___ftadd@f1+2,f
  7010  02C2                     l4782:
  7011  02C2  1F32               	btfss	___ftadd@sign,6
  7012  02C3  2AC5               	goto	u4731
  7013  02C4  2AC6               	goto	u4730
  7014  02C5                     u4731:
  7015  02C5  2AD6               	goto	l4786
  7016  02C6                     u4730:
  7017  02C6                     l4784:
  7018  02C6  30FF               	movlw	255
  7019  02C7  06AB               	xorwf	___ftadd@f2,f
  7020  02C8  30FF               	movlw	255
  7021  02C9  06AC               	xorwf	___ftadd@f2+1,f
  7022  02CA  30FF               	movlw	255
  7023  02CB  06AD               	xorwf	___ftadd@f2+2,f
  7024  02CC  3001               	movlw	1
  7025  02CD  07AB               	addwf	___ftadd@f2,f
  7026  02CE  3000               	movlw	0
  7027  02CF  1803               	skipnc
  7028  02D0  3001               	movlw	1
  7029  02D1  07AC               	addwf	___ftadd@f2+1,f
  7030  02D2  3000               	movlw	0
  7031  02D3  1803               	skipnc
  7032  02D4  3001               	movlw	1
  7033  02D5  07AD               	addwf	___ftadd@f2+2,f
  7034  02D6                     l4786:
  7035  02D6  01B2               	clrf	___ftadd@sign
  7036  02D7                     l4788:
  7037  02D7  0828               	movf	___ftadd@f1,w
  7038  02D8  07AB               	addwf	___ftadd@f2,f
  7039  02D9  0829               	movf	___ftadd@f1+1,w
  7040  02DA  3DAC               	addwfc	___ftadd@f2+1,f
  7041  02DB  082A               	movf	___ftadd@f1+2,w
  7042  02DC  3DAD               	addwfc	___ftadd@f2+2,f
  7043  02DD                     l4790:
  7044  02DD  1FAD               	btfss	___ftadd@f2+2,7
  7045  02DE  2AE0               	goto	u4741
  7046  02DF  2AE1               	goto	u4740
  7047  02E0                     u4741:
  7048  02E0  2AF3               	goto	l4796
  7049  02E1                     u4740:
  7050  02E1                     l4792:
  7051  02E1  30FF               	movlw	255
  7052  02E2  06AB               	xorwf	___ftadd@f2,f
  7053  02E3  30FF               	movlw	255
  7054  02E4  06AC               	xorwf	___ftadd@f2+1,f
  7055  02E5  30FF               	movlw	255
  7056  02E6  06AD               	xorwf	___ftadd@f2+2,f
  7057  02E7  3001               	movlw	1
  7058  02E8  07AB               	addwf	___ftadd@f2,f
  7059  02E9  3000               	movlw	0
  7060  02EA  1803               	skipnc
  7061  02EB  3001               	movlw	1
  7062  02EC  07AC               	addwf	___ftadd@f2+1,f
  7063  02ED  3000               	movlw	0
  7064  02EE  1803               	skipnc
  7065  02EF  3001               	movlw	1
  7066  02F0  07AD               	addwf	___ftadd@f2+2,f
  7067  02F1                     l4794:
  7068  02F1  01B2               	clrf	___ftadd@sign
  7069  02F2  0AB2               	incf	___ftadd@sign,f
  7070  02F3                     l4796:
  7071  02F3  082B               	movf	___ftadd@f2,w
  7072  02F4  00A0               	movwf	___ftpack@arg
  7073  02F5  082C               	movf	___ftadd@f2+1,w
  7074  02F6  00A1               	movwf	___ftpack@arg+1
  7075  02F7  082D               	movf	___ftadd@f2+2,w
  7076  02F8  00A2               	movwf	___ftpack@arg+2
  7077  02F9  0834               	movf	___ftadd@exp1,w
  7078  02FA  00AE               	movwf	??___ftadd
  7079  02FB  082E               	movf	??___ftadd,w
  7080  02FC  00A3               	movwf	___ftpack@exp
  7081  02FD  0832               	movf	___ftadd@sign,w
  7082  02FE  00AF               	movwf	??___ftadd+1
  7083  02FF  082F               	movf	??___ftadd+1,w
  7084  0300  00A4               	movwf	___ftpack@sign
  7085  0301  3186  26F7  3181   	fcall	___ftpack
  7086  0304  0140               	movlb	0	; select bank0
  7087  0305  0820               	movf	?___ftpack,w
  7088  0306  00A8               	movwf	?___ftadd
  7089  0307  0821               	movf	?___ftpack+1,w
  7090  0308  00A9               	movwf	?___ftadd+1
  7091  0309  0822               	movf	?___ftpack+2,w
  7092  030A  00AA               	movwf	?___ftadd+2
  7093  030B                     l1092:
  7094  030B  0008               	return
  7095  030C                     __end_of___ftadd:
  7096                           
  7097                           	psect	text18
  7098  0CD6                     __ptext18:	
  7099 ;; *************** function ___lwtoft *****************
  7100 ;; Defined at:
  7101 ;;		line 28 in file "C:\Program Files\Microchip\xc8\v2.31\pic\sources\c90\common\lwtoft.c"
  7102 ;; Parameters:    Size  Location     Type
  7103 ;;  c               2    8[BANK0 ] unsigned int 
  7104 ;; Auto vars:     Size  Location     Type
  7105 ;;		None
  7106 ;; Return value:  Size  Location     Type
  7107 ;;                  3    8[BANK0 ] float 
  7108 ;; Registers used:
  7109 ;;		wreg, status,2, status,0, pclath, cstack
  7110 ;; Tracked objects:
  7111 ;;		On entry : 0/0
  7112 ;;		On exit  : 0/0
  7113 ;;		Unchanged: 0/0
  7114 ;; Data sizes:     COMMON   BANK0   BANK1   BANK2   BANK3   BANK4   BANK5   BANK6   BANK7   BANK8   BANK9  BANK10  BANK1
      +1  BANK12  BANK13  BANK14  BANK15  BANK16  BANK17  BANK18  BANK19  BANK20  BANK21  BANK22  BANK23  BANK24  BANK25
  7115 ;;      Params:         0       3       0       0       0       0       0       0       0       0       0       0       
      +0       0       0       0       0       0       0       0       0       0       0       0       0       0       0
  7116 ;;      Locals:         0       0       0       0       0       0       0       0       0       0       0       0       
      +0       0       0       0       0       0       0       0       0       0       0       0       0       0       0
  7117 ;;      Temps:          1       0       0       0       0       0       0       0       0       0       0       0       
      +0       0       0       0       0       0       0       0       0       0       0       0       0       0       0
  7118 ;;      Totals:         1       3       0       0       0       0       0       0       0       0       0       0       
      +0       0       0       0       0       0       0       0       0       0       0       0       0       0       0
  7119 ;;Total ram usage:        4 bytes
  7120 ;; Hardware stack levels used:    1
  7121 ;; Hardware stack levels required when called:    4
  7122 ;; This function calls:
  7123 ;;		___ftpack
  7124 ;; This function is called by:
  7125 ;;		_measure
  7126 ;;		_Power_SetThreshold
  7127 ;; This function uses a non-reentrant model
  7128 ;;
  7129                           
  7130                           
  7131                           ;psect for function ___lwtoft
  7132  0CD6                     ___lwtoft:
  7133  0CD6                     l5016:	
  7134                           ;incstack = 0
  7135                           ; Regs used in ___lwtoft: [wreg+status,2+status,0+pclath+cstack]
  7136                           
  7137  0CD6  0140               	movlb	0	; select bank0
  7138  0CD7  0828               	movf	___lwtoft@c,w
  7139  0CD8  00A0               	movwf	___ftpack@arg
  7140  0CD9  0829               	movf	___lwtoft@c+1,w
  7141  0CDA  00A1               	movwf	___ftpack@arg+1
  7142  0CDB  01A2               	clrf	___ftpack@arg+2
  7143  0CDC  308E               	movlw	142
  7144  0CDD  00F4               	movwf	??___lwtoft
  7145  0CDE  0874               	movf	??___lwtoft,w
  7146  0CDF  00A3               	movwf	___ftpack@exp
  7147  0CE0  01A4               	clrf	___ftpack@sign
  7148  0CE1  3186  26F7  318C   	fcall	___ftpack
  7149  0CE4  0140               	movlb	0	; select bank0
  7150  0CE5  0820               	movf	?___ftpack,w
  7151  0CE6  00A8               	movwf	?___lwtoft
  7152  0CE7  0821               	movf	?___ftpack+1,w
  7153  0CE8  00A9               	movwf	?___lwtoft+1
  7154  0CE9  0822               	movf	?___ftpack+2,w
  7155  0CEA  00AA               	movwf	?___lwtoft+2
  7156  0CEB                     l1286:
  7157  0CEB  0008               	return
  7158  0CEC                     __end_of___lwtoft:
  7159                           
  7160                           	psect	text19
  7161  03EB                     __ptext19:	
  7162 ;; *************** function ___ftmul *****************
  7163 ;; Defined at:
  7164 ;;		line 62 in file "C:\Program Files\Microchip\xc8\v2.31\pic\sources\c90\common\ftmul.c"
  7165 ;; Parameters:    Size  Location     Type
  7166 ;;  f1              3   27[BANK0 ] float 
  7167 ;;  f2              3   30[BANK0 ] float 
  7168 ;; Auto vars:     Size  Location     Type
  7169 ;;  f3_as_produc    3   38[BANK0 ] unsigned um
  7170 ;;  sign            1   42[BANK0 ] unsigned char 
  7171 ;;  cntr            1   41[BANK0 ] unsigned char 
  7172 ;;  exp             1   37[BANK0 ] unsigned char 
  7173 ;; Return value:  Size  Location     Type
  7174 ;;                  3   27[BANK0 ] float 
  7175 ;; Registers used:
  7176 ;;		wreg, status,2, status,0, pclath, cstack
  7177 ;; Tracked objects:
  7178 ;;		On entry : 0/0
  7179 ;;		On exit  : 0/0
  7180 ;;		Unchanged: 0/0
  7181 ;; Data sizes:     COMMON   BANK0   BANK1   BANK2   BANK3   BANK4   BANK5   BANK6   BANK7   BANK8   BANK9  BANK10  BANK1
      +1  BANK12  BANK13  BANK14  BANK15  BANK16  BANK17  BANK18  BANK19  BANK20  BANK21  BANK22  BANK23  BANK24  BANK25
  7182 ;;      Params:         0       6       0       0       0       0       0       0       0       0       0       0       
      +0       0       0       0       0       0       0       0       0       0       0       0       0       0       0
  7183 ;;      Locals:         0       6       0       0       0       0       0       0       0       0       0       0       
      +0       0       0       0       0       0       0       0       0       0       0       0       0       0       0
  7184 ;;      Temps:          0       4       0       0       0       0       0       0       0       0       0       0       
      +0       0       0       0       0       0       0       0       0       0       0       0       0       0       0
  7185 ;;      Totals:         0      16       0       0       0       0       0       0       0       0       0       0       
      +0       0       0       0       0       0       0       0       0       0       0       0       0       0       0
  7186 ;;Total ram usage:       16 bytes
  7187 ;; Hardware stack levels used:    1
  7188 ;; Hardware stack levels required when called:    4
  7189 ;; This function calls:
  7190 ;;		___ftpack
  7191 ;; This function is called by:
  7192 ;;		_measure
  7193 ;; This function uses a non-reentrant model
  7194 ;;
  7195                           
  7196                           
  7197                           ;psect for function ___ftmul
  7198  03EB                     ___ftmul:
  7199  03EB                     l4966:	
  7200                           ;incstack = 0
  7201                           ; Regs used in ___ftmul: [wreg+status,2+status,0+pclath+cstack]
  7202                           
  7203  03EB  0140               	movlb	0	; select bank0
  7204  03EC  083B               	movf	___ftmul@f1,w
  7205  03ED  00C1               	movwf	??___ftmul
  7206  03EE  083C               	movf	___ftmul@f1+1,w
  7207  03EF  00C2               	movwf	??___ftmul+1
  7208  03F0  083D               	movf	___ftmul@f1+2,w
  7209  03F1  00C3               	movwf	??___ftmul+2
  7210  03F2  1003               	clrc
  7211  03F3  0D42               	rlf	??___ftmul+1,w
  7212  03F4  0D43               	rlf	??___ftmul+2,w
  7213  03F5  00C4               	movwf	??___ftmul+3
  7214  03F6  0844               	movf	??___ftmul+3,w
  7215  03F7  00C5               	movwf	___ftmul@exp
  7216  03F8  0845               	movf	___ftmul@exp,w
  7217  03F9  1D03               	btfss	3,2
  7218  03FA  2BFC               	goto	u5011
  7219  03FB  2BFD               	goto	u5010
  7220  03FC                     u5011:
  7221  03FC  2C04               	goto	l4972
  7222  03FD                     u5010:
  7223  03FD                     l4968:
  7224  03FD  3000               	movlw	0
  7225  03FE  00BB               	movwf	?___ftmul
  7226  03FF  3000               	movlw	0
  7227  0400  00BC               	movwf	?___ftmul+1
  7228  0401  3000               	movlw	0
  7229  0402  00BD               	movwf	?___ftmul+2
  7230  0403  2CAB               	goto	l1138
  7231  0404                     l4972:
  7232  0404  083E               	movf	___ftmul@f2,w
  7233  0405  00C1               	movwf	??___ftmul
  7234  0406  083F               	movf	___ftmul@f2+1,w
  7235  0407  00C2               	movwf	??___ftmul+1
  7236  0408  0840               	movf	___ftmul@f2+2,w
  7237  0409  00C3               	movwf	??___ftmul+2
  7238  040A  1003               	clrc
  7239  040B  0D42               	rlf	??___ftmul+1,w
  7240  040C  0D43               	rlf	??___ftmul+2,w
  7241  040D  00C4               	movwf	??___ftmul+3
  7242  040E  0844               	movf	??___ftmul+3,w
  7243  040F  00CA               	movwf	___ftmul@sign
  7244  0410  084A               	movf	___ftmul@sign,w
  7245  0411  1D03               	btfss	3,2
  7246  0412  2C14               	goto	u5021
  7247  0413  2C15               	goto	u5020
  7248  0414                     u5021:
  7249  0414  2C1C               	goto	l4978
  7250  0415                     u5020:
  7251  0415                     l4974:
  7252  0415  3000               	movlw	0
  7253  0416  00BB               	movwf	?___ftmul
  7254  0417  3000               	movlw	0
  7255  0418  00BC               	movwf	?___ftmul+1
  7256  0419  3000               	movlw	0
  7257  041A  00BD               	movwf	?___ftmul+2
  7258  041B  2CAB               	goto	l1138
  7259  041C                     l4978:
  7260  041C  084A               	movf	___ftmul@sign,w
  7261  041D  3E7B               	addlw	123
  7262  041E  00C1               	movwf	??___ftmul
  7263  041F  0841               	movf	??___ftmul,w
  7264  0420  07C5               	addwf	___ftmul@exp,f
  7265  0421  083B               	movf	___ftmul@f1,w
  7266  0422  00C1               	movwf	??___ftmul
  7267  0423  083C               	movf	___ftmul@f1+1,w
  7268  0424  00C2               	movwf	??___ftmul+1
  7269  0425  083D               	movf	___ftmul@f1+2,w
  7270  0426  00C3               	movwf	??___ftmul+2
  7271  0427  3010               	movlw	16
  7272  0428                     u5035:
  7273  0428  36C3               	lsrf	??___ftmul+2,f
  7274  0429  0CC2               	rrf	??___ftmul+1,f
  7275  042A  0CC1               	rrf	??___ftmul,f
  7276  042B                     u5030:
  7277  042B  0B89               	decfsz	9,f
  7278  042C  2C28               	goto	u5035
  7279  042D  0841               	movf	??___ftmul,w
  7280  042E  00C4               	movwf	??___ftmul+3
  7281  042F  0844               	movf	??___ftmul+3,w
  7282  0430  00CA               	movwf	___ftmul@sign
  7283  0431  083E               	movf	___ftmul@f2,w
  7284  0432  00C1               	movwf	??___ftmul
  7285  0433  083F               	movf	___ftmul@f2+1,w
  7286  0434  00C2               	movwf	??___ftmul+1
  7287  0435  0840               	movf	___ftmul@f2+2,w
  7288  0436  00C3               	movwf	??___ftmul+2
  7289  0437  3010               	movlw	16
  7290  0438                     u5045:
  7291  0438  36C3               	lsrf	??___ftmul+2,f
  7292  0439  0CC2               	rrf	??___ftmul+1,f
  7293  043A  0CC1               	rrf	??___ftmul,f
  7294  043B                     u5040:
  7295  043B  0B89               	decfsz	9,f
  7296  043C  2C38               	goto	u5045
  7297  043D  0841               	movf	??___ftmul,w
  7298  043E  00C4               	movwf	??___ftmul+3
  7299  043F  0844               	movf	??___ftmul+3,w
  7300  0440  06CA               	xorwf	___ftmul@sign,f
  7301  0441  3080               	movlw	128
  7302  0442  00C1               	movwf	??___ftmul
  7303  0443  0841               	movf	??___ftmul,w
  7304  0444  05CA               	andwf	___ftmul@sign,f
  7305  0445                     l4980:
  7306  0445  17BC               	bsf	___ftmul@f1+1,7
  7307  0446                     l4982:
  7308  0446  17BF               	bsf	___ftmul@f2+1,7
  7309  0447                     l4984:
  7310  0447  30FF               	movlw	255
  7311  0448  05BE               	andwf	___ftmul@f2,f
  7312  0449  30FF               	movlw	255
  7313  044A  05BF               	andwf	___ftmul@f2+1,f
  7314  044B  3000               	movlw	0
  7315  044C  05C0               	andwf	___ftmul@f2+2,f
  7316  044D                     l4986:
  7317  044D  3000               	movlw	0
  7318  044E  00C6               	movwf	___ftmul@f3_as_product
  7319  044F  3000               	movlw	0
  7320  0450  00C7               	movwf	___ftmul@f3_as_product+1
  7321  0451  3000               	movlw	0
  7322  0452  00C8               	movwf	___ftmul@f3_as_product+2
  7323  0453                     l4988:
  7324  0453  3007               	movlw	7
  7325  0454  00C1               	movwf	??___ftmul
  7326  0455  0841               	movf	??___ftmul,w
  7327  0456  00C9               	movwf	___ftmul@cntr
  7328  0457                     l4990:
  7329  0457  1C3B               	btfss	___ftmul@f1,0
  7330  0458  2C5A               	goto	u5051
  7331  0459  2C5B               	goto	u5050
  7332  045A                     u5051:
  7333  045A  2C61               	goto	l4994
  7334  045B                     u5050:
  7335  045B                     l4992:
  7336  045B  083E               	movf	___ftmul@f2,w
  7337  045C  07C6               	addwf	___ftmul@f3_as_product,f
  7338  045D  083F               	movf	___ftmul@f2+1,w
  7339  045E  3DC7               	addwfc	___ftmul@f3_as_product+1,f
  7340  045F  0840               	movf	___ftmul@f2+2,w
  7341  0460  3DC8               	addwfc	___ftmul@f3_as_product+2,f
  7342  0461                     l4994:
  7343  0461  3001               	movlw	1
  7344  0462                     u5065:
  7345  0462  36BD               	lsrf	___ftmul@f1+2,f
  7346  0463  0CBC               	rrf	___ftmul@f1+1,f
  7347  0464  0CBB               	rrf	___ftmul@f1,f
  7348  0465  0B89               	decfsz	9,f
  7349  0466  2C62               	goto	u5065
  7350  0467                     l4996:
  7351  0467  3001               	movlw	1
  7352  0468                     u5075:
  7353  0468  35BE               	lslf	___ftmul@f2,f
  7354  0469  0DBF               	rlf	___ftmul@f2+1,f
  7355  046A  0DC0               	rlf	___ftmul@f2+2,f
  7356  046B  0B89               	decfsz	9,f
  7357  046C  2C68               	goto	u5075
  7358  046D                     l4998:
  7359  046D  3001               	movlw	1
  7360  046E  02C9               	subwf	___ftmul@cntr,f
  7361  046F  1D03               	btfss	3,2
  7362  0470  2C72               	goto	u5081
  7363  0471  2C73               	goto	u5080
  7364  0472                     u5081:
  7365  0472  2C57               	goto	l4990
  7366  0473                     u5080:
  7367  0473                     l5000:
  7368  0473  3009               	movlw	9
  7369  0474  00C1               	movwf	??___ftmul
  7370  0475  0841               	movf	??___ftmul,w
  7371  0476  00C9               	movwf	___ftmul@cntr
  7372  0477                     l5002:
  7373  0477  1C3B               	btfss	___ftmul@f1,0
  7374  0478  2C7A               	goto	u5091
  7375  0479  2C7B               	goto	u5090
  7376  047A                     u5091:
  7377  047A  2C81               	goto	l5006
  7378  047B                     u5090:
  7379  047B                     l5004:
  7380  047B  083E               	movf	___ftmul@f2,w
  7381  047C  07C6               	addwf	___ftmul@f3_as_product,f
  7382  047D  083F               	movf	___ftmul@f2+1,w
  7383  047E  3DC7               	addwfc	___ftmul@f3_as_product+1,f
  7384  047F  0840               	movf	___ftmul@f2+2,w
  7385  0480  3DC8               	addwfc	___ftmul@f3_as_product+2,f
  7386  0481                     l5006:
  7387  0481  3001               	movlw	1
  7388  0482                     u5105:
  7389  0482  36BD               	lsrf	___ftmul@f1+2,f
  7390  0483  0CBC               	rrf	___ftmul@f1+1,f
  7391  0484  0CBB               	rrf	___ftmul@f1,f
  7392  0485  0B89               	decfsz	9,f
  7393  0486  2C82               	goto	u5105
  7394  0487                     l5008:
  7395  0487  3001               	movlw	1
  7396  0488                     u5115:
  7397  0488  36C8               	lsrf	___ftmul@f3_as_product+2,f
  7398  0489  0CC7               	rrf	___ftmul@f3_as_product+1,f
  7399  048A  0CC6               	rrf	___ftmul@f3_as_product,f
  7400  048B  0B89               	decfsz	9,f
  7401  048C  2C88               	goto	u5115
  7402  048D                     l5010:
  7403  048D  3001               	movlw	1
  7404  048E  02C9               	subwf	___ftmul@cntr,f
  7405  048F  1D03               	btfss	3,2
  7406  0490  2C92               	goto	u5121
  7407  0491  2C93               	goto	u5120
  7408  0492                     u5121:
  7409  0492  2C77               	goto	l5002
  7410  0493                     u5120:
  7411  0493                     l5012:
  7412  0493  0846               	movf	___ftmul@f3_as_product,w
  7413  0494  00A0               	movwf	___ftpack@arg
  7414  0495  0847               	movf	___ftmul@f3_as_product+1,w
  7415  0496  00A1               	movwf	___ftpack@arg+1
  7416  0497  0848               	movf	___ftmul@f3_as_product+2,w
  7417  0498  00A2               	movwf	___ftpack@arg+2
  7418  0499  0845               	movf	___ftmul@exp,w
  7419  049A  00C1               	movwf	??___ftmul
  7420  049B  0841               	movf	??___ftmul,w
  7421  049C  00A3               	movwf	___ftpack@exp
  7422  049D  084A               	movf	___ftmul@sign,w
  7423  049E  00C2               	movwf	??___ftmul+1
  7424  049F  0842               	movf	??___ftmul+1,w
  7425  04A0  00A4               	movwf	___ftpack@sign
  7426  04A1  3186  26F7  3183   	fcall	___ftpack
  7427  04A4  0140               	movlb	0	; select bank0
  7428  04A5  0820               	movf	?___ftpack,w
  7429  04A6  00BB               	movwf	?___ftmul
  7430  04A7  0821               	movf	?___ftpack+1,w
  7431  04A8  00BC               	movwf	?___ftmul+1
  7432  04A9  0822               	movf	?___ftpack+2,w
  7433  04AA  00BD               	movwf	?___ftmul+2
  7434  04AB                     l1138:
  7435  04AB  0008               	return
  7436  04AC                     __end_of___ftmul:
  7437                           
  7438                           	psect	text20
  7439  0DFE                     __ptext20:	
  7440 ;; *************** function ___ftge *****************
  7441 ;; Defined at:
  7442 ;;		line 4 in file "C:\Program Files\Microchip\xc8\v2.31\pic\sources\c90\common\ftge.c"
  7443 ;; Parameters:    Size  Location     Type
  7444 ;;  ff1             3    0[BANK0 ] float 
  7445 ;;  ff2             3    3[BANK0 ] float 
  7446 ;; Auto vars:     Size  Location     Type
  7447 ;;		None
  7448 ;; Return value:  Size  Location     Type
  7449 ;;		None               void
  7450 ;; Registers used:
  7451 ;;		wreg, status,2, status,0
  7452 ;; Tracked objects:
  7453 ;;		On entry : 0/0
  7454 ;;		On exit  : 0/0
  7455 ;;		Unchanged: 0/0
  7456 ;; Data sizes:     COMMON   BANK0   BANK1   BANK2   BANK3   BANK4   BANK5   BANK6   BANK7   BANK8   BANK9  BANK10  BANK1
      +1  BANK12  BANK13  BANK14  BANK15  BANK16  BANK17  BANK18  BANK19  BANK20  BANK21  BANK22  BANK23  BANK24  BANK25
  7457 ;;      Params:         0       6       0       0       0       0       0       0       0       0       0       0       
      +0       0       0       0       0       0       0       0       0       0       0       0       0       0       0
  7458 ;;      Locals:         0       0       0       0       0       0       0       0       0       0       0       0       
      +0       0       0       0       0       0       0       0       0       0       0       0       0       0       0
  7459 ;;      Temps:          0       0       0       0       0       0       0       0       0       0       0       0       
      +0       0       0       0       0       0       0       0       0       0       0       0       0       0       0
  7460 ;;      Totals:         0       6       0       0       0       0       0       0       0       0       0       0       
      +0       0       0       0       0       0       0       0       0       0       0       0       0       0       0
  7461 ;;Total ram usage:        6 bytes
  7462 ;; Hardware stack levels used:    1
  7463 ;; Hardware stack levels required when called:    3
  7464 ;; This function calls:
  7465 ;;		Nothing
  7466 ;; This function is called by:
  7467 ;;		_measure
  7468 ;; This function uses a non-reentrant model
  7469 ;;
  7470                           
  7471                           
  7472                           ;psect for function ___ftge
  7473  0DFE                     ___ftge:
  7474  0DFE                     l4946:	
  7475                           ;incstack = 0
  7476                           ; Regs used in ___ftge: [wreg+status,2+status,0]
  7477                           
  7478  0DFE  0140               	movlb	0	; select bank0
  7479  0DFF  1FA2               	btfss	___ftge@ff1+2,7
  7480  0E00  2E02               	goto	u4981
  7481  0E01  2E03               	goto	u4980
  7482  0E02                     u4981:
  7483  0E02  2E10               	goto	l4950
  7484  0E03                     u4980:
  7485  0E03                     l4948:
  7486  0E03  0820               	movf	___ftge@ff1,w
  7487  0E04  3C00               	sublw	0
  7488  0E05  00A0               	movwf	___ftge@ff1
  7489  0E06  0821               	movf	___ftge@ff1+1,w
  7490  0E07  1C03               	skipc
  7491  0E08  0F21               	incfsz	___ftge@ff1+1,w
  7492  0E09  3C00               	sublw	0
  7493  0E0A  00A1               	movwf	___ftge@ff1+1
  7494  0E0B  0822               	movf	___ftge@ff1+2,w
  7495  0E0C  1C03               	skipc
  7496  0E0D  0F22               	incfsz	___ftge@ff1+2,w
  7497  0E0E  3C80               	sublw	128
  7498  0E0F  00A2               	movwf	___ftge@ff1+2
  7499  0E10                     l4950:
  7500  0E10  1FA5               	btfss	___ftge@ff2+2,7
  7501  0E11  2E13               	goto	u4991
  7502  0E12  2E14               	goto	u4990
  7503  0E13                     u4991:
  7504  0E13  2E21               	goto	l4954
  7505  0E14                     u4990:
  7506  0E14                     l4952:
  7507  0E14  0823               	movf	___ftge@ff2,w
  7508  0E15  3C00               	sublw	0
  7509  0E16  00A3               	movwf	___ftge@ff2
  7510  0E17  0824               	movf	___ftge@ff2+1,w
  7511  0E18  1C03               	skipc
  7512  0E19  0F24               	incfsz	___ftge@ff2+1,w
  7513  0E1A  3C00               	sublw	0
  7514  0E1B  00A4               	movwf	___ftge@ff2+1
  7515  0E1C  0825               	movf	___ftge@ff2+2,w
  7516  0E1D  1C03               	skipc
  7517  0E1E  0F25               	incfsz	___ftge@ff2+2,w
  7518  0E1F  3C80               	sublw	128
  7519  0E20  00A5               	movwf	___ftge@ff2+2
  7520  0E21                     l4954:
  7521  0E21  3080               	movlw	128
  7522  0E22  06A2               	xorwf	___ftge@ff1+2,f
  7523  0E23                     l4956:
  7524  0E23  3080               	movlw	128
  7525  0E24  06A5               	xorwf	___ftge@ff2+2,f
  7526  0E25                     l4958:
  7527  0E25  0825               	movf	___ftge@ff2+2,w
  7528  0E26  0222               	subwf	___ftge@ff1+2,w
  7529  0E27  1D03               	skipz
  7530  0E28  2E2F               	goto	u5005
  7531  0E29  0824               	movf	___ftge@ff2+1,w
  7532  0E2A  0221               	subwf	___ftge@ff1+1,w
  7533  0E2B  1D03               	skipz
  7534  0E2C  2E2F               	goto	u5005
  7535  0E2D  0823               	movf	___ftge@ff2,w
  7536  0E2E  0220               	subwf	___ftge@ff1,w
  7537  0E2F                     u5005:
  7538  0E2F  1803               	skipnc
  7539  0E30  2E32               	goto	u5001
  7540  0E31  2E33               	goto	u5000
  7541  0E32                     u5001:
  7542  0E32  2E35               	goto	l4962
  7543  0E33                     u5000:
  7544  0E33                     l4960:
  7545  0E33  1003               	clrc
  7546  0E34  2E36               	goto	l1132
  7547  0E35                     l4962:
  7548  0E35  1403               	setc
  7549  0E36                     l1132:
  7550  0E36  0008               	return
  7551  0E37                     __end_of___ftge:
  7552                           
  7553                           	psect	text21
  7554  04AC                     __ptext21:	
  7555 ;; *************** function ___ftdiv *****************
  7556 ;; Defined at:
  7557 ;;		line 56 in file "C:\Program Files\Microchip\xc8\v2.31\pic\sources\c90\common\ftdiv.c"
  7558 ;; Parameters:    Size  Location     Type
  7559 ;;  f2              3   11[BANK0 ] float 
  7560 ;;  f1              3   14[BANK0 ] float 
  7561 ;; Auto vars:     Size  Location     Type
  7562 ;;  f3              3   23[BANK0 ] float 
  7563 ;;  sign            1   26[BANK0 ] unsigned char 
  7564 ;;  exp             1   22[BANK0 ] unsigned char 
  7565 ;;  cntr            1   21[BANK0 ] unsigned char 
  7566 ;; Return value:  Size  Location     Type
  7567 ;;                  3   11[BANK0 ] float 
  7568 ;; Registers used:
  7569 ;;		wreg, status,2, status,0, pclath, cstack
  7570 ;; Tracked objects:
  7571 ;;		On entry : 0/0
  7572 ;;		On exit  : 0/0
  7573 ;;		Unchanged: 0/0
  7574 ;; Data sizes:     COMMON   BANK0   BANK1   BANK2   BANK3   BANK4   BANK5   BANK6   BANK7   BANK8   BANK9  BANK10  BANK1
      +1  BANK12  BANK13  BANK14  BANK15  BANK16  BANK17  BANK18  BANK19  BANK20  BANK21  BANK22  BANK23  BANK24  BANK25
  7575 ;;      Params:         0       6       0       0       0       0       0       0       0       0       0       0       
      +0       0       0       0       0       0       0       0       0       0       0       0       0       0       0
  7576 ;;      Locals:         0       6       0       0       0       0       0       0       0       0       0       0       
      +0       0       0       0       0       0       0       0       0       0       0       0       0       0       0
  7577 ;;      Temps:          0       4       0       0       0       0       0       0       0       0       0       0       
      +0       0       0       0       0       0       0       0       0       0       0       0       0       0       0
  7578 ;;      Totals:         0      16       0       0       0       0       0       0       0       0       0       0       
      +0       0       0       0       0       0       0       0       0       0       0       0       0       0       0
  7579 ;;Total ram usage:       16 bytes
  7580 ;; Hardware stack levels used:    1
  7581 ;; Hardware stack levels required when called:    4
  7582 ;; This function calls:
  7583 ;;		___ftpack
  7584 ;; This function is called by:
  7585 ;;		_measure
  7586 ;;		_Power_SetThreshold
  7587 ;; This function uses a non-reentrant model
  7588 ;;
  7589                           
  7590                           
  7591                           ;psect for function ___ftdiv
  7592  04AC                     ___ftdiv:
  7593  04AC                     l4904:	
  7594                           ;incstack = 0
  7595                           ; Regs used in ___ftdiv: [wreg+status,2+status,0+pclath+cstack]
  7596                           
  7597  04AC  0140               	movlb	0	; select bank0
  7598  04AD  082E               	movf	___ftdiv@f1,w
  7599  04AE  00B1               	movwf	??___ftdiv
  7600  04AF  082F               	movf	___ftdiv@f1+1,w
  7601  04B0  00B2               	movwf	??___ftdiv+1
  7602  04B1  0830               	movf	___ftdiv@f1+2,w
  7603  04B2  00B3               	movwf	??___ftdiv+2
  7604  04B3  1003               	clrc
  7605  04B4  0D32               	rlf	??___ftdiv+1,w
  7606  04B5  0D33               	rlf	??___ftdiv+2,w
  7607  04B6  00B4               	movwf	??___ftdiv+3
  7608  04B7  0834               	movf	??___ftdiv+3,w
  7609  04B8  00B6               	movwf	___ftdiv@exp
  7610  04B9  0836               	movf	___ftdiv@exp,w
  7611  04BA  1D03               	btfss	3,2
  7612  04BB  2CBD               	goto	u4901
  7613  04BC  2CBE               	goto	u4900
  7614  04BD                     u4901:
  7615  04BD  2CC5               	goto	l4910
  7616  04BE                     u4900:
  7617  04BE                     l4906:
  7618  04BE  3000               	movlw	0
  7619  04BF  00AB               	movwf	?___ftdiv
  7620  04C0  3000               	movlw	0
  7621  04C1  00AC               	movwf	?___ftdiv+1
  7622  04C2  3000               	movlw	0
  7623  04C3  00AD               	movwf	?___ftdiv+2
  7624  04C4  2D5D               	goto	l1123
  7625  04C5                     l4910:
  7626  04C5  082B               	movf	___ftdiv@f2,w
  7627  04C6  00B1               	movwf	??___ftdiv
  7628  04C7  082C               	movf	___ftdiv@f2+1,w
  7629  04C8  00B2               	movwf	??___ftdiv+1
  7630  04C9  082D               	movf	___ftdiv@f2+2,w
  7631  04CA  00B3               	movwf	??___ftdiv+2
  7632  04CB  1003               	clrc
  7633  04CC  0D32               	rlf	??___ftdiv+1,w
  7634  04CD  0D33               	rlf	??___ftdiv+2,w
  7635  04CE  00B4               	movwf	??___ftdiv+3
  7636  04CF  0834               	movf	??___ftdiv+3,w
  7637  04D0  00BA               	movwf	___ftdiv@sign
  7638  04D1  083A               	movf	___ftdiv@sign,w
  7639  04D2  1D03               	btfss	3,2
  7640  04D3  2CD5               	goto	u4911
  7641  04D4  2CD6               	goto	u4910
  7642  04D5                     u4911:
  7643  04D5  2CDD               	goto	l4916
  7644  04D6                     u4910:
  7645  04D6                     l4912:
  7646  04D6  3000               	movlw	0
  7647  04D7  00AB               	movwf	?___ftdiv
  7648  04D8  3000               	movlw	0
  7649  04D9  00AC               	movwf	?___ftdiv+1
  7650  04DA  3000               	movlw	0
  7651  04DB  00AD               	movwf	?___ftdiv+2
  7652  04DC  2D5D               	goto	l1123
  7653  04DD                     l4916:
  7654  04DD  3000               	movlw	0
  7655  04DE  00B7               	movwf	___ftdiv@f3
  7656  04DF  3000               	movlw	0
  7657  04E0  00B8               	movwf	___ftdiv@f3+1
  7658  04E1  3000               	movlw	0
  7659  04E2  00B9               	movwf	___ftdiv@f3+2
  7660  04E3                     l4918:
  7661  04E3  3089               	movlw	137
  7662  04E4  073A               	addwf	___ftdiv@sign,w
  7663  04E5  00B1               	movwf	??___ftdiv
  7664  04E6  0831               	movf	??___ftdiv,w
  7665  04E7  02B6               	subwf	___ftdiv@exp,f
  7666  04E8                     l4920:
  7667  04E8  082E               	movf	___ftdiv@f1,w
  7668  04E9  00B1               	movwf	??___ftdiv
  7669  04EA  082F               	movf	___ftdiv@f1+1,w
  7670  04EB  00B2               	movwf	??___ftdiv+1
  7671  04EC  0830               	movf	___ftdiv@f1+2,w
  7672  04ED  00B3               	movwf	??___ftdiv+2
  7673  04EE  3010               	movlw	16
  7674  04EF                     u4925:
  7675  04EF  36B3               	lsrf	??___ftdiv+2,f
  7676  04F0  0CB2               	rrf	??___ftdiv+1,f
  7677  04F1  0CB1               	rrf	??___ftdiv,f
  7678  04F2                     u4920:
  7679  04F2  0B89               	decfsz	9,f
  7680  04F3  2CEF               	goto	u4925
  7681  04F4  0831               	movf	??___ftdiv,w
  7682  04F5  00B4               	movwf	??___ftdiv+3
  7683  04F6  0834               	movf	??___ftdiv+3,w
  7684  04F7  00BA               	movwf	___ftdiv@sign
  7685  04F8                     l4922:
  7686  04F8  082B               	movf	___ftdiv@f2,w
  7687  04F9  00B1               	movwf	??___ftdiv
  7688  04FA  082C               	movf	___ftdiv@f2+1,w
  7689  04FB  00B2               	movwf	??___ftdiv+1
  7690  04FC  082D               	movf	___ftdiv@f2+2,w
  7691  04FD  00B3               	movwf	??___ftdiv+2
  7692  04FE  3010               	movlw	16
  7693  04FF                     u4935:
  7694  04FF  36B3               	lsrf	??___ftdiv+2,f
  7695  0500  0CB2               	rrf	??___ftdiv+1,f
  7696  0501  0CB1               	rrf	??___ftdiv,f
  7697  0502                     u4930:
  7698  0502  0B89               	decfsz	9,f
  7699  0503  2CFF               	goto	u4935
  7700  0504  0831               	movf	??___ftdiv,w
  7701  0505  00B4               	movwf	??___ftdiv+3
  7702  0506  0834               	movf	??___ftdiv+3,w
  7703  0507  06BA               	xorwf	___ftdiv@sign,f
  7704  0508                     l4924:
  7705  0508  3080               	movlw	128
  7706  0509  00B1               	movwf	??___ftdiv
  7707  050A  0831               	movf	??___ftdiv,w
  7708  050B  05BA               	andwf	___ftdiv@sign,f
  7709  050C                     l4926:
  7710  050C  17AF               	bsf	___ftdiv@f1+1,7
  7711  050D  30FF               	movlw	255
  7712  050E  05AE               	andwf	___ftdiv@f1,f
  7713  050F  30FF               	movlw	255
  7714  0510  05AF               	andwf	___ftdiv@f1+1,f
  7715  0511  3000               	movlw	0
  7716  0512  05B0               	andwf	___ftdiv@f1+2,f
  7717  0513                     l4928:
  7718  0513  17AC               	bsf	___ftdiv@f2+1,7
  7719  0514  30FF               	movlw	255
  7720  0515  05AB               	andwf	___ftdiv@f2,f
  7721  0516  30FF               	movlw	255
  7722  0517  05AC               	andwf	___ftdiv@f2+1,f
  7723  0518  3000               	movlw	0
  7724  0519  05AD               	andwf	___ftdiv@f2+2,f
  7725  051A  3018               	movlw	24
  7726  051B  00B1               	movwf	??___ftdiv
  7727  051C  0831               	movf	??___ftdiv,w
  7728  051D  00B5               	movwf	___ftdiv@cntr
  7729  051E                     l4930:
  7730  051E  3001               	movlw	1
  7731  051F                     u4945:
  7732  051F  35B7               	lslf	___ftdiv@f3,f
  7733  0520  0DB8               	rlf	___ftdiv@f3+1,f
  7734  0521  0DB9               	rlf	___ftdiv@f3+2,f
  7735  0522  0B89               	decfsz	9,f
  7736  0523  2D1F               	goto	u4945
  7737  0524                     l4932:
  7738  0524  082D               	movf	___ftdiv@f2+2,w
  7739  0525  0230               	subwf	___ftdiv@f1+2,w
  7740  0526  1D03               	skipz
  7741  0527  2D2E               	goto	u4955
  7742  0528  082C               	movf	___ftdiv@f2+1,w
  7743  0529  022F               	subwf	___ftdiv@f1+1,w
  7744  052A  1D03               	skipz
  7745  052B  2D2E               	goto	u4955
  7746  052C  082B               	movf	___ftdiv@f2,w
  7747  052D  022E               	subwf	___ftdiv@f1,w
  7748  052E                     u4955:
  7749  052E  1C03               	skipc
  7750  052F  2D31               	goto	u4951
  7751  0530  2D32               	goto	u4950
  7752  0531                     u4951:
  7753  0531  2D39               	goto	l4938
  7754  0532                     u4950:
  7755  0532                     l4934:
  7756  0532  082B               	movf	___ftdiv@f2,w
  7757  0533  02AE               	subwf	___ftdiv@f1,f
  7758  0534  082C               	movf	___ftdiv@f2+1,w
  7759  0535  3BAF               	subwfb	___ftdiv@f1+1,f
  7760  0536  082D               	movf	___ftdiv@f2+2,w
  7761  0537  3BB0               	subwfb	___ftdiv@f1+2,f
  7762  0538                     l4936:
  7763  0538  1437               	bsf	___ftdiv@f3,0
  7764  0539                     l4938:
  7765  0539  3001               	movlw	1
  7766  053A                     u4965:
  7767  053A  35AE               	lslf	___ftdiv@f1,f
  7768  053B  0DAF               	rlf	___ftdiv@f1+1,f
  7769  053C  0DB0               	rlf	___ftdiv@f1+2,f
  7770  053D  0B89               	decfsz	9,f
  7771  053E  2D3A               	goto	u4965
  7772  053F                     l4940:
  7773  053F  3001               	movlw	1
  7774  0540  02B5               	subwf	___ftdiv@cntr,f
  7775  0541  1D03               	btfss	3,2
  7776  0542  2D44               	goto	u4971
  7777  0543  2D45               	goto	u4970
  7778  0544                     u4971:
  7779  0544  2D1E               	goto	l4930
  7780  0545                     u4970:
  7781  0545                     l4942:
  7782  0545  0837               	movf	___ftdiv@f3,w
  7783  0546  00A0               	movwf	___ftpack@arg
  7784  0547  0838               	movf	___ftdiv@f3+1,w
  7785  0548  00A1               	movwf	___ftpack@arg+1
  7786  0549  0839               	movf	___ftdiv@f3+2,w
  7787  054A  00A2               	movwf	___ftpack@arg+2
  7788  054B  0836               	movf	___ftdiv@exp,w
  7789  054C  00B1               	movwf	??___ftdiv
  7790  054D  0831               	movf	??___ftdiv,w
  7791  054E  00A3               	movwf	___ftpack@exp
  7792  054F  083A               	movf	___ftdiv@sign,w
  7793  0550  00B2               	movwf	??___ftdiv+1
  7794  0551  0832               	movf	??___ftdiv+1,w
  7795  0552  00A4               	movwf	___ftpack@sign
  7796  0553  3186  26F7  3184   	fcall	___ftpack
  7797  0556  0140               	movlb	0	; select bank0
  7798  0557  0820               	movf	?___ftpack,w
  7799  0558  00AB               	movwf	?___ftdiv
  7800  0559  0821               	movf	?___ftpack+1,w
  7801  055A  00AC               	movwf	?___ftdiv+1
  7802  055B  0822               	movf	?___ftpack+2,w
  7803  055C  00AD               	movwf	?___ftdiv+2
  7804  055D                     l1123:
  7805  055D  0008               	return
  7806  055E                     __end_of___ftdiv:
  7807                           
  7808                           	psect	text22
  7809  06F7                     __ptext22:	
  7810 ;; *************** function ___ftpack *****************
  7811 ;; Defined at:
  7812 ;;		line 62 in file "C:\Program Files\Microchip\xc8\v2.31\pic\sources\c90\common\float.c"
  7813 ;; Parameters:    Size  Location     Type
  7814 ;;  arg             3    0[BANK0 ] unsigned um
  7815 ;;  exp             1    3[BANK0 ] unsigned char 
  7816 ;;  sign            1    4[BANK0 ] unsigned char 
  7817 ;; Auto vars:     Size  Location     Type
  7818 ;;		None
  7819 ;; Return value:  Size  Location     Type
  7820 ;;                  3    0[BANK0 ] float 
  7821 ;; Registers used:
  7822 ;;		wreg, status,2, status,0
  7823 ;; Tracked objects:
  7824 ;;		On entry : 0/0
  7825 ;;		On exit  : 0/0
  7826 ;;		Unchanged: 0/0
  7827 ;; Data sizes:     COMMON   BANK0   BANK1   BANK2   BANK3   BANK4   BANK5   BANK6   BANK7   BANK8   BANK9  BANK10  BANK1
      +1  BANK12  BANK13  BANK14  BANK15  BANK16  BANK17  BANK18  BANK19  BANK20  BANK21  BANK22  BANK23  BANK24  BANK25
  7828 ;;      Params:         0       5       0       0       0       0       0       0       0       0       0       0       
      +0       0       0       0       0       0       0       0       0       0       0       0       0       0       0
  7829 ;;      Locals:         0       0       0       0       0       0       0       0       0       0       0       0       
      +0       0       0       0       0       0       0       0       0       0       0       0       0       0       0
  7830 ;;      Temps:          0       3       0       0       0       0       0       0       0       0       0       0       
      +0       0       0       0       0       0       0       0       0       0       0       0       0       0       0
  7831 ;;      Totals:         0       8       0       0       0       0       0       0       0       0       0       0       
      +0       0       0       0       0       0       0       0       0       0       0       0       0       0       0
  7832 ;;Total ram usage:        8 bytes
  7833 ;; Hardware stack levels used:    1
  7834 ;; Hardware stack levels required when called:    3
  7835 ;; This function calls:
  7836 ;;		Nothing
  7837 ;; This function is called by:
  7838 ;;		___altoft
  7839 ;;		___ftadd
  7840 ;;		___ftdiv
  7841 ;;		___ftmul
  7842 ;;		___lwtoft
  7843 ;; This function uses a non-reentrant model
  7844 ;;
  7845                           
  7846                           
  7847                           ;psect for function ___ftpack
  7848  06F7                     ___ftpack:
  7849  06F7                     l4682:	
  7850                           ;incstack = 0
  7851                           ; Regs used in ___ftpack: [wreg+status,2+status,0]
  7852                           
  7853  06F7  0140               	movlb	0	; select bank0
  7854  06F8  0823               	movf	___ftpack@exp,w
  7855  06F9  1903               	btfsc	3,2
  7856  06FA  2EFC               	goto	u4371
  7857  06FB  2EFD               	goto	u4370
  7858  06FC                     u4371:
  7859  06FC  2F04               	goto	l4686
  7860  06FD                     u4370:
  7861  06FD                     l4684:
  7862  06FD  0822               	movf	___ftpack@arg+2,w
  7863  06FE  0421               	iorwf	___ftpack@arg+1,w
  7864  06FF  0420               	iorwf	___ftpack@arg,w
  7865  0700  1D03               	skipz
  7866  0701  2F03               	goto	u4381
  7867  0702  2F04               	goto	u4380
  7868  0703                     u4381:
  7869  0703  2F15               	goto	l4692
  7870  0704                     u4380:
  7871  0704                     l4686:
  7872  0704  3000               	movlw	0
  7873  0705  00A0               	movwf	?___ftpack
  7874  0706  3000               	movlw	0
  7875  0707  00A1               	movwf	?___ftpack+1
  7876  0708  3000               	movlw	0
  7877  0709  00A2               	movwf	?___ftpack+2
  7878  070A  2F6B               	goto	l1071
  7879  070B                     l4690:
  7880  070B  3001               	movlw	1
  7881  070C  00A5               	movwf	??___ftpack
  7882  070D  0825               	movf	??___ftpack,w
  7883  070E  07A3               	addwf	___ftpack@exp,f
  7884  070F  3001               	movlw	1
  7885  0710                     u4395:
  7886  0710  36A2               	lsrf	___ftpack@arg+2,f
  7887  0711  0CA1               	rrf	___ftpack@arg+1,f
  7888  0712  0CA0               	rrf	___ftpack@arg,f
  7889  0713  0B89               	decfsz	9,f
  7890  0714  2F10               	goto	u4395
  7891  0715                     l4692:
  7892  0715  30FE               	movlw	254
  7893  0716  0522               	andwf	___ftpack@arg+2,w
  7894  0717  1D03               	btfss	3,2
  7895  0718  2F1A               	goto	u4401
  7896  0719  2F1B               	goto	u4400
  7897  071A                     u4401:
  7898  071A  2F0B               	goto	l4690
  7899  071B                     u4400:
  7900  071B  2F30               	goto	l1075
  7901  071C                     l4694:
  7902  071C  3001               	movlw	1
  7903  071D  00A5               	movwf	??___ftpack
  7904  071E  0825               	movf	??___ftpack,w
  7905  071F  07A3               	addwf	___ftpack@exp,f
  7906  0720                     l4696:
  7907  0720  3001               	movlw	1
  7908  0721  07A0               	addwf	___ftpack@arg,f
  7909  0722  3000               	movlw	0
  7910  0723  1803               	skipnc
  7911  0724  3001               	movlw	1
  7912  0725  07A1               	addwf	___ftpack@arg+1,f
  7913  0726  3000               	movlw	0
  7914  0727  1803               	skipnc
  7915  0728  3001               	movlw	1
  7916  0729  07A2               	addwf	___ftpack@arg+2,f
  7917  072A                     l4698:
  7918  072A  3001               	movlw	1
  7919  072B                     u4415:
  7920  072B  36A2               	lsrf	___ftpack@arg+2,f
  7921  072C  0CA1               	rrf	___ftpack@arg+1,f
  7922  072D  0CA0               	rrf	___ftpack@arg,f
  7923  072E  0B89               	decfsz	9,f
  7924  072F  2F2B               	goto	u4415
  7925  0730                     l1075:
  7926  0730  30FF               	movlw	255
  7927  0731  0522               	andwf	___ftpack@arg+2,w
  7928  0732  1D03               	btfss	3,2
  7929  0733  2F35               	goto	u4421
  7930  0734  2F36               	goto	u4420
  7931  0735                     u4421:
  7932  0735  2F1C               	goto	l4694
  7933  0736                     u4420:
  7934  0736  2F3F               	goto	l4702
  7935  0737                     l4700:
  7936  0737  3001               	movlw	1
  7937  0738  02A3               	subwf	___ftpack@exp,f
  7938  0739  3001               	movlw	1
  7939  073A                     u4435:
  7940  073A  35A0               	lslf	___ftpack@arg,f
  7941  073B  0DA1               	rlf	___ftpack@arg+1,f
  7942  073C  0DA2               	rlf	___ftpack@arg+2,f
  7943  073D  0B89               	decfsz	9,f
  7944  073E  2F3A               	goto	u4435
  7945  073F                     l4702:
  7946  073F  1BA1               	btfsc	___ftpack@arg+1,7
  7947  0740  2F42               	goto	u4441
  7948  0741  2F43               	goto	u4440
  7949  0742                     u4441:
  7950  0742  2F49               	goto	l1082
  7951  0743                     u4440:
  7952  0743                     l4704:
  7953  0743  3002               	movlw	2
  7954  0744  0223               	subwf	___ftpack@exp,w
  7955  0745  1803               	skipnc
  7956  0746  2F48               	goto	u4451
  7957  0747  2F49               	goto	u4450
  7958  0748                     u4451:
  7959  0748  2F37               	goto	l4700
  7960  0749                     u4450:
  7961  0749                     l1082:
  7962  0749  1823               	btfsc	___ftpack@exp,0
  7963  074A  2F4C               	goto	u4461
  7964  074B  2F4D               	goto	u4460
  7965  074C                     u4461:
  7966  074C  2F53               	goto	l1083
  7967  074D                     u4460:
  7968  074D                     l4706:
  7969  074D  30FF               	movlw	255
  7970  074E  05A0               	andwf	___ftpack@arg,f
  7971  074F  307F               	movlw	127
  7972  0750  05A1               	andwf	___ftpack@arg+1,f
  7973  0751  30FF               	movlw	255
  7974  0752  05A2               	andwf	___ftpack@arg+2,f
  7975  0753                     l1083:
  7976  0753  1003               	clrc
  7977  0754  0CA3               	rrf	___ftpack@exp,f
  7978  0755                     l4708:
  7979  0755  0823               	movf	___ftpack@exp,w
  7980  0756  00A5               	movwf	??___ftpack
  7981  0757  01A6               	clrf	??___ftpack+1
  7982  0758  01A7               	clrf	??___ftpack+2
  7983  0759  3010               	movlw	16
  7984  075A                     u4475:
  7985  075A  35A5               	lslf	??___ftpack,f
  7986  075B  0DA6               	rlf	??___ftpack+1,f
  7987  075C  0DA7               	rlf	??___ftpack+2,f
  7988  075D                     u4470:
  7989  075D  0B89               	decfsz	9,f
  7990  075E  2F5A               	goto	u4475
  7991  075F  0825               	movf	??___ftpack,w
  7992  0760  04A0               	iorwf	___ftpack@arg,f
  7993  0761  0826               	movf	??___ftpack+1,w
  7994  0762  04A1               	iorwf	___ftpack@arg+1,f
  7995  0763  0827               	movf	??___ftpack+2,w
  7996  0764  04A2               	iorwf	___ftpack@arg+2,f
  7997  0765                     l4710:
  7998  0765  0824               	movf	___ftpack@sign,w
  7999  0766  1903               	btfsc	3,2
  8000  0767  2F69               	goto	u4481
  8001  0768  2F6A               	goto	u4480
  8002  0769                     u4481:
  8003  0769  2F6B               	goto	l1084
  8004  076A                     u4480:
  8005  076A                     l4712:
  8006  076A  17A2               	bsf	___ftpack@arg+2,7
  8007  076B                     l1084:
  8008  076B                     l1071:
  8009  076B  0008               	return
  8010  076C                     __end_of___ftpack:
  8011                           
  8012                           	psect	text23
  8013  0CC1                     __ptext23:	
  8014 ;; *************** function _ADCC_GetSingleConversion *****************
  8015 ;; Defined at:
  8016 ;;		line 147 in file "system/adcc.c"
  8017 ;; Parameters:    Size  Location     Type
  8018 ;;  channel         1    wreg     enum E10752
  8019 ;; Auto vars:     Size  Location     Type
  8020 ;;  channel         1    4[COMMON] enum E10752
  8021 ;; Return value:  Size  Location     Type
  8022 ;;                  2    0[BANK0 ] unsigned int 
  8023 ;; Registers used:
  8024 ;;		wreg
  8025 ;; Tracked objects:
  8026 ;;		On entry : 0/0
  8027 ;;		On exit  : 0/0
  8028 ;;		Unchanged: 0/0
  8029 ;; Data sizes:     COMMON   BANK0   BANK1   BANK2   BANK3   BANK4   BANK5   BANK6   BANK7   BANK8   BANK9  BANK10  BANK1
      +1  BANK12  BANK13  BANK14  BANK15  BANK16  BANK17  BANK18  BANK19  BANK20  BANK21  BANK22  BANK23  BANK24  BANK25
  8030 ;;      Params:         0       3       0       0       0       0       0       0       0       0       0       0       
      +0       0       0       0       0       0       0       0       0       0       0       0       0       0       0
  8031 ;;      Locals:         1       0       0       0       0       0       0       0       0       0       0       0       
      +0       0       0       0       0       0       0       0       0       0       0       0       0       0       0
  8032 ;;      Temps:          0       0       0       0       0       0       0       0       0       0       0       0       
      +0       0       0       0       0       0       0       0       0       0       0       0       0       0       0
  8033 ;;      Totals:         1       3       0       0       0       0       0       0       0       0       0       0       
      +0       0       0       0       0       0       0       0       0       0       0       0       0       0       0
  8034 ;;Total ram usage:        4 bytes
  8035 ;; Hardware stack levels used:    1
  8036 ;; Hardware stack levels required when called:    3
  8037 ;; This function calls:
  8038 ;;		Nothing
  8039 ;; This function is called by:
  8040 ;;		_measure
  8041 ;; This function uses a non-reentrant model
  8042 ;;
  8043                           
  8044                           
  8045                           ;psect for function _ADCC_GetSingleConversion
  8046  0CC1                     _ADCC_GetSingleConversion:
  8047                           
  8048                           ;incstack = 0
  8049                           ; Regs used in _ADCC_GetSingleConversion: [wreg]
  8050                           ;ADCC_GetSingleConversion@channel stored from wreg
  8051  0CC1  00F4               	movwf	ADCC_GetSingleConversion@channel
  8052  0CC2                     l4884:
  8053                           
  8054                           ;adcc.c: 150: ADPCH = channel;
  8055  0CC2  0874               	movf	ADCC_GetSingleConversion@channel,w
  8056  0CC3  0141               	movlb	1	; select bank1
  8057  0CC4  009F               	movwf	31	;volatile
  8058  0CC5                     l4886:
  8059                           
  8060                           ;adcc.c: 153: ADCON0bits.ADON = 1;
  8061  0CC5  0142               	movlb	2	; select bank2
  8062  0CC6  1791               	bsf	17,7	;volatile
  8063  0CC7                     l4888:
  8064                           
  8065                           ;adcc.c: 156: ADCON0bits.ADCONT = 0;
  8066  0CC7  1311               	bcf	17,6	;volatile
  8067  0CC8                     l4890:
  8068                           
  8069                           ;adcc.c: 159: ADCON0bits.ADGO = 1;
  8070  0CC8  1411               	bsf	17,0	;volatile
  8071  0CC9                     l324:	
  8072                           ;adcc.c: 164: {
  8073                           
  8074  0CC9  1811               	btfsc	17,0	;volatile
  8075  0CCA  2CCC               	goto	u4891
  8076  0CCB  2CCD               	goto	u4890
  8077  0CCC                     u4891:
  8078  0CCC  2CC9               	goto	l324
  8079  0CCD                     u4890:
  8080  0CCD                     l4892:
  8081                           
  8082                           ;adcc.c: 165: };adcc.c: 169: return ((adc_result_t)((ADRESH << 8) + ADRESL));
  8083  0CCD  0141               	movlb	1	; select bank1
  8084  0CCE  081E               	movf	30,w	;volatile
  8085  0CCF  0140               	movlb	0	; select bank0
  8086  0CD0  00A1               	movwf	?_ADCC_GetSingleConversion+1
  8087  0CD1  0141               	movlb	1	; select bank1
  8088  0CD2  081D               	movf	29,w	;volatile
  8089  0CD3  0140               	movlb	0	; select bank0
  8090  0CD4  00A0               	movwf	?_ADCC_GetSingleConversion
  8091  0CD5                     l327:
  8092  0CD5  0008               	return
  8093  0CD6                     __end_of_ADCC_GetSingleConversion:
  8094                           
  8095                           	psect	text24
  8096  0C85                     __ptext24:	
  8097 ;; *************** function _generateIntPower *****************
  8098 ;; Defined at:
  8099 ;;		line 113 in file "sensor/power.c"
  8100 ;; Parameters:    Size  Location     Type
  8101 ;;		None
  8102 ;; Auto vars:     Size  Location     Type
  8103 ;;		None
  8104 ;; Return value:  Size  Location     Type
  8105 ;;                  1    wreg      void 
  8106 ;; Registers used:
  8107 ;;		wreg
  8108 ;; Tracked objects:
  8109 ;;		On entry : 0/0
  8110 ;;		On exit  : 0/0
  8111 ;;		Unchanged: 0/0
  8112 ;; Data sizes:     COMMON   BANK0   BANK1   BANK2   BANK3   BANK4   BANK5   BANK6   BANK7   BANK8   BANK9  BANK10  BANK1
      +1  BANK12  BANK13  BANK14  BANK15  BANK16  BANK17  BANK18  BANK19  BANK20  BANK21  BANK22  BANK23  BANK24  BANK25
  8113 ;;      Params:         0       0       0       0       0       0       0       0       0       0       0       0       
      +0       0       0       0       0       0       0       0       0       0       0       0       0       0       0
  8114 ;;      Locals:         0       0       0       0       0       0       0       0       0       0       0       0       
      +0       0       0       0       0       0       0       0       0       0       0       0       0       0       0
  8115 ;;      Temps:          1       0       0       0       0       0       0       0       0       0       0       0       
      +0       0       0       0       0       0       0       0       0       0       0       0       0       0       0
  8116 ;;      Totals:         1       0       0       0       0       0       0       0       0       0       0       0       
      +0       0       0       0       0       0       0       0       0       0       0       0       0       0       0
  8117 ;;Total ram usage:        1 bytes
  8118 ;; Hardware stack levels used:    1
  8119 ;; Hardware stack levels required when called:    3
  8120 ;; This function calls:
  8121 ;;		Nothing
  8122 ;; This function is called by:
  8123 ;;		_Power_Loop
  8124 ;; This function uses a non-reentrant model
  8125 ;;
  8126                           
  8127                           
  8128                           ;psect for function _generateIntPower
  8129  0C85                     _generateIntPower:
  8130  0C85                     l518:	
  8131                           ;incstack = 0
  8132                           ; Regs used in _generateIntPower: [wreg]
  8133                           ;power.c: 114: do { LATCbits.LATC7 = 0; } while(0);
  8134                           
  8135  0C85  0140               	movlb	0	; select bank0
  8136  0C86  139A               	bcf	26,7	;volatile
  8137  0C87                     l5102:
  8138                           
  8139                           ;power.c: 115: _delay((unsigned long)((1)*(32000000/4000.0)));
  8140  0C87  300B               	movlw	11
  8141  0C88  00F4               	movwf	??_generateIntPower
  8142  0C89  3062               	movlw	98
  8143  0C8A                     u5507:
  8144  0C8A  0B89               	decfsz	9,f
  8145  0C8B  2C8A               	goto	u5507
  8146  0C8C  0BF4               	decfsz	??_generateIntPower,f
  8147  0C8D  2C8A               	goto	u5507
  8148  0C8E  3200               	nop2
  8149  0C8F                     l5104:
  8150  0C8F  0140               	movlb	0	; select bank0
  8151  0C90  179A               	bsf	26,7	;volatile
  8152  0C91                     l522:
  8153  0C91  0008               	return
  8154  0C92                     __end_of_generateIntPower:
  8155                           
  8156                           	psect	text25
  8157  0C59                     __ptext25:	
  8158 ;; *************** function _enterSleep *****************
  8159 ;; Defined at:
  8160 ;;		line 201 in file "sensor/power.c"
  8161 ;; Parameters:    Size  Location     Type
  8162 ;;		None
  8163 ;; Auto vars:     Size  Location     Type
  8164 ;;		None
  8165 ;; Return value:  Size  Location     Type
  8166 ;;                  1    wreg      void 
  8167 ;; Registers used:
  8168 ;;		None
  8169 ;; Tracked objects:
  8170 ;;		On entry : 0/0
  8171 ;;		On exit  : 0/0
  8172 ;;		Unchanged: 0/0
  8173 ;; Data sizes:     COMMON   BANK0   BANK1   BANK2   BANK3   BANK4   BANK5   BANK6   BANK7   BANK8   BANK9  BANK10  BANK1
      +1  BANK12  BANK13  BANK14  BANK15  BANK16  BANK17  BANK18  BANK19  BANK20  BANK21  BANK22  BANK23  BANK24  BANK25
  8174 ;;      Params:         0       0       0       0       0       0       0       0       0       0       0       0       
      +0       0       0       0       0       0       0       0       0       0       0       0       0       0       0
  8175 ;;      Locals:         0       0       0       0       0       0       0       0       0       0       0       0       
      +0       0       0       0       0       0       0       0       0       0       0       0       0       0       0
  8176 ;;      Temps:          0       0       0       0       0       0       0       0       0       0       0       0       
      +0       0       0       0       0       0       0       0       0       0       0       0       0       0       0
  8177 ;;      Totals:         0       0       0       0       0       0       0       0       0       0       0       0       
      +0       0       0       0       0       0       0       0       0       0       0       0       0       0       0
  8178 ;;Total ram usage:        0 bytes
  8179 ;; Hardware stack levels used:    1
  8180 ;; Hardware stack levels required when called:    3
  8181 ;; This function calls:
  8182 ;;		Nothing
  8183 ;; This function is called by:
  8184 ;;		_Power_Loop
  8185 ;; This function uses a non-reentrant model
  8186 ;;
  8187                           
  8188                           
  8189                           ;psect for function _enterSleep
  8190  0C59                     _enterSleep:
  8191  0C59                     l5188:	
  8192                           ;incstack = 0
  8193                           ; Regs used in _enterSleep: []
  8194                           
  8195                           
  8196                           ;power.c: 202: CPUDOZEbits.IDLEN = 0;
  8197  0C59  0151               	movlb	17	; select bank17
  8198  0C5A  138C               	bcf	12,7	;volatile
  8199                           
  8200                           ;power.c: 203: __nop();
  8201  0C5B  0000               	nop
  8202  0C5C  0063               	sleep	;# 
  8203                           
  8204                           ;power.c: 205: __nop();
  8205  0C5D  0000               	nop
  8206                           
  8207                           ;power.c: 206: __nop();
  8208  0C5E  0000               	nop
  8209  0C5F                     l565:
  8210  0C5F  0008               	return
  8211  0C60                     __end_of_enterSleep:
  8212                           
  8213                           	psect	text26
  8214  0D4D                     __ptext26:	
  8215 ;; *************** function _Power_Init *****************
  8216 ;; Defined at:
  8217 ;;		line 211 in file "sensor/power.c"
  8218 ;; Parameters:    Size  Location     Type
  8219 ;;		None
  8220 ;; Auto vars:     Size  Location     Type
  8221 ;;		None
  8222 ;; Return value:  Size  Location     Type
  8223 ;;                  1    wreg      void 
  8224 ;; Registers used:
  8225 ;;		wreg, status,2, status,0, pclath, cstack
  8226 ;; Tracked objects:
  8227 ;;		On entry : 0/0
  8228 ;;		On exit  : 0/0
  8229 ;;		Unchanged: 0/0
  8230 ;; Data sizes:     COMMON   BANK0   BANK1   BANK2   BANK3   BANK4   BANK5   BANK6   BANK7   BANK8   BANK9  BANK10  BANK1
      +1  BANK12  BANK13  BANK14  BANK15  BANK16  BANK17  BANK18  BANK19  BANK20  BANK21  BANK22  BANK23  BANK24  BANK25
  8231 ;;      Params:         0       0       0       0       0       0       0       0       0       0       0       0       
      +0       0       0       0       0       0       0       0       0       0       0       0       0       0       0
  8232 ;;      Locals:         0       0       0       0       0       0       0       0       0       0       0       0       
      +0       0       0       0       0       0       0       0       0       0       0       0       0       0       0
  8233 ;;      Temps:          0       0       0       0       0       0       0       0       0       0       0       0       
      +0       0       0       0       0       0       0       0       0       0       0       0       0       0       0
  8234 ;;      Totals:         0       0       0       0       0       0       0       0       0       0       0       0       
      +0       0       0       0       0       0       0       0       0       0       0       0       0       0       0
  8235 ;;Total ram usage:        0 bytes
  8236 ;; Hardware stack levels used:    1
  8237 ;; Hardware stack levels required when called:    4
  8238 ;; This function calls:
  8239 ;;		_ADC_Init
  8240 ;;		_ledBlink
  8241 ;; This function is called by:
  8242 ;;		_main
  8243 ;; This function uses a non-reentrant model
  8244 ;;
  8245                           
  8246                           
  8247                           ;psect for function _Power_Init
  8248  0D4D                     _Power_Init:
  8249  0D4D                     l5254:	
  8250                           ;incstack = 0
  8251                           ; Regs used in _Power_Init: [wreg+status,2+status,0+pclath+cstack]
  8252                           
  8253                           
  8254                           ;power.c: 214: PMD0bits.IOCMD = 0;
  8255  0D4D  014F               	movlb	15	; select bank15
  8256  0D4E  1016               	bcf	22,0	;volatile
  8257                           
  8258                           ;power.c: 217: PMD0bits.FVRMD = 0;
  8259  0D4F  1316               	bcf	22,6	;volatile
  8260  0D50                     l5256:
  8261                           
  8262                           ;power.c: 220: ADC_Init();
  8263  0D50  3187  27DE  318D   	fcall	_ADC_Init
  8264  0D53                     l5258:
  8265  0D53  017E               	movlb	62	; select bank62
  8266  0D54  13CE               	bcf	78,7	;volatile
  8267  0D55                     l5260:
  8268  0D55  0140               	movlb	0	; select bank0
  8269  0D56  1394               	bcf	20,7	;volatile
  8270  0D57                     l5262:
  8271  0D57  179A               	bsf	26,7	;volatile
  8272  0D58                     l5264:
  8273  0D58  017E               	movlb	62	; select bank62
  8274  0D59  1343               	bcf	67,6	;volatile
  8275  0D5A                     l5266:
  8276  0D5A  10CE               	bcf	78,1	;volatile
  8277  0D5B                     l5268:
  8278  0D5B  0140               	movlb	0	; select bank0
  8279  0D5C  1313               	bcf	19,6	;volatile
  8280  0D5D                     l5270:
  8281  0D5D  1094               	bcf	20,1	;volatile
  8282  0D5E                     l5272:
  8283  0D5E  1319               	bcf	25,6	;volatile
  8284  0D5F                     l5274:
  8285  0D5F  109A               	bcf	26,1	;volatile
  8286  0D60                     l5276:
  8287  0D60  017E               	movlb	62	; select bank62
  8288  0D61  104E               	bcf	78,0	;volatile
  8289  0D62                     l5278:
  8290  0D62  134E               	bcf	78,6	;volatile
  8291  0D63                     l5280:
  8292  0D63  0140               	movlb	0	; select bank0
  8293  0D64  1014               	bcf	20,0	;volatile
  8294  0D65                     l5282:
  8295  0D65  1314               	bcf	20,6	;volatile
  8296  0D66                     l5284:
  8297  0D66  101A               	bcf	26,0	;volatile
  8298  0D67                     l5286:
  8299  0D67  131A               	bcf	26,6	;volatile
  8300  0D68                     l5288:
  8301  0D68  1594               	bsf	20,3	;volatile
  8302  0D69                     l5290:
  8303  0D69  1614               	bsf	20,4	;volatile
  8304  0D6A                     l5292:
  8305  0D6A  017E               	movlb	62	; select bank62
  8306  0D6B  15CE               	bsf	78,3	;volatile
  8307  0D6C                     l5294:
  8308  0D6C  164E               	bsf	78,4	;volatile
  8309  0D6D                     l605:
  8310                           
  8311                           ;power.c: 250: ledBlink();
  8312  0D6D  3185  255E  318D   	fcall	_ledBlink
  8313  0D70                     l5296:
  8314                           
  8315                           ;power.c: 253: PollingMeasurement = 1;
  8316  0D70  0141               	movlb	1	; select bank1
  8317  0D71  01BD               	clrf	_PollingMeasurement^(0+128)
  8318  0D72  0ABD               	incf	_PollingMeasurement^(0+128),f
  8319  0D73                     l606:
  8320  0D73  0008               	return
  8321  0D74                     __end_of_Power_Init:
  8322                           
  8323                           	psect	text27
  8324  055E                     __ptext27:	
  8325 ;; *************** function _ledBlink *****************
  8326 ;; Defined at:
  8327 ;;		line 173 in file "sensor/power.c"
  8328 ;; Parameters:    Size  Location     Type
  8329 ;;		None
  8330 ;; Auto vars:     Size  Location     Type
  8331 ;;		None
  8332 ;; Return value:  Size  Location     Type
  8333 ;;                  1    wreg      void 
  8334 ;; Registers used:
  8335 ;;		wreg
  8336 ;; Tracked objects:
  8337 ;;		On entry : 0/0
  8338 ;;		On exit  : 0/0
  8339 ;;		Unchanged: 0/0
  8340 ;; Data sizes:     COMMON   BANK0   BANK1   BANK2   BANK3   BANK4   BANK5   BANK6   BANK7   BANK8   BANK9  BANK10  BANK1
      +1  BANK12  BANK13  BANK14  BANK15  BANK16  BANK17  BANK18  BANK19  BANK20  BANK21  BANK22  BANK23  BANK24  BANK25
  8341 ;;      Params:         0       0       0       0       0       0       0       0       0       0       0       0       
      +0       0       0       0       0       0       0       0       0       0       0       0       0       0       0
  8342 ;;      Locals:         0       0       0       0       0       0       0       0       0       0       0       0       
      +0       0       0       0       0       0       0       0       0       0       0       0       0       0       0
  8343 ;;      Temps:          2       0       0       0       0       0       0       0       0       0       0       0       
      +0       0       0       0       0       0       0       0       0       0       0       0       0       0       0
  8344 ;;      Totals:         2       0       0       0       0       0       0       0       0       0       0       0       
      +0       0       0       0       0       0       0       0       0       0       0       0       0       0       0
  8345 ;;Total ram usage:        2 bytes
  8346 ;; Hardware stack levels used:    1
  8347 ;; Hardware stack levels required when called:    3
  8348 ;; This function calls:
  8349 ;;		Nothing
  8350 ;; This function is called by:
  8351 ;;		_Power_Init
  8352 ;;		_Power_Loop
  8353 ;; This function uses a non-reentrant model
  8354 ;;
  8355                           
  8356                           
  8357                           ;psect for function _ledBlink
  8358  055E                     _ledBlink:
  8359  055E                     l538:	
  8360                           ;incstack = 0
  8361                           ; Regs used in _ledBlink: [wreg]
  8362                           ;power.c: 175: do { LATBbits.LATB6 = 1; } while(0);
  8363                           
  8364  055E  0140               	movlb	0	; select bank0
  8365  055F  1719               	bsf	25,6	;volatile
  8366  0560                     l5164:
  8367                           
  8368                           ;power.c: 176: _delay((unsigned long)((100)*(32000000/4000.0)));
  8369  0560  3005               	movlw	5
  8370  0561  00F5               	movwf	??_ledBlink+1
  8371  0562  300F               	movlw	15
  8372  0563  00F4               	movwf	??_ledBlink
  8373  0564  30F1               	movlw	241
  8374  0565                     u5517:
  8375  0565  0B89               	decfsz	9,f
  8376  0566  2D65               	goto	u5517
  8377  0567  0BF4               	decfsz	??_ledBlink,f
  8378  0568  2D65               	goto	u5517
  8379  0569  0BF5               	decfsz	??_ledBlink+1,f
  8380  056A  2D65               	goto	u5517
  8381  056B  0000               	nop
  8382  056C                     l5166:
  8383  056C  0140               	movlb	0	; select bank0
  8384  056D  1319               	bcf	25,6	;volatile
  8385  056E                     l541:
  8386                           
  8387                           ;power.c: 178: _delay((unsigned long)((100)*(32000000/4000.0)));
  8388  056E  3005               	movlw	5
  8389  056F  00F5               	movwf	??_ledBlink+1
  8390  0570  300F               	movlw	15
  8391  0571  00F4               	movwf	??_ledBlink
  8392  0572  30F1               	movlw	241
  8393  0573                     u5527:
  8394  0573  0B89               	decfsz	9,f
  8395  0574  2D73               	goto	u5527
  8396  0575  0BF4               	decfsz	??_ledBlink,f
  8397  0576  2D73               	goto	u5527
  8398  0577  0BF5               	decfsz	??_ledBlink+1,f
  8399  0578  2D73               	goto	u5527
  8400  0579  0000               	nop
  8401  057A                     l5168:
  8402  057A  0140               	movlb	0	; select bank0
  8403  057B  1719               	bsf	25,6	;volatile
  8404  057C                     l543:
  8405                           
  8406                           ;power.c: 180: _delay((unsigned long)((100)*(32000000/4000.0)));
  8407  057C  3005               	movlw	5
  8408  057D  00F5               	movwf	??_ledBlink+1
  8409  057E  300F               	movlw	15
  8410  057F  00F4               	movwf	??_ledBlink
  8411  0580  30F1               	movlw	241
  8412  0581                     u5537:
  8413  0581  0B89               	decfsz	9,f
  8414  0582  2D81               	goto	u5537
  8415  0583  0BF4               	decfsz	??_ledBlink,f
  8416  0584  2D81               	goto	u5537
  8417  0585  0BF5               	decfsz	??_ledBlink+1,f
  8418  0586  2D81               	goto	u5537
  8419  0587  0000               	nop
  8420  0588                     l5170:
  8421  0588  0140               	movlb	0	; select bank0
  8422  0589  1319               	bcf	25,6	;volatile
  8423  058A                     l545:
  8424                           
  8425                           ;power.c: 182: _delay((unsigned long)((100)*(32000000/4000.0)));
  8426  058A  3005               	movlw	5
  8427  058B  00F5               	movwf	??_ledBlink+1
  8428  058C  300F               	movlw	15
  8429  058D  00F4               	movwf	??_ledBlink
  8430  058E  30F1               	movlw	241
  8431  058F                     u5547:
  8432  058F  0B89               	decfsz	9,f
  8433  0590  2D8F               	goto	u5547
  8434  0591  0BF4               	decfsz	??_ledBlink,f
  8435  0592  2D8F               	goto	u5547
  8436  0593  0BF5               	decfsz	??_ledBlink+1,f
  8437  0594  2D8F               	goto	u5547
  8438  0595  0000               	nop
  8439  0596                     l5172:
  8440  0596  0140               	movlb	0	; select bank0
  8441  0597  1719               	bsf	25,6	;volatile
  8442  0598                     l547:
  8443                           
  8444                           ;power.c: 184: _delay((unsigned long)((100)*(32000000/4000.0)));
  8445  0598  3005               	movlw	5
  8446  0599  00F5               	movwf	??_ledBlink+1
  8447  059A  300F               	movlw	15
  8448  059B  00F4               	movwf	??_ledBlink
  8449  059C  30F1               	movlw	241
  8450  059D                     u5557:
  8451  059D  0B89               	decfsz	9,f
  8452  059E  2D9D               	goto	u5557
  8453  059F  0BF4               	decfsz	??_ledBlink,f
  8454  05A0  2D9D               	goto	u5557
  8455  05A1  0BF5               	decfsz	??_ledBlink+1,f
  8456  05A2  2D9D               	goto	u5557
  8457  05A3  0000               	nop
  8458  05A4                     l5174:
  8459  05A4  0140               	movlb	0	; select bank0
  8460  05A5  1319               	bcf	25,6	;volatile
  8461  05A6                     l549:
  8462                           
  8463                           ;power.c: 186: _delay((unsigned long)((500)*(32000000/4000.0)));
  8464  05A6  3015               	movlw	21
  8465  05A7  00F5               	movwf	??_ledBlink+1
  8466  05A8  304B               	movlw	75
  8467  05A9  00F4               	movwf	??_ledBlink
  8468  05AA  30BE               	movlw	190
  8469  05AB                     u5567:
  8470  05AB  0B89               	decfsz	9,f
  8471  05AC  2DAB               	goto	u5567
  8472  05AD  0BF4               	decfsz	??_ledBlink,f
  8473  05AE  2DAB               	goto	u5567
  8474  05AF  0BF5               	decfsz	??_ledBlink+1,f
  8475  05B0  2DAB               	goto	u5567
  8476  05B1  3200               	nop2
  8477  05B2                     l5176:
  8478  05B2  0140               	movlb	0	; select bank0
  8479  05B3  149A               	bsf	26,1	;volatile
  8480  05B4                     l551:
  8481                           
  8482                           ;power.c: 189: _delay((unsigned long)((100)*(32000000/4000.0)));
  8483  05B4  3005               	movlw	5
  8484  05B5  00F5               	movwf	??_ledBlink+1
  8485  05B6  300F               	movlw	15
  8486  05B7  00F4               	movwf	??_ledBlink
  8487  05B8  30F1               	movlw	241
  8488  05B9                     u5577:
  8489  05B9  0B89               	decfsz	9,f
  8490  05BA  2DB9               	goto	u5577
  8491  05BB  0BF4               	decfsz	??_ledBlink,f
  8492  05BC  2DB9               	goto	u5577
  8493  05BD  0BF5               	decfsz	??_ledBlink+1,f
  8494  05BE  2DB9               	goto	u5577
  8495  05BF  0000               	nop
  8496  05C0                     l5178:
  8497  05C0  0140               	movlb	0	; select bank0
  8498  05C1  109A               	bcf	26,1	;volatile
  8499  05C2                     l553:
  8500                           
  8501                           ;power.c: 191: _delay((unsigned long)((100)*(32000000/4000.0)));
  8502  05C2  3005               	movlw	5
  8503  05C3  00F5               	movwf	??_ledBlink+1
  8504  05C4  300F               	movlw	15
  8505  05C5  00F4               	movwf	??_ledBlink
  8506  05C6  30F1               	movlw	241
  8507  05C7                     u5587:
  8508  05C7  0B89               	decfsz	9,f
  8509  05C8  2DC7               	goto	u5587
  8510  05C9  0BF4               	decfsz	??_ledBlink,f
  8511  05CA  2DC7               	goto	u5587
  8512  05CB  0BF5               	decfsz	??_ledBlink+1,f
  8513  05CC  2DC7               	goto	u5587
  8514  05CD  0000               	nop
  8515  05CE                     l5180:
  8516  05CE  0140               	movlb	0	; select bank0
  8517  05CF  149A               	bsf	26,1	;volatile
  8518  05D0                     l555:
  8519                           
  8520                           ;power.c: 193: _delay((unsigned long)((100)*(32000000/4000.0)));
  8521  05D0  3005               	movlw	5
  8522  05D1  00F5               	movwf	??_ledBlink+1
  8523  05D2  300F               	movlw	15
  8524  05D3  00F4               	movwf	??_ledBlink
  8525  05D4  30F1               	movlw	241
  8526  05D5                     u5597:
  8527  05D5  0B89               	decfsz	9,f
  8528  05D6  2DD5               	goto	u5597
  8529  05D7  0BF4               	decfsz	??_ledBlink,f
  8530  05D8  2DD5               	goto	u5597
  8531  05D9  0BF5               	decfsz	??_ledBlink+1,f
  8532  05DA  2DD5               	goto	u5597
  8533  05DB  0000               	nop
  8534  05DC                     l5182:
  8535  05DC  0140               	movlb	0	; select bank0
  8536  05DD  109A               	bcf	26,1	;volatile
  8537  05DE                     l557:
  8538                           
  8539                           ;power.c: 195: _delay((unsigned long)((100)*(32000000/4000.0)));
  8540  05DE  3005               	movlw	5
  8541  05DF  00F5               	movwf	??_ledBlink+1
  8542  05E0  300F               	movlw	15
  8543  05E1  00F4               	movwf	??_ledBlink
  8544  05E2  30F1               	movlw	241
  8545  05E3                     u5607:
  8546  05E3  0B89               	decfsz	9,f
  8547  05E4  2DE3               	goto	u5607
  8548  05E5  0BF4               	decfsz	??_ledBlink,f
  8549  05E6  2DE3               	goto	u5607
  8550  05E7  0BF5               	decfsz	??_ledBlink+1,f
  8551  05E8  2DE3               	goto	u5607
  8552  05E9  0000               	nop
  8553  05EA                     l5184:
  8554  05EA  0140               	movlb	0	; select bank0
  8555  05EB  149A               	bsf	26,1	;volatile
  8556  05EC                     l559:
  8557                           
  8558                           ;power.c: 197: _delay((unsigned long)((100)*(32000000/4000.0)));
  8559  05EC  3005               	movlw	5
  8560  05ED  00F5               	movwf	??_ledBlink+1
  8561  05EE  300F               	movlw	15
  8562  05EF  00F4               	movwf	??_ledBlink
  8563  05F0  30F1               	movlw	241
  8564  05F1                     u5617:
  8565  05F1  0B89               	decfsz	9,f
  8566  05F2  2DF1               	goto	u5617
  8567  05F3  0BF4               	decfsz	??_ledBlink,f
  8568  05F4  2DF1               	goto	u5617
  8569  05F5  0BF5               	decfsz	??_ledBlink+1,f
  8570  05F6  2DF1               	goto	u5617
  8571  05F7  0000               	nop
  8572  05F8                     l5186:
  8573  05F8  0140               	movlb	0	; select bank0
  8574  05F9  109A               	bcf	26,1	;volatile
  8575  05FA                     l562:
  8576  05FA  0008               	return
  8577  05FB                     __end_of_ledBlink:
  8578                           
  8579                           	psect	text28
  8580  07DE                     __ptext28:	
  8581 ;; *************** function _ADC_Init *****************
  8582 ;; Defined at:
  8583 ;;		line 51 in file "sensor/power.c"
  8584 ;; Parameters:    Size  Location     Type
  8585 ;;		None
  8586 ;; Auto vars:     Size  Location     Type
  8587 ;;		None
  8588 ;; Return value:  Size  Location     Type
  8589 ;;                  1    wreg      void 
  8590 ;; Registers used:
  8591 ;;		wreg, status,2
  8592 ;; Tracked objects:
  8593 ;;		On entry : 0/0
  8594 ;;		On exit  : 0/0
  8595 ;;		Unchanged: 0/0
  8596 ;; Data sizes:     COMMON   BANK0   BANK1   BANK2   BANK3   BANK4   BANK5   BANK6   BANK7   BANK8   BANK9  BANK10  BANK1
      +1  BANK12  BANK13  BANK14  BANK15  BANK16  BANK17  BANK18  BANK19  BANK20  BANK21  BANK22  BANK23  BANK24  BANK25
  8597 ;;      Params:         0       0       0       0       0       0       0       0       0       0       0       0       
      +0       0       0       0       0       0       0       0       0       0       0       0       0       0       0
  8598 ;;      Locals:         0       0       0       0       0       0       0       0       0       0       0       0       
      +0       0       0       0       0       0       0       0       0       0       0       0       0       0       0
  8599 ;;      Temps:          0       0       0       0       0       0       0       0       0       0       0       0       
      +0       0       0       0       0       0       0       0       0       0       0       0       0       0       0
  8600 ;;      Totals:         0       0       0       0       0       0       0       0       0       0       0       0       
      +0       0       0       0       0       0       0       0       0       0       0       0       0       0       0
  8601 ;;Total ram usage:        0 bytes
  8602 ;; Hardware stack levels used:    1
  8603 ;; Hardware stack levels required when called:    3
  8604 ;; This function calls:
  8605 ;;		Nothing
  8606 ;; This function is called by:
  8607 ;;		_Power_Init
  8608 ;; This function uses a non-reentrant model
  8609 ;;
  8610                           
  8611                           
  8612                           ;psect for function _ADC_Init
  8613  07DE                     _ADC_Init:
  8614  07DE                     l5052:	
  8615                           ;incstack = 0
  8616                           ; Regs used in _ADC_Init: [wreg+status,2]
  8617                           
  8618                           
  8619                           ;power.c: 53: FVRCON = 0x82;
  8620  07DE  3082               	movlw	130
  8621  07DF  0152               	movlb	18	; select bank18
  8622  07E0  008C               	movwf	12	;volatile
  8623  07E1                     l5054:
  8624                           
  8625                           ;power.c: 55: PMD3bits.ADCMD = 0;
  8626  07E1  014F               	movlb	15	; select bank15
  8627  07E2  1299               	bcf	25,5	;volatile
  8628  07E3                     l5056:
  8629                           
  8630                           ;power.c: 58: ADLTHL = 0x00;
  8631  07E3  0141               	movlb	1	; select bank1
  8632  07E4  018C               	clrf	12	;volatile
  8633  07E5                     l5058:
  8634                           
  8635                           ;power.c: 60: ADLTHH = 0x00;
  8636  07E5  018D               	clrf	13	;volatile
  8637  07E6                     l5060:
  8638                           
  8639                           ;power.c: 62: ADUTHL = 0x00;
  8640  07E6  018E               	clrf	14	;volatile
  8641  07E7                     l5062:
  8642                           
  8643                           ;power.c: 64: ADUTHH = 0x00;
  8644  07E7  018F               	clrf	15	;volatile
  8645  07E8                     l5064:
  8646                           
  8647                           ;power.c: 66: ADSTPTL = 0x00;
  8648  07E8  0192               	clrf	18	;volatile
  8649  07E9                     l5066:
  8650                           
  8651                           ;power.c: 68: ADSTPTH = 0x00;
  8652  07E9  0193               	clrf	19	;volatile
  8653  07EA                     l5068:
  8654                           
  8655                           ;power.c: 70: ADACCU = 0x00;
  8656  07EA  0198               	clrf	24	;volatile
  8657  07EB                     l5070:
  8658                           
  8659                           ;power.c: 72: ADRPT = 0x00;
  8660  07EB  019A               	clrf	26	;volatile
  8661  07EC                     l5072:
  8662                           
  8663                           ;power.c: 74: ADPCH = 0x00;
  8664  07EC  019F               	clrf	31	;volatile
  8665  07ED                     l5074:
  8666                           
  8667                           ;power.c: 76: ADACQL = 0x00;
  8668  07ED  0142               	movlb	2	; select bank2
  8669  07EE  018C               	clrf	12	;volatile
  8670  07EF                     l5076:
  8671                           
  8672                           ;power.c: 78: ADACQH = 0x00;
  8673  07EF  018D               	clrf	13	;volatile
  8674  07F0                     l5078:
  8675                           
  8676                           ;power.c: 80: ADCAP = 0x00;
  8677  07F0  018E               	clrf	14	;volatile
  8678  07F1                     l5080:
  8679                           
  8680                           ;power.c: 82: ADPREL = 0x00;
  8681  07F1  018F               	clrf	15	;volatile
  8682  07F2                     l5082:
  8683                           
  8684                           ;power.c: 84: ADPREH = 0x00;
  8685  07F2  0190               	clrf	16	;volatile
  8686  07F3                     l5084:
  8687                           
  8688                           ;power.c: 86: ADCON1 = 0x00;
  8689  07F3  0192               	clrf	18	;volatile
  8690  07F4                     l5086:
  8691                           
  8692                           ;power.c: 88: ADCON2 = 0x00;
  8693  07F4  0193               	clrf	19	;volatile
  8694  07F5                     l5088:
  8695                           
  8696                           ;power.c: 90: ADCON3 = 0x00;
  8697  07F5  0194               	clrf	20	;volatile
  8698  07F6                     l5090:
  8699                           
  8700                           ;power.c: 92: ADSTAT = 0x00;
  8701  07F6  0195               	clrf	21	;volatile
  8702                           
  8703                           ;power.c: 94: ADREF = 0x03;
  8704  07F7  3003               	movlw	3
  8705  07F8  0096               	movwf	22	;volatile
  8706  07F9                     l5092:
  8707                           
  8708                           ;power.c: 96: ADACT = 0x00;
  8709  07F9  0197               	clrf	23	;volatile
  8710  07FA                     l5094:
  8711                           
  8712                           ;power.c: 98: ADCLK = 0x00;
  8713  07FA  0198               	clrf	24	;volatile
  8714                           
  8715                           ;power.c: 100: ADCON0 = 0x84;
  8716  07FB  3084               	movlw	132
  8717  07FC  0091               	movwf	17	;volatile
  8718  07FD                     l5096:
  8719                           
  8720                           ;power.c: 102: FVRCON = 0x00;
  8721  07FD  0152               	movlb	18	; select bank18
  8722  07FE  018C               	clrf	12	;volatile
  8723  07FF                     l512:
  8724  07FF  0008               	return
  8725  0800                     __end_of_ADC_Init:
  8726                           
  8727                           	psect	text29
  8728  0EFF                     __ptext29:	
  8729 ;; *************** function _Power_GetData *****************
  8730 ;; Defined at:
  8731 ;;		line 308 in file "sensor/power.c"
  8732 ;; Parameters:    Size  Location     Type
  8733 ;;  data            1    4[COMMON] PTR unsigned char 
  8734 ;;		 -> mData(6), 
  8735 ;;  length          1    5[COMMON] PTR unsigned char 
  8736 ;;		 -> mDataLength(1), 
  8737 ;; Auto vars:     Size  Location     Type
  8738 ;;		None
  8739 ;; Return value:  Size  Location     Type
  8740 ;;                  1    wreg      void 
  8741 ;; Registers used:
  8742 ;;		wreg, fsr1l, fsr1h, status,2, status,0
  8743 ;; Tracked objects:
  8744 ;;		On entry : 0/0
  8745 ;;		On exit  : 0/0
  8746 ;;		Unchanged: 0/0
  8747 ;; Data sizes:     COMMON   BANK0   BANK1   BANK2   BANK3   BANK4   BANK5   BANK6   BANK7   BANK8   BANK9  BANK10  BANK1
      +1  BANK12  BANK13  BANK14  BANK15  BANK16  BANK17  BANK18  BANK19  BANK20  BANK21  BANK22  BANK23  BANK24  BANK25
  8748 ;;      Params:         2       0       0       0       0       0       0       0       0       0       0       0       
      +0       0       0       0       0       0       0       0       0       0       0       0       0       0       0
  8749 ;;      Locals:         0       0       0       0       0       0       0       0       0       0       0       0       
      +0       0       0       0       0       0       0       0       0       0       0       0       0       0       0
  8750 ;;      Temps:          0       1       0       0       0       0       0       0       0       0       0       0       
      +0       0       0       0       0       0       0       0       0       0       0       0       0       0       0
  8751 ;;      Totals:         2       1       0       0       0       0       0       0       0       0       0       0       
      +0       0       0       0       0       0       0       0       0       0       0       0       0       0       0
  8752 ;;Total ram usage:        3 bytes
  8753 ;; Hardware stack levels used:    1
  8754 ;; Hardware stack levels required when called:    3
  8755 ;; This function calls:
  8756 ;;		Nothing
  8757 ;; This function is called by:
  8758 ;;		_main
  8759 ;; This function uses a non-reentrant model
  8760 ;;
  8761                           
  8762                           
  8763                           ;psect for function _Power_GetData
  8764  0EFF                     _Power_GetData:
  8765  0EFF                     l5346:	
  8766                           ;incstack = 0
  8767                           ; Regs used in _Power_GetData: [wreg+fsr1l+fsr1h+status,2+status,0]
  8768                           
  8769                           
  8770                           ;power.c: 309: *length = 6;
  8771  0EFF  3006               	movlw	6
  8772  0F00  0140               	movlb	0	; select bank0
  8773  0F01  00A0               	movwf	??_Power_GetData
  8774  0F02  0875               	movf	Power_GetData@length,w
  8775  0F03  0086               	movwf	6
  8776  0F04  0187               	clrf	7
  8777  0F05  0820               	movf	??_Power_GetData,w
  8778  0F06  0081               	movwf	1
  8779                           
  8780                           ;power.c: 310: data[0] = measurementData[0];
  8781  0F07  0141               	movlb	1	; select bank1
  8782  0F08  0820               	movf	_measurementData^(0+128),w	;volatile
  8783  0F09  0140               	movlb	0	; select bank0
  8784  0F0A  00A0               	movwf	??_Power_GetData
  8785  0F0B  0874               	movf	Power_GetData@data,w
  8786  0F0C  0086               	movwf	6
  8787  0F0D  3001               	movlw	1	; select bank2/3
  8788  0F0E  0087               	movwf	7
  8789  0F0F  0820               	movf	??_Power_GetData,w
  8790  0F10  0081               	movwf	1
  8791                           
  8792                           ;power.c: 311: data[1] = measurementData[1];
  8793  0F11  0141               	movlb	1	; select bank1
  8794  0F12  0821               	movf	(_measurementData^(0+128)+1),w	;volatile
  8795  0F13  0140               	movlb	0	; select bank0
  8796  0F14  00A0               	movwf	??_Power_GetData
  8797  0F15  0A74               	incf	Power_GetData@data,w
  8798  0F16  0086               	movwf	6
  8799  0F17  3001               	movlw	1	; select bank2/3
  8800  0F18  0087               	movwf	7
  8801  0F19  0820               	movf	??_Power_GetData,w
  8802  0F1A  0081               	movwf	1
  8803  0F1B                     l5348:
  8804                           
  8805                           ;power.c: 313: data[2] = measurementData[2];
  8806  0F1B  0141               	movlb	1	; select bank1
  8807  0F1C  0822               	movf	(_measurementData^(0+128)+2),w	;volatile
  8808  0F1D  0140               	movlb	0	; select bank0
  8809  0F1E  00A0               	movwf	??_Power_GetData
  8810  0F1F  0874               	movf	Power_GetData@data,w
  8811  0F20  3E02               	addlw	2
  8812  0F21  0086               	movwf	6
  8813  0F22  3001               	movlw	1	; select bank2/3
  8814  0F23  0087               	movwf	7
  8815  0F24  0820               	movf	??_Power_GetData,w
  8816  0F25  0081               	movwf	1
  8817  0F26                     l5350:
  8818                           
  8819                           ;power.c: 314: data[3] = measurementData[3];
  8820  0F26  0141               	movlb	1	; select bank1
  8821  0F27  0823               	movf	(_measurementData^(0+128)+3),w	;volatile
  8822  0F28  0140               	movlb	0	; select bank0
  8823  0F29  00A0               	movwf	??_Power_GetData
  8824  0F2A  0874               	movf	Power_GetData@data,w
  8825  0F2B  3E03               	addlw	3
  8826  0F2C  0086               	movwf	6
  8827  0F2D  3001               	movlw	1	; select bank2/3
  8828  0F2E  0087               	movwf	7
  8829  0F2F  0820               	movf	??_Power_GetData,w
  8830  0F30  0081               	movwf	1
  8831  0F31                     l5352:
  8832                           
  8833                           ;power.c: 316: data[4] = measurementData[4];
  8834  0F31  0141               	movlb	1	; select bank1
  8835  0F32  0824               	movf	(_measurementData^(0+128)+4),w	;volatile
  8836  0F33  0140               	movlb	0	; select bank0
  8837  0F34  00A0               	movwf	??_Power_GetData
  8838  0F35  0874               	movf	Power_GetData@data,w
  8839  0F36  3E04               	addlw	4
  8840  0F37  0086               	movwf	6
  8841  0F38  3001               	movlw	1	; select bank2/3
  8842  0F39  0087               	movwf	7
  8843  0F3A  0820               	movf	??_Power_GetData,w
  8844  0F3B  0081               	movwf	1
  8845  0F3C                     l5354:
  8846                           
  8847                           ;power.c: 317: data[5] = measurementData[5];
  8848  0F3C  0141               	movlb	1	; select bank1
  8849  0F3D  0825               	movf	(_measurementData^(0+128)+5),w	;volatile
  8850  0F3E  0140               	movlb	0	; select bank0
  8851  0F3F  00A0               	movwf	??_Power_GetData
  8852  0F40  0874               	movf	Power_GetData@data,w
  8853  0F41  3E05               	addlw	5
  8854  0F42  0086               	movwf	6
  8855  0F43  3001               	movlw	1	; select bank2/3
  8856  0F44  0087               	movwf	7
  8857  0F45  0820               	movf	??_Power_GetData,w
  8858  0F46  0081               	movwf	1
  8859  0F47                     l639:
  8860  0F47  0008               	return
  8861  0F48                     __end_of_Power_GetData:
  8862                           
  8863                           	psect	text30
  8864  0C67                     __ptext30:	
  8865 ;; *************** function _I2C1_TxBufferEmpty *****************
  8866 ;; Defined at:
  8867 ;;		line 179 in file "system/i2c1.c"
  8868 ;; Parameters:    Size  Location     Type
  8869 ;;		None
  8870 ;; Auto vars:     Size  Location     Type
  8871 ;;		None
  8872 ;; Return value:  Size  Location     Type
  8873 ;;                  1    wreg      unsigned char 
  8874 ;; Registers used:
  8875 ;;		wreg, status,2, status,0
  8876 ;; Tracked objects:
  8877 ;;		On entry : 0/0
  8878 ;;		On exit  : 0/0
  8879 ;;		Unchanged: 0/0
  8880 ;; Data sizes:     COMMON   BANK0   BANK1   BANK2   BANK3   BANK4   BANK5   BANK6   BANK7   BANK8   BANK9  BANK10  BANK1
      +1  BANK12  BANK13  BANK14  BANK15  BANK16  BANK17  BANK18  BANK19  BANK20  BANK21  BANK22  BANK23  BANK24  BANK25
  8881 ;;      Params:         0       0       0       0       0       0       0       0       0       0       0       0       
      +0       0       0       0       0       0       0       0       0       0       0       0       0       0       0
  8882 ;;      Locals:         0       0       0       0       0       0       0       0       0       0       0       0       
      +0       0       0       0       0       0       0       0       0       0       0       0       0       0       0
  8883 ;;      Temps:          0       0       0       0       0       0       0       0       0       0       0       0       
      +0       0       0       0       0       0       0       0       0       0       0       0       0       0       0
  8884 ;;      Totals:         0       0       0       0       0       0       0       0       0       0       0       0       
      +0       0       0       0       0       0       0       0       0       0       0       0       0       0       0
  8885 ;;Total ram usage:        0 bytes
  8886 ;; Hardware stack levels used:    1
  8887 ;; Hardware stack levels required when called:    3
  8888 ;; This function calls:
  8889 ;;		Nothing
  8890 ;; This function is called by:
  8891 ;;		_main
  8892 ;; This function uses a non-reentrant model
  8893 ;;
  8894                           
  8895                           
  8896                           ;psect for function _I2C1_TxBufferEmpty
  8897  0C67                     _I2C1_TxBufferEmpty:
  8898  0C67                     l5194:	
  8899                           ;incstack = 0
  8900                           ; Regs used in _I2C1_TxBufferEmpty: [wreg+status,2+status,0]
  8901                           
  8902                           
  8903                           ;i2c1.c: 180: return (txCnt != 0);
  8904  0C67  0876               	movf	_txCnt,w
  8905  0C68  1D03               	btfss	3,2
  8906  0C69  2C6B               	goto	u5151
  8907  0C6A  2C6D               	goto	u5150
  8908  0C6B                     u5151:
  8909  0C6B  3001               	movlw	1
  8910  0C6C  2C6E               	goto	u5160
  8911  0C6D                     u5150:
  8912  0C6D  3000               	movlw	0
  8913  0C6E                     u5160:
  8914  0C6E                     l81:
  8915  0C6E  0008               	return
  8916  0C6F                     __end_of_I2C1_TxBufferEmpty:
  8917                           
  8918                           	psect	text31
  8919  0D9C                     __ptext31:	
  8920 ;; *************** function _I2C1_SetTransmitData *****************
  8921 ;; Defined at:
  8922 ;;		line 193 in file "system/i2c1.c"
  8923 ;; Parameters:    Size  Location     Type
  8924 ;;  data            1    wreg     PTR unsigned char 
  8925 ;;		 -> main@mnr(1), main@type(1), main@ack(1), mData(6), 
  8926 ;;  len             1    0[BANK0 ] unsigned char 
  8927 ;; Auto vars:     Size  Location     Type
  8928 ;;  data            1    3[BANK0 ] PTR unsigned char 
  8929 ;;		 -> main@mnr(1), main@type(1), main@ack(1), mData(6), 
  8930 ;; Return value:  Size  Location     Type
  8931 ;;                  1    wreg      void 
  8932 ;; Registers used:
  8933 ;;		wreg, fsr1l, fsr1h, status,2, status,0
  8934 ;; Tracked objects:
  8935 ;;		On entry : 0/0
  8936 ;;		On exit  : 0/0
  8937 ;;		Unchanged: 0/0
  8938 ;; Data sizes:     COMMON   BANK0   BANK1   BANK2   BANK3   BANK4   BANK5   BANK6   BANK7   BANK8   BANK9  BANK10  BANK1
      +1  BANK12  BANK13  BANK14  BANK15  BANK16  BANK17  BANK18  BANK19  BANK20  BANK21  BANK22  BANK23  BANK24  BANK25
  8939 ;;      Params:         0       1       0       0       0       0       0       0       0       0       0       0       
      +0       0       0       0       0       0       0       0       0       0       0       0       0       0       0
  8940 ;;      Locals:         0       1       0       0       0       0       0       0       0       0       0       0       
      +0       0       0       0       0       0       0       0       0       0       0       0       0       0       0
  8941 ;;      Temps:          0       2       0       0       0       0       0       0       0       0       0       0       
      +0       0       0       0       0       0       0       0       0       0       0       0       0       0       0
  8942 ;;      Totals:         0       4       0       0       0       0       0       0       0       0       0       0       
      +0       0       0       0       0       0       0       0       0       0       0       0       0       0       0
  8943 ;;Total ram usage:        4 bytes
  8944 ;; Hardware stack levels used:    1
  8945 ;; Hardware stack levels required when called:    3
  8946 ;; This function calls:
  8947 ;;		Nothing
  8948 ;; This function is called by:
  8949 ;;		_main
  8950 ;; This function uses a non-reentrant model
  8951 ;;
  8952                           
  8953                           
  8954                           ;psect for function _I2C1_SetTransmitData
  8955  0D9C                     _I2C1_SetTransmitData:
  8956                           
  8957                           ;incstack = 0
  8958                           ; Regs used in _I2C1_SetTransmitData: [wreg+fsr1l+fsr1h+status,2+status,0]
  8959                           ;I2C1_SetTransmitData@data stored from wreg
  8960  0D9C  0140               	movlb	0	; select bank0
  8961  0D9D  00A3               	movwf	I2C1_SetTransmitData@data
  8962  0D9E                     l5424:
  8963                           
  8964                           ;i2c1.c: 195: while((txCnt < len) && (txCnt < 32)){
  8965  0D9E  2DB3               	goto	l5430
  8966  0D9F                     l5426:
  8967                           
  8968                           ;i2c1.c: 196: i2c1_tx_buffer[txCnt] = data[txCnt];
  8969  0D9F  0876               	movf	_txCnt,w
  8970  0DA0  0723               	addwf	I2C1_SetTransmitData@data,w
  8971  0DA1  00A1               	movwf	??_I2C1_SetTransmitData
  8972  0DA2  0821               	movf	??_I2C1_SetTransmitData,w
  8973  0DA3  0086               	movwf	6
  8974  0DA4  3001               	movlw	1	; select bank2/3
  8975  0DA5  0087               	movwf	7
  8976  0DA6  0801               	movf	1,w
  8977  0DA7  00A2               	movwf	??_I2C1_SetTransmitData+1
  8978  0DA8  0876               	movf	_txCnt,w
  8979  0DA9  3E20               	addlw	(low (_i2c1_tx_buffer| (0+256)))& (0+255)
  8980  0DAA  0086               	movwf	6
  8981  0DAB  3001               	movlw	1	; select bank2/3
  8982  0DAC  0087               	movwf	7
  8983  0DAD  0822               	movf	??_I2C1_SetTransmitData+1,w
  8984  0DAE  0081               	movwf	1
  8985  0DAF                     l5428:
  8986                           
  8987                           ;i2c1.c: 197: txCnt++;
  8988  0DAF  3001               	movlw	1
  8989  0DB0  00A1               	movwf	??_I2C1_SetTransmitData
  8990  0DB1  0821               	movf	??_I2C1_SetTransmitData,w
  8991  0DB2  07F6               	addwf	_txCnt,f
  8992  0DB3                     l5430:
  8993  0DB3  0820               	movf	I2C1_SetTransmitData@len,w
  8994  0DB4  0276               	subwf	_txCnt,w
  8995  0DB5  1803               	skipnc
  8996  0DB6  2DB8               	goto	u5381
  8997  0DB7  2DB9               	goto	u5380
  8998  0DB8                     u5381:
  8999  0DB8  2DBF               	goto	l5434
  9000  0DB9                     u5380:
  9001  0DB9                     l5432:
  9002  0DB9  3020               	movlw	32
  9003  0DBA  0276               	subwf	_txCnt,w
  9004  0DBB  1C03               	skipc
  9005  0DBC  2DBE               	goto	u5391
  9006  0DBD  2DBF               	goto	u5390
  9007  0DBE                     u5391:
  9008  0DBE  2D9F               	goto	l5426
  9009  0DBF                     u5390:
  9010  0DBF                     l5434:
  9011                           
  9012                           ;i2c1.c: 198: };i2c1.c: 199: txLen = txCnt;
  9013  0DBF  0876               	movf	_txCnt,w
  9014  0DC0  00A1               	movwf	??_I2C1_SetTransmitData
  9015  0DC1  0821               	movf	??_I2C1_SetTransmitData,w
  9016  0DC2  0141               	movlb	1	; select bank1
  9017  0DC3  00BF               	movwf	_txLen^(0+128)
  9018  0DC4                     l5436:
  9019                           
  9020                           ;i2c1.c: 200: txCnt = 0;
  9021  0DC4  01F6               	clrf	_txCnt
  9022  0DC5                     l95:
  9023  0DC5  0008               	return
  9024  0DC6                     __end_of_I2C1_SetTransmitData:
  9025                           
  9026                           	psect	text32
  9027  0CEC                     __ptext32:	
  9028 ;; *************** function _I2C1_GetCommandData *****************
  9029 ;; Defined at:
  9030 ;;		line 188 in file "system/i2c1.c"
  9031 ;; Parameters:    Size  Location     Type
  9032 ;;  data            1    wreg     PTR unsigned char 
  9033 ;;		 -> main@data(20), 
  9034 ;;  len             1    4[COMMON] PTR unsigned char 
  9035 ;;		 -> main@len(1), 
  9036 ;; Auto vars:     Size  Location     Type
  9037 ;;  data            1    0[BANK0 ] PTR unsigned char 
  9038 ;;		 -> main@data(20), 
  9039 ;; Return value:  Size  Location     Type
  9040 ;;                  1    wreg      void 
  9041 ;; Registers used:
  9042 ;;		wreg, fsr0l, fsr0h, fsr1l, fsr1h
  9043 ;; Tracked objects:
  9044 ;;		On entry : 0/0
  9045 ;;		On exit  : 0/0
  9046 ;;		Unchanged: 0/0
  9047 ;; Data sizes:     COMMON   BANK0   BANK1   BANK2   BANK3   BANK4   BANK5   BANK6   BANK7   BANK8   BANK9  BANK10  BANK1
      +1  BANK12  BANK13  BANK14  BANK15  BANK16  BANK17  BANK18  BANK19  BANK20  BANK21  BANK22  BANK23  BANK24  BANK25
  9048 ;;      Params:         1       0       0       0       0       0       0       0       0       0       0       0       
      +0       0       0       0       0       0       0       0       0       0       0       0       0       0       0
  9049 ;;      Locals:         0       1       0       0       0       0       0       0       0       0       0       0       
      +0       0       0       0       0       0       0       0       0       0       0       0       0       0       0
  9050 ;;      Temps:          1       0       0       0       0       0       0       0       0       0       0       0       
      +0       0       0       0       0       0       0       0       0       0       0       0       0       0       0
  9051 ;;      Totals:         2       1       0       0       0       0       0       0       0       0       0       0       
      +0       0       0       0       0       0       0       0       0       0       0       0       0       0       0
  9052 ;;Total ram usage:        3 bytes
  9053 ;; Hardware stack levels used:    1
  9054 ;; Hardware stack levels required when called:    3
  9055 ;; This function calls:
  9056 ;;		Nothing
  9057 ;; This function is called by:
  9058 ;;		_main
  9059 ;; This function uses a non-reentrant model
  9060 ;;
  9061                           
  9062                           
  9063                           ;psect for function _I2C1_GetCommandData
  9064  0CEC                     _I2C1_GetCommandData:
  9065                           
  9066                           ;incstack = 0
  9067                           ; Regs used in _I2C1_GetCommandData: [wreg-fsr1h]
  9068                           ;I2C1_GetCommandData@data stored from wreg
  9069  0CEC  0140               	movlb	0	; select bank0
  9070  0CED  00A0               	movwf	I2C1_GetCommandData@data
  9071  0CEE                     l5202:
  9072                           
  9073                           ;i2c1.c: 189: __builtin_memcpy(data,i2c1_rx_buffer,rxLen);
  9074  0CEE  0820               	movf	I2C1_GetCommandData@data,w
  9075  0CEF  0086               	movwf	6
  9076  0CF0  3001               	movlw	1	; select bank2/3
  9077  0CF1  0087               	movwf	7
  9078  0CF2  2D01               	goto	mcp0
  9079  0CF3                     mcp0b:
  9080  0CF3  3040               	movlw	low (_i2c1_rx_buffer| (0+256))
  9081  0CF4  0084               	movwf	4
  9082  0CF5  3001               	movlw	1	; select bank2/3
  9083  0CF6  0085               	movwf	5
  9084  0CF7  0877               	movf	_rxLen,w
  9085  0CF8  00F5               	movwf	??_I2C1_GetCommandData
  9086  0CF9  0875               	movf	??_I2C1_GetCommandData,w
  9087  0CFA  1903               	skipnz
  9088  0CFB  2D02               	goto	mcp0z
  9089  0CFC                     u517m0:
  9090  0CFC  0012               	moviw fsr0++
  9091  0CFD  001E               	movwi fsr1++
  9092  0CFE  0BF5               	decfsz	??_I2C1_GetCommandData,f
  9093  0CFF  2CFC               	goto	u517m0
  9094  0D00  2D02               	goto	u517m1
  9095  0D01                     mcp0:
  9096  0D01  2CF3               	goto	mcp0b
  9097  0D02                     u517m1:
  9098  0D02                     mcp0z:
  9099  0D02                     l5204:
  9100                           
  9101                           ;i2c1.c: 190: *len = rxLen;
  9102  0D02  0877               	movf	_rxLen,w
  9103  0D03  00F5               	movwf	??_I2C1_GetCommandData
  9104  0D04  0874               	movf	I2C1_GetCommandData@len,w
  9105  0D05  0086               	movwf	6
  9106  0D06  3001               	movlw	1	; select bank2/3
  9107  0D07  0087               	movwf	7
  9108  0D08  0875               	movf	??_I2C1_GetCommandData,w
  9109  0D09  0081               	movwf	1
  9110  0D0A                     l87:
  9111  0D0A  0008               	return
  9112  0D0B                     __end_of_I2C1_GetCommandData:
  9113                           
  9114                           	psect	text33
  9115  0C79                     __ptext33:	
  9116 ;; *************** function _I2C1_GetCommand *****************
  9117 ;; Defined at:
  9118 ;;		line 183 in file "system/i2c1.c"
  9119 ;; Parameters:    Size  Location     Type
  9120 ;;  cmd             1    wreg     PTR unsigned char 
  9121 ;;		 -> main@cmd(1), 
  9122 ;; Auto vars:     Size  Location     Type
  9123 ;;  cmd             1    5[COMMON] PTR unsigned char 
  9124 ;;		 -> main@cmd(1), 
  9125 ;; Return value:  Size  Location     Type
  9126 ;;                  1    wreg      void 
  9127 ;; Registers used:
  9128 ;;		wreg, fsr1l, fsr1h, status,2
  9129 ;; Tracked objects:
  9130 ;;		On entry : 0/0
  9131 ;;		On exit  : 0/0
  9132 ;;		Unchanged: 0/0
  9133 ;; Data sizes:     COMMON   BANK0   BANK1   BANK2   BANK3   BANK4   BANK5   BANK6   BANK7   BANK8   BANK9  BANK10  BANK1
      +1  BANK12  BANK13  BANK14  BANK15  BANK16  BANK17  BANK18  BANK19  BANK20  BANK21  BANK22  BANK23  BANK24  BANK25
  9134 ;;      Params:         0       0       0       0       0       0       0       0       0       0       0       0       
      +0       0       0       0       0       0       0       0       0       0       0       0       0       0       0
  9135 ;;      Locals:         1       0       0       0       0       0       0       0       0       0       0       0       
      +0       0       0       0       0       0       0       0       0       0       0       0       0       0       0
  9136 ;;      Temps:          1       0       0       0       0       0       0       0       0       0       0       0       
      +0       0       0       0       0       0       0       0       0       0       0       0       0       0       0
  9137 ;;      Totals:         2       0       0       0       0       0       0       0       0       0       0       0       
      +0       0       0       0       0       0       0       0       0       0       0       0       0       0       0
  9138 ;;Total ram usage:        2 bytes
  9139 ;; Hardware stack levels used:    1
  9140 ;; Hardware stack levels required when called:    3
  9141 ;; This function calls:
  9142 ;;		Nothing
  9143 ;; This function is called by:
  9144 ;;		_main
  9145 ;; This function uses a non-reentrant model
  9146 ;;
  9147                           
  9148                           
  9149                           ;psect for function _I2C1_GetCommand
  9150  0C79                     _I2C1_GetCommand:
  9151                           
  9152                           ;incstack = 0
  9153                           ; Regs used in _I2C1_GetCommand: [wreg+fsr1l+fsr1h+status,2]
  9154                           ;I2C1_GetCommand@cmd stored from wreg
  9155  0C79  00F5               	movwf	I2C1_GetCommand@cmd
  9156  0C7A                     l5198:
  9157                           
  9158                           ;i2c1.c: 184: *cmd = cmdByte;
  9159  0C7A  0878               	movf	_cmdByte,w
  9160  0C7B  00F4               	movwf	??_I2C1_GetCommand
  9161  0C7C  0875               	movf	I2C1_GetCommand@cmd,w
  9162  0C7D  0086               	movwf	6
  9163  0C7E  3001               	movlw	1	; select bank2/3
  9164  0C7F  0087               	movwf	7
  9165  0C80  0874               	movf	??_I2C1_GetCommand,w
  9166  0C81  0081               	movwf	1
  9167  0C82                     l5200:
  9168                           
  9169                           ;i2c1.c: 185: cmdReceived = 0;
  9170  0C82  0141               	movlb	1	; select bank1
  9171  0C83  01C0               	clrf	_cmdReceived^(0+128)
  9172  0C84                     l84:
  9173  0C84  0008               	return
  9174  0C85                     __end_of_I2C1_GetCommand:
  9175                           
  9176                           	psect	text34
  9177  0C40                     __ptext34:	
  9178 ;; *************** function _I2C1_CommandReceived *****************
  9179 ;; Defined at:
  9180 ;;		line 175 in file "system/i2c1.c"
  9181 ;; Parameters:    Size  Location     Type
  9182 ;;		None
  9183 ;; Auto vars:     Size  Location     Type
  9184 ;;		None
  9185 ;; Return value:  Size  Location     Type
  9186 ;;                  1    wreg      unsigned char 
  9187 ;; Registers used:
  9188 ;;		wreg
  9189 ;; Tracked objects:
  9190 ;;		On entry : 0/0
  9191 ;;		On exit  : 0/0
  9192 ;;		Unchanged: 0/0
  9193 ;; Data sizes:     COMMON   BANK0   BANK1   BANK2   BANK3   BANK4   BANK5   BANK6   BANK7   BANK8   BANK9  BANK10  BANK1
      +1  BANK12  BANK13  BANK14  BANK15  BANK16  BANK17  BANK18  BANK19  BANK20  BANK21  BANK22  BANK23  BANK24  BANK25
  9194 ;;      Params:         0       0       0       0       0       0       0       0       0       0       0       0       
      +0       0       0       0       0       0       0       0       0       0       0       0       0       0       0
  9195 ;;      Locals:         0       0       0       0       0       0       0       0       0       0       0       0       
      +0       0       0       0       0       0       0       0       0       0       0       0       0       0       0
  9196 ;;      Temps:          0       0       0       0       0       0       0       0       0       0       0       0       
      +0       0       0       0       0       0       0       0       0       0       0       0       0       0       0
  9197 ;;      Totals:         0       0       0       0       0       0       0       0       0       0       0       0       
      +0       0       0       0       0       0       0       0       0       0       0       0       0       0       0
  9198 ;;Total ram usage:        0 bytes
  9199 ;; Hardware stack levels used:    1
  9200 ;; Hardware stack levels required when called:    3
  9201 ;; This function calls:
  9202 ;;		Nothing
  9203 ;; This function is called by:
  9204 ;;		_main
  9205 ;; This function uses a non-reentrant model
  9206 ;;
  9207                           
  9208                           
  9209                           ;psect for function _I2C1_CommandReceived
  9210  0C40                     _I2C1_CommandReceived:
  9211  0C40                     l5190:	
  9212                           ;incstack = 0
  9213                           ; Regs used in _I2C1_CommandReceived: [wreg]
  9214                           
  9215                           
  9216                           ;i2c1.c: 176: return cmdReceived;
  9217  0C40  0141               	movlb	1	; select bank1
  9218  0C41  0840               	movf	_cmdReceived^(0+128),w
  9219  0C42                     l78:
  9220  0C42  0008               	return
  9221  0C43                     __end_of_I2C1_CommandReceived:
  9222                           
  9223                           	psect	intentry
  9224  0004                     __pintentry:	
  9225 ;; *************** function _Interrupt_Handler *****************
  9226 ;; Defined at:
  9227 ;;		line 10 in file "system/interrupt.c"
  9228 ;; Parameters:    Size  Location     Type
  9229 ;;		None
  9230 ;; Auto vars:     Size  Location     Type
  9231 ;;		None
  9232 ;; Return value:  Size  Location     Type
  9233 ;;                  1    wreg      void 
  9234 ;; Registers used:
  9235 ;;		wreg, fsr0l, fsr0h, fsr1l, fsr1h, status,2, status,0, pclath, cstack
  9236 ;; Tracked objects:
  9237 ;;		On entry : 0/0
  9238 ;;		On exit  : 0/0
  9239 ;;		Unchanged: 0/0
  9240 ;; Data sizes:     COMMON   BANK0   BANK1   BANK2   BANK3   BANK4   BANK5   BANK6   BANK7   BANK8   BANK9  BANK10  BANK1
      +1  BANK12  BANK13  BANK14  BANK15  BANK16  BANK17  BANK18  BANK19  BANK20  BANK21  BANK22  BANK23  BANK24  BANK25
  9241 ;;      Params:         0       0       0       0       0       0       0       0       0       0       0       0       
      +0       0       0       0       0       0       0       0       0       0       0       0       0       0       0
  9242 ;;      Locals:         0       0       0       0       0       0       0       0       0       0       0       0       
      +0       0       0       0       0       0       0       0       0       0       0       0       0       0       0
  9243 ;;      Temps:          0       0       0       0       0       0       0       0       0       0       0       0       
      +0       0       0       0       0       0       0       0       0       0       0       0       0       0       0
  9244 ;;      Totals:         0       0       0       0       0       0       0       0       0       0       0       0       
      +0       0       0       0       0       0       0       0       0       0       0       0       0       0       0
  9245 ;;Total ram usage:        0 bytes
  9246 ;; Hardware stack levels used:    1
  9247 ;; Hardware stack levels required when called:    2
  9248 ;; This function calls:
  9249 ;;		_ADCC_ISR
  9250 ;;		_DefaultSensorInterruptHandler
  9251 ;;		_I2C1_ISR
  9252 ;; This function is called by:
  9253 ;;		Interrupt level 1
  9254 ;; This function uses a non-reentrant model
  9255 ;;
  9256                           
  9257  0004                     _Interrupt_Handler:
  9258                           
  9259                           ;incstack = 0
  9260  0004  147E               	bsf	int$flags,0	;set compiler interrupt flag (level 1)
  9261                           
  9262                           ; Regs used in _Interrupt_Handler: [wreg-fsr1h+status,2+status,0+pclath+cstack]
  9263  0005  3180               	pagesel	$
  9264  0006                     i1l3050:
  9265                           
  9266                           ;interrupt.c: 14: SensorInterruptHandler();
  9267  0006  0141               	movlb	1	; select bank1
  9268  0007  085A               	movf	(_SensorInterruptHandler+1)^(0+128),w
  9269  0008  008A               	movwf	10
  9270  0009  0859               	movf	_SensorInterruptHandler^(0+128),w
  9271  000A  000A               	callw
  9272  000B  3180               	pagesel	$
  9273  000C                     i1l3052:
  9274                           
  9275                           ;interrupt.c: 22: if(INTCONbits.PEIE == 1)
  9276  000C  1F0B               	btfss	11,6	;volatile
  9277  000D  280F               	goto	u220_21
  9278  000E  2810               	goto	u220_20
  9279  000F                     u220_21:
  9280  000F  2829               	goto	i1l147
  9281  0010                     u220_20:
  9282  0010                     i1l3054:
  9283                           
  9284                           ;interrupt.c: 23: {;interrupt.c: 24: if(PIE3bits.SSP1IE == 1 && PIR3bits.SSP1IF == 1)
  9285  0010  014E               	movlb	14	; select bank14
  9286  0011  1C19               	btfss	25,0	;volatile
  9287  0012  2814               	goto	u221_21
  9288  0013  2815               	goto	u221_20
  9289  0014                     u221_21:
  9290  0014  281D               	goto	i1l142
  9291  0015                     u221_20:
  9292  0015                     i1l3056:
  9293  0015  1C0F               	btfss	15,0	;volatile
  9294  0016  2818               	goto	u222_21
  9295  0017  2819               	goto	u222_20
  9296  0018                     u222_21:
  9297  0018  281D               	goto	i1l142
  9298  0019                     u222_20:
  9299  0019                     i1l3058:
  9300                           
  9301                           ;interrupt.c: 25: {;interrupt.c: 26: I2C1_ISR();
  9302  0019  318E  2637  3180   	fcall	_I2C1_ISR
  9303                           
  9304                           ;interrupt.c: 27: }
  9305  001C  2829               	goto	i1l147
  9306  001D                     i1l142:
  9307                           
  9308                           ;interrupt.c: 28: else if(PIE1bits.ADIE == 1 && PIR1bits.ADIF == 1)
  9309  001D  1C17               	btfss	23,0	;volatile
  9310  001E  2820               	goto	u223_21
  9311  001F  2821               	goto	u223_20
  9312  0020                     u223_21:
  9313  0020  2829               	goto	i1l143
  9314  0021                     u223_20:
  9315  0021                     i1l3060:
  9316  0021  1C0D               	btfss	13,0	;volatile
  9317  0022  2824               	goto	u224_21
  9318  0023  2825               	goto	u224_20
  9319  0024                     u224_21:
  9320  0024  2829               	goto	i1l143
  9321  0025                     u224_20:
  9322  0025                     i1l3062:
  9323                           
  9324                           ;interrupt.c: 29: {;interrupt.c: 30: ADCC_ISR();
  9325  0025  318C  249F  3180   	fcall	_ADCC_ISR
  9326                           
  9327                           ;interrupt.c: 31: }
  9328  0028  2829               	goto	i1l147
  9329  0029                     i1l143:
  9330  0029                     i1l147:	
  9331                           ;interrupt.c: 35: };interrupt.c: 36: }
  9332                           
  9333  0029  107E               	bcf	int$flags,0	;clear compiler interrupt flag (level 1)
  9334  002A  0009               	retfie
  9335  002B                     __end_of_Interrupt_Handler:
  9336                           
  9337                           	psect	text36
  9338  0E37                     __ptext36:	
  9339 ;; *************** function _I2C1_ISR *****************
  9340 ;; Defined at:
  9341 ;;		line 132 in file "system/i2c1.c"
  9342 ;; Parameters:    Size  Location     Type
  9343 ;;		None
  9344 ;; Auto vars:     Size  Location     Type
  9345 ;;  i2c_data        1    3[COMMON] unsigned char 
  9346 ;; Return value:  Size  Location     Type
  9347 ;;                  1    wreg      void 
  9348 ;; Registers used:
  9349 ;;		wreg, fsr0l, fsr0h, fsr1l, fsr1h, status,2, status,0, pclath, cstack
  9350 ;; Tracked objects:
  9351 ;;		On entry : 0/0
  9352 ;;		On exit  : 0/0
  9353 ;;		Unchanged: 0/0
  9354 ;; Data sizes:     COMMON   BANK0   BANK1   BANK2   BANK3   BANK4   BANK5   BANK6   BANK7   BANK8   BANK9  BANK10  BANK1
      +1  BANK12  BANK13  BANK14  BANK15  BANK16  BANK17  BANK18  BANK19  BANK20  BANK21  BANK22  BANK23  BANK24  BANK25
  9355 ;;      Params:         0       0       0       0       0       0       0       0       0       0       0       0       
      +0       0       0       0       0       0       0       0       0       0       0       0       0       0       0
  9356 ;;      Locals:         1       0       0       0       0       0       0       0       0       0       0       0       
      +0       0       0       0       0       0       0       0       0       0       0       0       0       0       0
  9357 ;;      Temps:          1       0       0       0       0       0       0       0       0       0       0       0       
      +0       0       0       0       0       0       0       0       0       0       0       0       0       0       0
  9358 ;;      Totals:         2       0       0       0       0       0       0       0       0       0       0       0       
      +0       0       0       0       0       0       0       0       0       0       0       0       0       0       0
  9359 ;;Total ram usage:        2 bytes
  9360 ;; Hardware stack levels used:    1
  9361 ;; Hardware stack levels required when called:    1
  9362 ;; This function calls:
  9363 ;;		_I2C1_StatusCallback
  9364 ;; This function is called by:
  9365 ;;		_Interrupt_Handler
  9366 ;; This function uses a non-reentrant model
  9367 ;;
  9368                           
  9369                           
  9370                           ;psect for function _I2C1_ISR
  9371  0E37                     _I2C1_ISR:
  9372  0E37                     i1l2824:	
  9373                           ;incstack = 0
  9374                           ; Regs used in _I2C1_ISR: [wreg-fsr1h+status,2+status,0+pclath+cstack]
  9375                           
  9376  0E37                     i1l2826:
  9377                           
  9378                           ;i2c1.c: 138: PIE3bits.SSP1IE = 0;
  9379  0E37  014E               	movlb	14	; select bank14
  9380  0E38  1019               	bcf	25,0	;volatile
  9381  0E39                     i1l2828:
  9382                           
  9383                           ;i2c1.c: 139: PIR3bits.SSP1IF = 0;
  9384  0E39  100F               	bcf	15,0	;volatile
  9385  0E3A                     i1l2830:
  9386                           
  9387                           ;i2c1.c: 140: i2c_data = SSP1BUF;
  9388  0E3A  0143               	movlb	3	; select bank3
  9389  0E3B  080C               	movf	12,w	;volatile
  9390  0E3C  00F2               	movwf	??_I2C1_ISR
  9391  0E3D  0872               	movf	??_I2C1_ISR,w
  9392  0E3E  00F3               	movwf	I2C1_ISR@i2c_data
  9393  0E3F                     i1l2832:
  9394                           
  9395                           ;i2c1.c: 141: if(1 == SSP1STATbits.R_nW){
  9396  0E3F  1D0F               	btfss	15,2	;volatile
  9397  0E40  2E42               	goto	u195_21
  9398  0E41  2E43               	goto	u195_20
  9399  0E42                     u195_21:
  9400  0E42  2E57               	goto	i1l66
  9401  0E43                     u195_20:
  9402  0E43                     i1l2834:
  9403                           
  9404                           ;i2c1.c: 142: if((1 == SSP1STATbits.D_nA) && (1 == SSP1CON2bits.ACKSTAT)){
  9405  0E43  1E8F               	btfss	15,5	;volatile
  9406  0E44  2E46               	goto	u196_21
  9407  0E45  2E47               	goto	u196_20
  9408  0E46                     u196_21:
  9409  0E46  2E50               	goto	i1l2840
  9410  0E47                     u196_20:
  9411  0E47                     i1l2836:
  9412  0E47  1F11               	btfss	17,6	;volatile
  9413  0E48  2E4A               	goto	u197_21
  9414  0E49  2E4B               	goto	u197_20
  9415  0E4A                     u197_21:
  9416  0E4A  2E50               	goto	i1l2840
  9417  0E4B                     u197_20:
  9418  0E4B                     i1l2838:
  9419                           
  9420                           ;i2c1.c: 144: I2C1_StatusCallback(I2C1_SLAVE_READ_COMPLETED);
  9421  0E4B  3003               	movlw	3
  9422  0E4C  318F  2748  318E   	fcall	_I2C1_StatusCallback
  9423                           
  9424                           ;i2c1.c: 145: }
  9425  0E4F  2E6F               	goto	i1l69
  9426  0E50                     i1l2840:
  9427                           
  9428                           ;i2c1.c: 146: else{;i2c1.c: 148: I2C1_StatusCallback(I2C1_SLAVE_READ_REQUEST);
  9429  0E50  3001               	movlw	1
  9430  0E51  318F  2748  318E   	fcall	_I2C1_StatusCallback
  9431  0E54                     i1l2842:
  9432                           
  9433                           ;i2c1.c: 149: SSP1CON1bits.CKP = 1;
  9434  0E54  0143               	movlb	3	; select bank3
  9435  0E55  1610               	bsf	16,4	;volatile
  9436  0E56  2E6F               	goto	i1l69
  9437  0E57                     i1l66:
  9438                           
  9439                           ;i2c1.c: 153: else if(0 == SSP1STATbits.D_nA){
  9440  0E57  1A8F               	btfsc	15,5	;volatile
  9441  0E58  2E5A               	goto	u198_21
  9442  0E59  2E5B               	goto	u198_20
  9443  0E5A                     u198_21:
  9444  0E5A  2E60               	goto	i1l2846
  9445  0E5B                     u198_20:
  9446  0E5B                     i1l2844:
  9447                           
  9448                           ;i2c1.c: 157: I2C1_StatusCallback(I2C1_SLAVE_WRITE_REQUEST);
  9449  0E5B  3000               	movlw	0
  9450  0E5C  318F  2748  318E   	fcall	_I2C1_StatusCallback
  9451                           
  9452                           ;i2c1.c: 158: }
  9453  0E5F  2E6F               	goto	i1l69
  9454  0E60                     i1l2846:
  9455                           
  9456                           ;i2c1.c: 159: else{;i2c1.c: 160: I2C1_slaveWriteData = i2c_data;
  9457  0E60  0873               	movf	I2C1_ISR@i2c_data,w
  9458  0E61  00F2               	movwf	??_I2C1_ISR
  9459  0E62  0872               	movf	??_I2C1_ISR,w
  9460  0E63  00F9               	movwf	_I2C1_slaveWriteData	;volatile
  9461  0E64                     i1l2848:
  9462                           
  9463                           ;i2c1.c: 163: I2C1_StatusCallback(I2C1_SLAVE_WRITE_COMPLETED);
  9464  0E64  3002               	movlw	2
  9465  0E65  318F  2748  318E   	fcall	_I2C1_StatusCallback
  9466  0E68                     i1l2850:
  9467                           
  9468                           ;i2c1.c: 164: SSP1CON1bits.CKP = 1;
  9469  0E68  0143               	movlb	3	; select bank3
  9470  0E69  1610               	bsf	16,4	;volatile
  9471  0E6A                     i1l72:	
  9472                           ;i2c1.c: 165: while(!PIR3bits.SSP1IF);
  9473                           
  9474  0E6A  014E               	movlb	14	; select bank14
  9475  0E6B  1C0F               	btfss	15,0	;volatile
  9476  0E6C  2E6E               	goto	u199_21
  9477  0E6D  2E6F               	goto	u199_20
  9478  0E6E                     u199_21:
  9479  0E6E  2E6A               	goto	i1l72
  9480  0E6F                     u199_20:
  9481  0E6F                     i1l69:
  9482                           
  9483                           ;i2c1.c: 166: };i2c1.c: 169: PIR3bits.SSP1IF = 0;
  9484  0E6F  014E               	movlb	14	; select bank14
  9485  0E70  100F               	bcf	15,0	;volatile
  9486                           
  9487                           ;i2c1.c: 170: SSP1CON1bits.CKP = 1;
  9488  0E71  0143               	movlb	3	; select bank3
  9489  0E72  1610               	bsf	16,4	;volatile
  9490                           
  9491                           ;i2c1.c: 172: PIE3bits.SSP1IE = 1;
  9492  0E73  014E               	movlb	14	; select bank14
  9493  0E74  1419               	bsf	25,0	;volatile
  9494  0E75                     i1l75:
  9495  0E75  0008               	return
  9496  0E76                     __end_of_I2C1_ISR:
  9497                           
  9498                           	psect	text37
  9499  0F48                     __ptext37:	
  9500 ;; *************** function _I2C1_StatusCallback *****************
  9501 ;; Defined at:
  9502 ;;		line 209 in file "system/i2c1.c"
  9503 ;; Parameters:    Size  Location     Type
  9504 ;;  i2c_bus_stat    1    wreg     enum E10841
  9505 ;; Auto vars:     Size  Location     Type
  9506 ;;  i2c_bus_stat    1    1[COMMON] enum E10841
  9507 ;; Return value:  Size  Location     Type
  9508 ;;                  1    wreg      void 
  9509 ;; Registers used:
  9510 ;;		wreg, fsr0l, fsr0h, fsr1l, fsr1h, status,2, status,0
  9511 ;; Tracked objects:
  9512 ;;		On entry : 0/0
  9513 ;;		On exit  : 0/0
  9514 ;;		Unchanged: 0/0
  9515 ;; Data sizes:     COMMON   BANK0   BANK1   BANK2   BANK3   BANK4   BANK5   BANK6   BANK7   BANK8   BANK9  BANK10  BANK1
      +1  BANK12  BANK13  BANK14  BANK15  BANK16  BANK17  BANK18  BANK19  BANK20  BANK21  BANK22  BANK23  BANK24  BANK25
  9516 ;;      Params:         0       0       0       0       0       0       0       0       0       0       0       0       
      +0       0       0       0       0       0       0       0       0       0       0       0       0       0       0
  9517 ;;      Locals:         1       0       0       0       0       0       0       0       0       0       0       0       
      +0       0       0       0       0       0       0       0       0       0       0       0       0       0       0
  9518 ;;      Temps:          1       0       0       0       0       0       0       0       0       0       0       0       
      +0       0       0       0       0       0       0       0       0       0       0       0       0       0       0
  9519 ;;      Totals:         2       0       0       0       0       0       0       0       0       0       0       0       
      +0       0       0       0       0       0       0       0       0       0       0       0       0       0       0
  9520 ;;Total ram usage:        2 bytes
  9521 ;; Hardware stack levels used:    1
  9522 ;; This function calls:
  9523 ;;		Nothing
  9524 ;; This function is called by:
  9525 ;;		_I2C1_ISR
  9526 ;; This function uses a non-reentrant model
  9527 ;;
  9528                           
  9529                           
  9530                           ;psect for function _I2C1_StatusCallback
  9531  0F48                     _I2C1_StatusCallback:
  9532                           
  9533                           ;incstack = 0
  9534                           ; Regs used in _I2C1_StatusCallback: [wreg-fsr1h+status,2+status,0]
  9535                           ;I2C1_StatusCallback@i2c_bus_state stored from wreg
  9536  0F48  00F1               	movwf	I2C1_StatusCallback@i2c_bus_state
  9537  0F49                     i1l2650:
  9538                           
  9539                           ;i2c1.c: 211: static uint8_t slaveWriteType = SLAVE_COMMAND_DATA;;i2c1.c: 214: switch (i
      +                          2c_bus_state){
  9540  0F49  2F8C               	goto	i1l2678
  9541  0F4A                     i1l104:	
  9542                           ;i2c1.c: 216: case I2C1_SLAVE_WRITE_REQUEST:
  9543                           
  9544                           
  9545                           ;i2c1.c: 218: slaveWriteType = SLAVE_COMMAND;
  9546  0F4A  0141               	movlb	1	; select bank1
  9547  0F4B  01BE               	clrf	I2C1_StatusCallback@slaveWriteType^(0+128)
  9548  0F4C  0ABE               	incf	I2C1_StatusCallback@slaveWriteType^(0+128),f
  9549                           
  9550                           ;i2c1.c: 219: break;
  9551  0F4D  2F9A               	goto	i1l118
  9552  0F4E                     i1l2652:
  9553                           
  9554                           ;i2c1.c: 226: cmdByte = I2C1_slaveWriteData;
  9555  0F4E  0879               	movf	_I2C1_slaveWriteData,w	;volatile
  9556  0F4F  00F0               	movwf	??_I2C1_StatusCallback
  9557  0F50  0870               	movf	??_I2C1_StatusCallback,w
  9558  0F51  00F8               	movwf	_cmdByte
  9559  0F52                     i1l2654:
  9560                           
  9561                           ;i2c1.c: 227: rxLen = 0;
  9562  0F52  01F7               	clrf	_rxLen
  9563  0F53                     i1l2656:
  9564                           
  9565                           ;i2c1.c: 228: cmdReceived = 1;
  9566  0F53  01C0               	clrf	_cmdReceived^(0+128)
  9567  0F54  0AC0               	incf	_cmdReceived^(0+128),f
  9568                           
  9569                           ;i2c1.c: 229: break;
  9570  0F55  2F73               	goto	i1l2668
  9571  0F56                     i1l2658:
  9572                           
  9573                           ;i2c1.c: 234: if(rxLen <= 32)
  9574  0F56  3021               	movlw	33
  9575  0F57  0277               	subwf	_rxLen,w
  9576  0F58  1803               	skipnc
  9577  0F59  2F5B               	goto	u191_21
  9578  0F5A  2F5C               	goto	u191_20
  9579  0F5B                     u191_21:
  9580  0F5B  2F73               	goto	i1l2668
  9581  0F5C                     u191_20:
  9582  0F5C                     i1l2660:
  9583                           
  9584                           ;i2c1.c: 235: {;i2c1.c: 236: i2c1_rx_buffer[rxLen++] = I2C1_slaveWriteData;
  9585  0F5C  0879               	movf	_I2C1_slaveWriteData,w	;volatile
  9586  0F5D  00F0               	movwf	??_I2C1_StatusCallback
  9587  0F5E  0877               	movf	_rxLen,w
  9588  0F5F  3E40               	addlw	(low (_i2c1_rx_buffer| (0+256)))& (0+255)
  9589  0F60  0086               	movwf	6
  9590  0F61  3001               	movlw	1	; select bank2/3
  9591  0F62  0087               	movwf	7
  9592  0F63  0870               	movf	??_I2C1_StatusCallback,w
  9593  0F64  0081               	movwf	1
  9594  0F65                     i1l2662:
  9595  0F65  3001               	movlw	1
  9596  0F66  00F0               	movwf	??_I2C1_StatusCallback
  9597  0F67  0870               	movf	??_I2C1_StatusCallback,w
  9598  0F68  07F7               	addwf	_rxLen,f
  9599  0F69  2F73               	goto	i1l2668
  9600  0F6A                     i1l2666:
  9601  0F6A  0141               	movlb	1	; select bank1
  9602  0F6B  083E               	movf	I2C1_StatusCallback@slaveWriteType^(0+128),w
  9603                           
  9604                           ; Switch size 1, requested type "simple"
  9605                           ; Number of cases is 2, Range of values is 0 to 1
  9606                           ; switch strategies available:
  9607                           ; Name         Instructions Cycles
  9608                           ; simple_byte            7     4 (average)
  9609                           ; direct_byte           10     6 (fixed)
  9610                           ; jumptable            260     6 (fixed)
  9611                           ;	Chosen strategy is simple_byte
  9612  0F6C  3A00               	xorlw	0	; case 0
  9613  0F6D  1903               	skipnz
  9614  0F6E  2F56               	goto	i1l2658
  9615  0F6F  3A01               	xorlw	1	; case 1
  9616  0F70  1903               	skipnz
  9617  0F71  2F4E               	goto	i1l2652
  9618  0F72  2F56               	goto	i1l2658
  9619  0F73                     i1l2668:
  9620                           
  9621                           ;i2c1.c: 242: slaveWriteType = SLAVE_COMMAND_DATA;
  9622  0F73  01BE               	clrf	I2C1_StatusCallback@slaveWriteType^(0+128)
  9623                           
  9624                           ;i2c1.c: 243: break;
  9625  0F74  2F9A               	goto	i1l118
  9626  0F75                     i1l2670:
  9627                           
  9628                           ;i2c1.c: 246: if(txCnt<txLen){
  9629  0F75  0141               	movlb	1	; select bank1
  9630  0F76  083F               	movf	_txLen^(0+128),w
  9631  0F77  0276               	subwf	_txCnt,w
  9632  0F78  1803               	skipnc
  9633  0F79  2F7B               	goto	u192_21
  9634  0F7A  2F7C               	goto	u192_20
  9635  0F7B                     u192_21:
  9636  0F7B  2F89               	goto	i1l2676
  9637  0F7C                     u192_20:
  9638  0F7C                     i1l2672:
  9639                           
  9640                           ;i2c1.c: 247: SSP1BUF = i2c1_tx_buffer[txCnt++];
  9641  0F7C  0876               	movf	_txCnt,w
  9642  0F7D  3E20               	addlw	(low (_i2c1_tx_buffer| (0+256)))& (0+255)
  9643  0F7E  0086               	movwf	6
  9644  0F7F  3001               	movlw	1	; select bank2/3
  9645  0F80  0087               	movwf	7
  9646  0F81  0801               	movf	1,w
  9647  0F82  0143               	movlb	3	; select bank3
  9648  0F83  008C               	movwf	12	;volatile
  9649  0F84                     i1l2674:
  9650  0F84  3001               	movlw	1
  9651  0F85  00F0               	movwf	??_I2C1_StatusCallback
  9652  0F86  0870               	movf	??_I2C1_StatusCallback,w
  9653  0F87  07F6               	addwf	_txCnt,f
  9654                           
  9655                           ;i2c1.c: 248: }
  9656  0F88  2F9A               	goto	i1l118
  9657  0F89                     i1l2676:
  9658                           
  9659                           ;i2c1.c: 249: else{;i2c1.c: 250: SSP1BUF = 0x00;
  9660  0F89  0143               	movlb	3	; select bank3
  9661  0F8A  018C               	clrf	12	;volatile
  9662  0F8B  2F9A               	goto	i1l118
  9663  0F8C                     i1l2678:
  9664  0F8C  0871               	movf	I2C1_StatusCallback@i2c_bus_state,w
  9665                           
  9666                           ; Switch size 1, requested type "simple"
  9667                           ; Number of cases is 4, Range of values is 0 to 3
  9668                           ; switch strategies available:
  9669                           ; Name         Instructions Cycles
  9670                           ; simple_byte           13     7 (average)
  9671                           ; direct_byte           14     6 (fixed)
  9672                           ; jumptable            260     6 (fixed)
  9673                           ;	Chosen strategy is simple_byte
  9674  0F8D  3A00               	xorlw	0	; case 0
  9675  0F8E  1903               	skipnz
  9676  0F8F  2F4A               	goto	i1l104
  9677  0F90  3A01               	xorlw	1	; case 1
  9678  0F91  1903               	skipnz
  9679  0F92  2F75               	goto	i1l2670
  9680  0F93  3A03               	xorlw	3	; case 2
  9681  0F94  1903               	skipnz
  9682  0F95  2F6A               	goto	i1l2666
  9683  0F96  3A01               	xorlw	1	; case 3
  9684  0F97  1903               	skipnz
  9685  0F98  2F9A               	goto	i1l118
  9686  0F99  2F9A               	goto	i1l118
  9687  0F9A                     i1l118:
  9688  0F9A  0008               	return
  9689  0F9B                     __end_of_I2C1_StatusCallback:
  9690                           
  9691                           	psect	text38
  9692  0C3E                     __ptext38:	
  9693 ;; *************** function _DefaultSensorInterruptHandler *****************
  9694 ;; Defined at:
  9695 ;;		line 47 in file "system/interrupt.c"
  9696 ;; Parameters:    Size  Location     Type
  9697 ;;		None
  9698 ;; Auto vars:     Size  Location     Type
  9699 ;;		None
  9700 ;; Return value:  Size  Location     Type
  9701 ;;                  1    wreg      void 
  9702 ;; Registers used:
  9703 ;;		None
  9704 ;; Tracked objects:
  9705 ;;		On entry : 0/0
  9706 ;;		On exit  : 0/0
  9707 ;;		Unchanged: 0/0
  9708 ;; Data sizes:     COMMON   BANK0   BANK1   BANK2   BANK3   BANK4   BANK5   BANK6   BANK7   BANK8   BANK9  BANK10  BANK1
      +1  BANK12  BANK13  BANK14  BANK15  BANK16  BANK17  BANK18  BANK19  BANK20  BANK21  BANK22  BANK23  BANK24  BANK25
  9709 ;;      Params:         0       0       0       0       0       0       0       0       0       0       0       0       
      +0       0       0       0       0       0       0       0       0       0       0       0       0       0       0
  9710 ;;      Locals:         0       0       0       0       0       0       0       0       0       0       0       0       
      +0       0       0       0       0       0       0       0       0       0       0       0       0       0       0
  9711 ;;      Temps:          0       0       0       0       0       0       0       0       0       0       0       0       
      +0       0       0       0       0       0       0       0       0       0       0       0       0       0       0
  9712 ;;      Totals:         0       0       0       0       0       0       0       0       0       0       0       0       
      +0       0       0       0       0       0       0       0       0       0       0       0       0       0       0
  9713 ;;Total ram usage:        0 bytes
  9714 ;; Hardware stack levels used:    1
  9715 ;; This function calls:
  9716 ;;		Nothing
  9717 ;; This function is called by:
  9718 ;;		_Interrupt_Handler
  9719 ;; This function uses a non-reentrant model
  9720 ;;
  9721                           
  9722                           
  9723                           ;psect for function _DefaultSensorInterruptHandler
  9724  0C3E                     _DefaultSensorInterruptHandler:
  9725  0C3E                     i1l2890:	
  9726                           ;incstack = 0
  9727                           ; Regs used in _DefaultSensorInterruptHandler: []
  9728                           
  9729  0C3E                     i1l153:	
  9730                           ;interrupt.c: 48: return;
  9731                           
  9732  0C3E  0008               	return
  9733  0C3F                     __end_of_DefaultSensorInterruptHandler:
  9734                           
  9735                           	psect	text39
  9736  0C9F                     __ptext39:	
  9737 ;; *************** function _ADCC_ISR *****************
  9738 ;; Defined at:
  9739 ;;		line 309 in file "system/adcc.c"
  9740 ;; Parameters:    Size  Location     Type
  9741 ;;		None
  9742 ;; Auto vars:     Size  Location     Type
  9743 ;;		None
  9744 ;; Return value:  Size  Location     Type
  9745 ;;                  1    wreg      void 
  9746 ;; Registers used:
  9747 ;;		wreg, status,2, status,0, pclath, cstack
  9748 ;; Tracked objects:
  9749 ;;		On entry : 0/0
  9750 ;;		On exit  : 0/0
  9751 ;;		Unchanged: 0/0
  9752 ;; Data sizes:     COMMON   BANK0   BANK1   BANK2   BANK3   BANK4   BANK5   BANK6   BANK7   BANK8   BANK9  BANK10  BANK1
      +1  BANK12  BANK13  BANK14  BANK15  BANK16  BANK17  BANK18  BANK19  BANK20  BANK21  BANK22  BANK23  BANK24  BANK25
  9753 ;;      Params:         0       0       0       0       0       0       0       0       0       0       0       0       
      +0       0       0       0       0       0       0       0       0       0       0       0       0       0       0
  9754 ;;      Locals:         0       0       0       0       0       0       0       0       0       0       0       0       
      +0       0       0       0       0       0       0       0       0       0       0       0       0       0       0
  9755 ;;      Temps:          0       0       0       0       0       0       0       0       0       0       0       0       
      +0       0       0       0       0       0       0       0       0       0       0       0       0       0       0
  9756 ;;      Totals:         0       0       0       0       0       0       0       0       0       0       0       0       
      +0       0       0       0       0       0       0       0       0       0       0       0       0       0       0
  9757 ;;Total ram usage:        0 bytes
  9758 ;; Hardware stack levels used:    1
  9759 ;; Hardware stack levels required when called:    1
  9760 ;; This function calls:
  9761 ;;		Absolute function
  9762 ;;		_ADCC_DefaultInterruptHandler
  9763 ;; This function is called by:
  9764 ;;		_Interrupt_Handler
  9765 ;; This function uses a non-reentrant model
  9766 ;;
  9767                           
  9768                           
  9769                           ;psect for function _ADCC_ISR
  9770  0C9F                     _ADCC_ISR:
  9771  0C9F                     i1l2882:	
  9772                           ;incstack = 0
  9773                           ; Regs used in _ADCC_ISR: [wreg+status,2+status,0+pclath+cstack]
  9774                           
  9775                           
  9776                           ;adcc.c: 312: PIR1bits.ADIF = 0;
  9777  0C9F  014E               	movlb	14	; select bank14
  9778  0CA0  100D               	bcf	13,0	;volatile
  9779  0CA1                     i1l2884:
  9780                           
  9781                           ;adcc.c: 314: if (ADCC_ADI_InterruptHandler)
  9782  0CA1  0141               	movlb	1	; select bank1
  9783  0CA2  0838               	movf	_ADCC_ADI_InterruptHandler^(0+128),w
  9784  0CA3  0439               	iorwf	(_ADCC_ADI_InterruptHandler+1)^(0+128),w
  9785  0CA4  1903               	btfsc	3,2
  9786  0CA5  2CA7               	goto	u205_21
  9787  0CA6  2CA8               	goto	u205_20
  9788  0CA7                     u205_21:
  9789  0CA7  2CAD               	goto	i1l397
  9790  0CA8                     u205_20:
  9791  0CA8                     i1l2886:
  9792                           
  9793                           ;adcc.c: 315: ADCC_ADI_InterruptHandler();
  9794  0CA8  0839               	movf	(_ADCC_ADI_InterruptHandler+1)^(0+128),w
  9795  0CA9  008A               	movwf	10
  9796  0CAA  0838               	movf	_ADCC_ADI_InterruptHandler^(0+128),w
  9797  0CAB  000A               	callw
  9798  0CAC  318C               	pagesel	$
  9799  0CAD                     i1l397:
  9800  0CAD  0008               	return
  9801  0CAE                     __end_of_ADCC_ISR:
  9802                           
  9803                           	psect	text40
  9804  0C3D                     __ptext40:	
  9805 ;; *************** function _ADCC_DefaultInterruptHandler *****************
  9806 ;; Defined at:
  9807 ;;		line 322 in file "system/adcc.c"
  9808 ;; Parameters:    Size  Location     Type
  9809 ;;		None
  9810 ;; Auto vars:     Size  Location     Type
  9811 ;;		None
  9812 ;; Return value:  Size  Location     Type
  9813 ;;                  1    wreg      void 
  9814 ;; Registers used:
  9815 ;;		None
  9816 ;; Tracked objects:
  9817 ;;		On entry : 0/0
  9818 ;;		On exit  : 0/0
  9819 ;;		Unchanged: 0/0
  9820 ;; Data sizes:     COMMON   BANK0   BANK1   BANK2   BANK3   BANK4   BANK5   BANK6   BANK7   BANK8   BANK9  BANK10  BANK1
      +1  BANK12  BANK13  BANK14  BANK15  BANK16  BANK17  BANK18  BANK19  BANK20  BANK21  BANK22  BANK23  BANK24  BANK25
  9821 ;;      Params:         0       0       0       0       0       0       0       0       0       0       0       0       
      +0       0       0       0       0       0       0       0       0       0       0       0       0       0       0
  9822 ;;      Locals:         0       0       0       0       0       0       0       0       0       0       0       0       
      +0       0       0       0       0       0       0       0       0       0       0       0       0       0       0
  9823 ;;      Temps:          0       0       0       0       0       0       0       0       0       0       0       0       
      +0       0       0       0       0       0       0       0       0       0       0       0       0       0       0
  9824 ;;      Totals:         0       0       0       0       0       0       0       0       0       0       0       0       
      +0       0       0       0       0       0       0       0       0       0       0       0       0       0       0
  9825 ;;Total ram usage:        0 bytes
  9826 ;; Hardware stack levels used:    1
  9827 ;; This function calls:
  9828 ;;		Nothing
  9829 ;; This function is called by:
  9830 ;;		_ADCC_Initialize
  9831 ;;		_ADCC_ISR
  9832 ;; This function uses a non-reentrant model
  9833 ;;
  9834                           
  9835                           
  9836                           ;psect for function _ADCC_DefaultInterruptHandler
  9837  0C3D                     _ADCC_DefaultInterruptHandler:
  9838  0C3D                     i1l403:	
  9839                           ;incstack = 0
  9840                           ; Regs used in _ADCC_DefaultInterruptHandler: []
  9841                           
  9842  0C3D  0008               	return
  9843  0C3E                     __end_of_ADCC_DefaultInterruptHandler:
  9844  007E                     btemp	set	126	;btemp
  9845  007E                     int$flags	set	126
  9846  007E                     wtemp0	set	126
  9847                           
  9848                           	psect	config
  9849                           
  9850                           ;Config register CONFIG1 @ 0x8007
  9851                           ;	External Oscillator mode selection bits
  9852                           ;	FEXTOSC = OFF, Oscillator not enabled
  9853                           ;	Power-up default value for COSC bits
  9854                           ;	RSTOSC = HFINT1, HFINTOSC (1MHz)
  9855                           ;	Clock Out Enable bit
  9856                           ;	CLKOUTEN = OFF, CLKOUT function is disabled; i/o or oscillator function on OSC2
  9857                           ;	Clock Switch Enable bit
  9858                           ;	CSWEN = ON, Writing to NOSC and NDIV is allowed
  9859                           ;	Fail-Safe Clock Monitor Enable bit
  9860                           ;	FCMEN = OFF, FSCM timer disabled
  9861  8007                     	org	32775
  9862  8007  1FEC               	dw	8172
  9863                           
  9864                           ;Config register CONFIG2 @ 0x8008
  9865                           ;	Master Clear Enable bit
  9866                           ;	MCLRE = ON, MCLR pin is Master Clear function
  9867                           ;	Power-up Timer Enable bit
  9868                           ;	PWRTS = OFF, PWRT disabled
  9869                           ;	Low-Power BOR enable bit
  9870                           ;	LPBOREN = OFF, ULPBOR disabled
  9871                           ;	Brown-out reset enable bits
  9872                           ;	BOREN = OFF, Brown-out reset disabled
  9873                           ;	Brown-out Reset Voltage Selection
  9874                           ;	BORV = LO, Brown-out Reset Voltage (VBOR) set to 2.45V
  9875                           ;	Zero-cross detect disable
  9876                           ;	ZCD = OFF, Zero-cross detect circuit is disabled at POR.
  9877                           ;	Peripheral Pin Select one-way control
  9878                           ;	PPS1WAY = OFF, The PPSLOCK bit can be set and cleared repeatedly by software
  9879                           ;	Stack Overflow/Underflow Reset Enable bit
  9880                           ;	STVREN = OFF, Stack Overflow or Underflow will not cause a reset
  9881  8008                     	org	32776
  9882  8008  273F               	dw	10047
  9883                           
  9884                           ;Config register CONFIG3 @ 0x8009
  9885                           ;	WDT Period Select bits
  9886                           ;	WDTCPS = WDTCPS_31, Divider ratio 1:65536; software control of WDTPS
  9887                           ;	WDT operating mode
  9888                           ;	WDTE = SWDTEN, WDT enabled/disabled by SWDTEN bit in WDTCON0
  9889                           ;	WDT Window Select bits
  9890                           ;	WDTCWS = WDTCWS_7, window always open (100%); software control; keyed access not requi
      +                          red
  9891                           ;	WDT input clock selector
  9892                           ;	WDTCCS = SC, Software Control
  9893  8009                     	org	32777
  9894  8009  3FBF               	dw	16319
  9895                           
  9896                           ;Config register CONFIG4 @ 0x800A
  9897                           ;	Boot Block Size Selection bits
  9898                           ;	BBSIZE = BB512, 512 words boot block size
  9899                           ;	Boot Block Enable bit
  9900                           ;	BBEN = OFF, Boot Block disabled
  9901                           ;	SAF Enable bit
  9902                           ;	SAFEN = OFF, SAF disabled
  9903                           ;	Application Block Write Protection bit
  9904                           ;	WRTAPP = OFF, Application Block not write protected
  9905                           ;	Boot Block Write Protection bit
  9906                           ;	WRTB = OFF, Boot Block not write protected
  9907                           ;	Configuration Register Write Protection bit
  9908                           ;	WRTC = OFF, Configuration Register not write protected
  9909                           ;	Data EEPROM write protection bit
  9910                           ;	WRTD = OFF, Data EEPROM NOT write protected
  9911                           ;	Storage Area Flash Write Protection bit
  9912                           ;	WRTSAF = OFF, SAF not write protected
  9913                           ;	Low Voltage Programming Enable bit
  9914                           ;	LVP = ON, Low Voltage programming enabled. MCLR/Vpp pin function is MCLR.
  9915  800A                     	org	32778
  9916  800A  3FFF               	dw	16383
  9917                           
  9918                           ;Config register CONFIG5 @ 0x800B
  9919                           ;	UserNVM Program memory code protection bit
  9920                           ;	CP = OFF, UserNVM code protection disabled
  9921  800B                     	org	32779
  9922  800B  3FFF               	dw	16383

Data Sizes:
    Strings     0
    Constant    0
    Data        13
    BSS         111
    Persistent  32
    Stack       0

Auto Spaces:
    Space          Size  Autos    Used
    COMMON           14      6      10
    BANK0            80     43      43
    BANK1            80     19      59
    BANK2            80      0      80
    BANK3            80     26      26
    BANK4            80      0       0
    BANK5            80      0       0
    BANK6            80      0       0
    BANK7            80      0       0
    BANK8            80      0       0
    BANK9            80      0       0
    BANK10           80      0       0
    BANK11           80      0       0
    BANK12           80      0       0
    BANK13           80      0       0
    BANK14           80      0       0
    BANK15           80      0       0
    BANK16           80      0       0
    BANK17           80      0       0
    BANK18           80      0       0
    BANK19           80      0       0
    BANK20           80      0       0
    BANK21           80      0       0
    BANK22           80      0       0
    BANK23           80      0       0
    BANK24           80      0       0
    BANK25           32      0       0

Pointer List with Targets:

    S1560$4$1	PTR unsigned char  size(1) Largest target is 20
		 -> main@data(BANK3[20]), 

    S1560$3$1	PTR unsigned char  size(1) Largest target is 1
		 -> mDataLength(BANK1[1]), 

    S1560$3$0	PTR unsigned char  size(1) Largest target is 6
		 -> mData(BANK2[6]), 

    __builtin_memcpy$1	PTR const void  size(1) Largest target is 32
		 -> i2c1_rx_buffer(BANK2[32]), 

    __builtin_memcpy$0	PTR void  size(1) Largest target is 20
		 -> main@data(BANK3[20]), 

    frexp@eptr	PTR int  size(1) Largest target is 2
		 -> trunc@expon(BANK0[2]), 

    S1560sensorApi$UpdateThreshold	PTR FTN(unsigned char ,PTR unsigned char ,)void  size(2) Largest target is 1
		 -> Power_SetThreshold(), 

    sensorAPI.UpdateThreshold	PTR FTN(unsigned char ,PTR unsigned char ,)void  size(2) Largest target is 1
		 -> Power_SetThreshold(), 

    S1560sensorApi$GetData	PTR FTN(PTR unsigned char ,PTR unsigned char ,)void  size(2) Largest target is 1
		 -> Power_GetData(), 

    sensorAPI.GetData	PTR FTN(PTR unsigned char ,PTR unsigned char ,)void  size(2) Largest target is 1
		 -> Power_GetData(), 

    S1560sensorApi$Loop	PTR FTN()void  size(2) Largest target is 1
		 -> Power_Loop(), 

    sensorAPI.Loop	PTR FTN()void  size(2) Largest target is 1
		 -> Power_Loop(), 

    S1560sensorApi$Measure	PTR FTN()void  size(2) Largest target is 1
		 -> Power_Measure(), 

    sensorAPI.Measure	PTR FTN()void  size(2) Largest target is 1
		 -> Power_Measure(), 

    S1560sensorApi$Init	PTR FTN()void  size(2) Largest target is 1
		 -> Power_Init(), 

    sensorAPI.Init	PTR FTN()void  size(2) Largest target is 1
		 -> Power_Init(), 

    Power_SetThreshold@thresholdData	PTR unsigned char  size(1) Largest target is 20
		 -> main@data(BANK3[20]), 

    Power_GetData@data	PTR unsigned char  size(1) Largest target is 6
		 -> mData(BANK2[6]), 

    Power_GetData@length	PTR unsigned char  size(1) Largest target is 1
		 -> mDataLength(BANK1[1]), 

    ADCC_ADI_InterruptHandler	PTR FTN()void  size(2) Largest target is 1
		 -> Absolute function(), ADCC_DefaultInterruptHandler(), 

    SensorInterruptHandler	PTR FTN()void  size(2) Largest target is 1
		 -> DefaultSensorInterruptHandler(), 

    I2C1_SetTransmitData@data	PTR unsigned char  size(1) Largest target is 6
		 -> main@mnr(BANK3[1]), main@type(BANK3[1]), main@ack(BANK3[1]), mData(BANK2[6]), 

    I2C1_GetCommandData@len	PTR unsigned char  size(1) Largest target is 1
		 -> main@len(BANK3[1]), 

    sp____builtin_memcpy	PTR void  size(2) Largest target is 8192
		 -> RAM(DATA[8192]), 

    I2C1_GetCommandData@data	PTR unsigned char  size(1) Largest target is 20
		 -> main@data(BANK3[20]), 

    I2C1_GetCommand@cmd	PTR unsigned char  size(1) Largest target is 1
		 -> main@cmd(BANK3[1]), 


Critical Paths under _main in COMMON

    _main->_I2C1_GetCommand
    _main->_I2C1_GetCommandData
    _main->_Power_GetData
    _main->_SYSTEM_Initialize
    _SYSTEM_Initialize->_I2C1_Initialize
    _Power_SetThreshold->___lwtoft
    _Power_Loop->_ledBlink
    _trunc->_frexp
    ___ftmul->___lwtoft
    ___ftdiv->___lwtoft
    _Power_Init->_ledBlink

Critical Paths under _Interrupt_Handler in COMMON

    _Interrupt_Handler->_I2C1_ISR
    _I2C1_ISR->_I2C1_StatusCallback

Critical Paths under _main in BANK0

    _Power_SetThreshold->___ftdiv
    _measure->___ftmul
    _round->___ftmul
    _trunc->___altoft
    ___altoft->___fttol
    ___ftsub->_trunc
    ___ftadd->___ftpack
    ___lwtoft->___ftpack
    ___ftmul->___ftdiv
    ___ftdiv->___lwtoft

Critical Paths under _Interrupt_Handler in BANK0

    None.

Critical Paths under _main in BANK1

    _main->_Power_Loop
    _Power_Loop->_measure
    _measure->_round

Critical Paths under _Interrupt_Handler in BANK1

    None.

Critical Paths under _main in BANK2

    None.

Critical Paths under _Interrupt_Handler in BANK2

    None.

Critical Paths under _main in BANK3

    None.

Critical Paths under _Interrupt_Handler in BANK3

    None.

Critical Paths under _main in BANK4

    None.

Critical Paths under _Interrupt_Handler in BANK4

    None.

Critical Paths under _main in BANK5

    None.

Critical Paths under _Interrupt_Handler in BANK5

    None.

Critical Paths under _main in BANK6

    None.

Critical Paths under _Interrupt_Handler in BANK6

    None.

Critical Paths under _main in BANK7

    None.

Critical Paths under _Interrupt_Handler in BANK7

    None.

Critical Paths under _main in BANK8

    None.

Critical Paths under _Interrupt_Handler in BANK8

    None.

Critical Paths under _main in BANK9

    None.

Critical Paths under _Interrupt_Handler in BANK9

    None.

Critical Paths under _main in BANK10

    None.

Critical Paths under _Interrupt_Handler in BANK10

    None.

Critical Paths under _main in BANK11

    None.

Critical Paths under _Interrupt_Handler in BANK11

    None.

Critical Paths under _main in BANK12

    None.

Critical Paths under _Interrupt_Handler in BANK12

    None.

Critical Paths under _main in BANK13

    None.

Critical Paths under _Interrupt_Handler in BANK13

    None.

Critical Paths under _main in BANK14

    None.

Critical Paths under _Interrupt_Handler in BANK14

    None.

Critical Paths under _main in BANK15

    None.

Critical Paths under _Interrupt_Handler in BANK15

    None.

Critical Paths under _main in BANK16

    None.

Critical Paths under _Interrupt_Handler in BANK16

    None.

Critical Paths under _main in BANK17

    None.

Critical Paths under _Interrupt_Handler in BANK17

    None.

Critical Paths under _main in BANK18

    None.

Critical Paths under _Interrupt_Handler in BANK18

    None.

Critical Paths under _main in BANK19

    None.

Critical Paths under _Interrupt_Handler in BANK19

    None.

Critical Paths under _main in BANK20

    None.

Critical Paths under _Interrupt_Handler in BANK20

    None.

Critical Paths under _main in BANK21

    None.

Critical Paths under _Interrupt_Handler in BANK21

    None.

Critical Paths under _main in BANK22

    None.

Critical Paths under _Interrupt_Handler in BANK22

    None.

Critical Paths under _main in BANK23

    None.

Critical Paths under _Interrupt_Handler in BANK23

    None.

Critical Paths under _main in BANK24

    None.

Critical Paths under _Interrupt_Handler in BANK24

    None.

Critical Paths under _main in BANK25

    None.

Critical Paths under _Interrupt_Handler in BANK25

    None.

Call Graph Tables:

 ---------------------------------------------------------------------------------
 (Depth) Function   	        Calls       Base Space   Used Autos Params    Refs
 ---------------------------------------------------------------------------------
 (0) _main                                                28    28      0   52338
                                             17 BANK1      2     2      0
                                              0 BANK3     26    26      0
               _I2C1_CommandReceived
                    _I2C1_GetCommand
                _I2C1_GetCommandData
               _I2C1_SetTransmitData
                 _I2C1_TxBufferEmpty
                      _Power_GetData *
                         _Power_Init *
                         _Power_Loop *
                      _Power_Measure *
                 _Power_SetThreshold *
                  _SYSTEM_Initialize
                          _toggleInt
 ---------------------------------------------------------------------------------
 (1) _toggleInt                                            0     0      0       0
 ---------------------------------------------------------------------------------
 (1) _SYSTEM_Initialize                                    1     1      0     110
                                              5 COMMON     1     1      0
                    _I2C1_Initialize
              _OSCILLATOR_Initialize
                     _PMD_Initialize
 ---------------------------------------------------------------------------------
 (2) _PMD_Initialize                                       0     0      0       0
 ---------------------------------------------------------------------------------
 (2) _OSCILLATOR_Initialize                                0     0      0       0
 ---------------------------------------------------------------------------------
 (2) _I2C1_Initialize                                      1     1      0      55
                                              4 COMMON     1     1      0
 ---------------------------------------------------------------------------------
 (1) _Power_SetThreshold                                   7     5      2   10150
                                             27 BANK0      7     5      2
                           _WDT_Init
                            ___ftdiv
                           ___lwtoft
 ---------------------------------------------------------------------------------
 (2) _WDT_Init                                             0     0      0       0
 ---------------------------------------------------------------------------------
 (1) _Power_Measure                                        0     0      0       0
 ---------------------------------------------------------------------------------
 (1) _Power_Loop                                           2     2      0   38921
                                             15 BANK1      2     2      0
                         _enterSleep
                   _generateIntPower
                           _ledBlink
                            _measure
 ---------------------------------------------------------------------------------
 (2) _measure                                              9     9      0   38921
                                              6 BANK1      9     9      0
           _ADCC_GetSingleConversion
                            ___ftdiv
                             ___ftge
                            ___ftmul
                            ___fttol
                           ___lwtoft
                              _round
 ---------------------------------------------------------------------------------
 (3) _round                                                6     3      3   21207
                                              0 BANK1      6     3      3
                            ___ftadd
                            ___ftmul (ARG)
                            ___ftsub
                              _trunc
 ---------------------------------------------------------------------------------
 (4) _trunc                                                9     6      3    6937
                                             22 BANK0      9     6      3
                           ___altoft
                            ___fttol
                              _frexp
 ---------------------------------------------------------------------------------
 (5) _frexp                                                6     2      4     762
                                              4 COMMON     2     2      0
                                              0 BANK0      4     0      4
 ---------------------------------------------------------------------------------
 (5) ___fttol                                             14    10      4    1032
                                              0 BANK0     14    10      4
 ---------------------------------------------------------------------------------
 (5) ___altoft                                             8     4      4    4450
                                             14 BANK0      8     4      4
                           ___ftpack
                            ___fttol (ARG)
 ---------------------------------------------------------------------------------
 (4) ___ftsub                                              6     0      6    7075
                                             31 BANK0      6     0      6
                            ___ftadd
                              _trunc (ARG)
 ---------------------------------------------------------------------------------
 (5) ___ftadd                                             13     7      6    6682
                                              8 BANK0     13     7      6
                           ___ftpack
 ---------------------------------------------------------------------------------
 (2) ___lwtoft                                             4     1      3    4333
                                              4 COMMON     1     1      0
                                              8 BANK0      3     0      3
                           ___ftpack
 ---------------------------------------------------------------------------------
 (3) ___ftmul                                             16    10      6    5773
                                             27 BANK0     16    10      6
                            ___ftdiv (ARG)
                           ___ftpack
                           ___lwtoft (ARG)
 ---------------------------------------------------------------------------------
 (3) ___ftge                                               6     0      6     726
                                              0 BANK0      6     0      6
 ---------------------------------------------------------------------------------
 (2) ___ftdiv                                             16    10      6    5425
                                             11 BANK0     16    10      6
                           ___ftpack
                           ___lwtoft (ARG)
 ---------------------------------------------------------------------------------
 (3) ___ftpack                                             8     3      5    3951
                                              0 BANK0      8     3      5
 ---------------------------------------------------------------------------------
 (3) _ADCC_GetSingleConversion                             4     1      3      55
                                              4 COMMON     1     1      0
                                              0 BANK0      3     0      3
 ---------------------------------------------------------------------------------
 (2) _generateIntPower                                     1     1      0       0
                                              4 COMMON     1     1      0
 ---------------------------------------------------------------------------------
 (2) _enterSleep                                           0     0      0       0
 ---------------------------------------------------------------------------------
 (1) _Power_Init                                           0     0      0       0
                           _ADC_Init
                           _ledBlink
 ---------------------------------------------------------------------------------
 (2) _ledBlink                                             2     2      0       0
                                              4 COMMON     2     2      0
 ---------------------------------------------------------------------------------
 (2) _ADC_Init                                             0     0      0       0
 ---------------------------------------------------------------------------------
 (1) _Power_GetData                                        3     1      2     557
                                              4 COMMON     2     0      2
                                              0 BANK0      1     1      0
 ---------------------------------------------------------------------------------
 (1) _I2C1_TxBufferEmpty                                   0     0      0       0
 ---------------------------------------------------------------------------------
 (1) _I2C1_SetTransmitData                                 4     3      1    1014
                                              0 BANK0      4     3      1
 ---------------------------------------------------------------------------------
 (1) _I2C1_GetCommandData                                  3     2      1     262
                                              4 COMMON     2     1      1
                                              0 BANK0      1     1      0
 ---------------------------------------------------------------------------------
 (1) _I2C1_GetCommand                                      2     2      0      94
                                              4 COMMON     2     2      0
 ---------------------------------------------------------------------------------
 (1) _I2C1_CommandReceived                                 0     0      0       0
 ---------------------------------------------------------------------------------
 Estimated maximum stack depth 5
 ---------------------------------------------------------------------------------
 (Depth) Function   	        Calls       Base Space   Used Autos Params    Refs
 ---------------------------------------------------------------------------------
 (7) _Interrupt_Handler                                    0     0      0      46
                           _ADCC_ISR
      _DefaultSensorInterruptHandler *
                           _I2C1_ISR
 ---------------------------------------------------------------------------------
 (8) _I2C1_ISR                                             2     2      0      46
                                              2 COMMON     2     2      0
                _I2C1_StatusCallback
 ---------------------------------------------------------------------------------
 (9) _I2C1_StatusCallback                                  2     2      0      22
                                              0 COMMON     2     2      0
 ---------------------------------------------------------------------------------
 (8) _DefaultSensorInterruptHandler                        0     0      0       0
 ---------------------------------------------------------------------------------
 (8) _ADCC_ISR                                             0     0      0       0
                   Absolute function *
       _ADCC_DefaultInterruptHandler *
 ---------------------------------------------------------------------------------
 (9) _ADCC_DefaultInterruptHandler                         0     0      0       0
 ---------------------------------------------------------------------------------
 (9) Absolute function(Fake)                               0     0      0       0
 ---------------------------------------------------------------------------------
 Estimated maximum stack depth 9
 ---------------------------------------------------------------------------------

 Call Graph Graphs:

 _main (ROOT)
   _I2C1_CommandReceived
   _I2C1_GetCommand
   _I2C1_GetCommandData
   _I2C1_SetTransmitData
   _I2C1_TxBufferEmpty
   _Power_GetData *
   _Power_Init *
     _ADC_Init
     _ledBlink
   _Power_Loop *
     _enterSleep
     _generateIntPower
     _ledBlink
     _measure
       _ADCC_GetSingleConversion
       ___ftdiv
         ___ftpack
         ___lwtoft (ARG)
           ___ftpack
       ___ftge
       ___ftmul
         ___ftdiv (ARG)
           ___ftpack
           ___lwtoft (ARG)
             ___ftpack
         ___ftpack (ARG)
         ___lwtoft (ARG)
           ___ftpack
       ___fttol
       ___lwtoft
         ___ftpack
       _round
         ___ftadd
           ___ftpack
         ___ftmul (ARG)
           ___ftdiv (ARG)
             ___ftpack
             ___lwtoft (ARG)
               ___ftpack
           ___ftpack (ARG)
           ___lwtoft (ARG)
             ___ftpack
         ___ftsub (ARG)
           ___ftadd
             ___ftpack
           _trunc (ARG)
             ___altoft
               ___ftpack
               ___fttol (ARG)
             ___fttol
             _frexp
         _trunc (ARG)
           ___altoft
             ___ftpack
             ___fttol (ARG)
           ___fttol
           _frexp
   _Power_Measure *
   _Power_SetThreshold *
     _WDT_Init
     ___ftdiv
       ___ftpack
       ___lwtoft (ARG)
         ___ftpack
     ___lwtoft
       ___ftpack
   _SYSTEM_Initialize *
     _I2C1_Initialize
     _OSCILLATOR_Initialize
     _PMD_Initialize
   _toggleInt *

 _Interrupt_Handler (ROOT)
   _ADCC_ISR
     Absolute function(Fake) *
     _ADCC_DefaultInterruptHandler *
   _DefaultSensorInterruptHandler *
   _I2C1_ISR *
     _I2C1_StatusCallback

 Address spaces:
Name               Size   Autos  Total    Cost      Usage
BIGRAM             7F0      0       0       0        0.0%
EEDATA             100      0       0       0        0.0%
NULL                 0      0       0       0        0.0%
CODE                 0      0       0       0        0.0%
BITCOMMON            E      0       0       1        0.0%
BITSFR0              0      0       0       1        0.0%
SFR0                 0      0       0       1        0.0%
COMMON               E      6       A       2       71.4%
BITSFR1              0      0       0       2        0.0%
SFR1                 0      0       0       2        0.0%
BITSFR2              0      0       0       3        0.0%
SFR2                 0      0       0       3        0.0%
STACK                0      0       0       3        0.0%
BITBANK0            50      0       0       4        0.0%
BITSFR3              0      0       0       4        0.0%
SFR3                 0      0       0       4        0.0%
BANK0               50     2B      2B       5       53.8%
BITSFR4              0      0       0       5        0.0%
SFR4                 0      0       0       5        0.0%
BITSFR5              0      0       0       6        0.0%
SFR5                 0      0       0       6        0.0%
ABS                  0      0      DA       6        0.0%
BITBANK1            50      0       0       7        0.0%
BITSFR6              0      0       0       7        0.0%
SFR6                 0      0       0       7        0.0%
BANK1               50     13      3B       8       73.8%
BITSFR7              0      0       0       8        0.0%
SFR7                 0      0       0       8        0.0%
BITBANK2            50      0       0       9        0.0%
BITSFR8              0      0       0       9        0.0%
SFR8                 0      0       0       9        0.0%
BANK2               50      0      50      10      100.0%
BITSFR9              0      0       0      10        0.0%
SFR9                 0      0       0      10        0.0%
BITBANK3            50      0       0      11        0.0%
BITSFR10             0      0       0      11        0.0%
SFR10                0      0       0      11        0.0%
BANK3               50     1A      1A      12       32.5%
BITSFR11             0      0       0      12        0.0%
SFR11                0      0       0      12        0.0%
BITBANK4            50      0       0      13        0.0%
BITSFR12             0      0       0      13        0.0%
SFR12                0      0       0      13        0.0%
BANK4               50      0       0      14        0.0%
BITSFR13             0      0       0      14        0.0%
SFR13                0      0       0      14        0.0%
BITBANK5            50      0       0      15        0.0%
BITSFR14             0      0       0      15        0.0%
SFR14                0      0       0      15        0.0%
BANK5               50      0       0      16        0.0%
BITSFR15             0      0       0      16        0.0%
SFR15                0      0       0      16        0.0%
BITBANK6            50      0       0      17        0.0%
BITSFR16             0      0       0      17        0.0%
SFR16                0      0       0      17        0.0%
BANK6               50      0       0      18        0.0%
BITSFR17             0      0       0      18        0.0%
SFR17                0      0       0      18        0.0%
BITBANK7            50      0       0      19        0.0%
BITSFR18             0      0       0      19        0.0%
SFR18                0      0       0      19        0.0%
BANK7               50      0       0      20        0.0%
BITSFR19             0      0       0      20        0.0%
SFR19                0      0       0      20        0.0%
BITBANK8            50      0       0      21        0.0%
BITSFR20             0      0       0      21        0.0%
SFR20                0      0       0      21        0.0%
BANK8               50      0       0      22        0.0%
BITSFR21             0      0       0      22        0.0%
SFR21                0      0       0      22        0.0%
BITBANK9            50      0       0      23        0.0%
BITSFR22             0      0       0      23        0.0%
SFR22                0      0       0      23        0.0%
BANK9               50      0       0      24        0.0%
BITSFR23             0      0       0      24        0.0%
SFR23                0      0       0      24        0.0%
BITBANK10           50      0       0      25        0.0%
BITSFR24             0      0       0      25        0.0%
SFR24                0      0       0      25        0.0%
BANK10              50      0       0      26        0.0%
BITSFR25             0      0       0      26        0.0%
SFR25                0      0       0      26        0.0%
BITBANK11           50      0       0      27        0.0%
BITSFR26             0      0       0      27        0.0%
SFR26                0      0       0      27        0.0%
BANK11              50      0       0      28        0.0%
BITSFR27             0      0       0      28        0.0%
SFR27                0      0       0      28        0.0%
BITBANK12           50      0       0      29        0.0%
BITSFR28             0      0       0      29        0.0%
SFR28                0      0       0      29        0.0%
BANK12              50      0       0      30        0.0%
BITSFR29             0      0       0      30        0.0%
SFR29                0      0       0      30        0.0%
BITBANK13           50      0       0      31        0.0%
BITSFR30             0      0       0      31        0.0%
SFR30                0      0       0      31        0.0%
BANK13              50      0       0      32        0.0%
BITSFR31             0      0       0      32        0.0%
SFR31                0      0       0      32        0.0%
BITBANK14           50      0       0      33        0.0%
BITSFR32             0      0       0      33        0.0%
SFR32                0      0       0      33        0.0%
BANK14              50      0       0      34        0.0%
BITSFR33             0      0       0      34        0.0%
SFR33                0      0       0      34        0.0%
BITBANK15           50      0       0      35        0.0%
BITSFR34             0      0       0      35        0.0%
SFR34                0      0       0      35        0.0%
BANK15              50      0       0      36        0.0%
BITSFR35             0      0       0      36        0.0%
SFR35                0      0       0      36        0.0%
BITBANK16           50      0       0      37        0.0%
BITSFR36             0      0       0      37        0.0%
SFR36                0      0       0      37        0.0%
BANK16              50      0       0      38        0.0%
BITSFR37             0      0       0      38        0.0%
SFR37                0      0       0      38        0.0%
BITBANK17           50      0       0      39        0.0%
BITSFR38             0      0       0      39        0.0%
SFR38                0      0       0      39        0.0%
BANK17              50      0       0      40        0.0%
BITSFR39             0      0       0      40        0.0%
SFR39                0      0       0      40        0.0%
BITBANK18           50      0       0      41        0.0%
BITSFR40             0      0       0      41        0.0%
SFR40                0      0       0      41        0.0%
BANK18              50      0       0      42        0.0%
BITSFR41             0      0       0      42        0.0%
SFR41                0      0       0      42        0.0%
BITBANK19           50      0       0      43        0.0%
BITSFR42             0      0       0      43        0.0%
SFR42                0      0       0      43        0.0%
BANK19              50      0       0      44        0.0%
BITSFR43             0      0       0      44        0.0%
SFR43                0      0       0      44        0.0%
BITBANK20           50      0       0      45        0.0%
BITSFR44             0      0       0      45        0.0%
SFR44                0      0       0      45        0.0%
BANK20              50      0       0      46        0.0%
BITSFR45             0      0       0      46        0.0%
SFR45                0      0       0      46        0.0%
BITBANK21           50      0       0      47        0.0%
BITSFR46             0      0       0      47        0.0%
SFR46                0      0       0      47        0.0%
BANK21              50      0       0      48        0.0%
BITSFR47             0      0       0      48        0.0%
SFR47                0      0       0      48        0.0%
BITBANK22           50      0       0      49        0.0%
BITSFR48             0      0       0      49        0.0%
SFR48                0      0       0      49        0.0%
BANK22              50      0       0      50        0.0%
BITSFR49             0      0       0      50        0.0%
SFR49                0      0       0      50        0.0%
BITBANK23           50      0       0      51        0.0%
BITSFR50             0      0       0      51        0.0%
SFR50                0      0       0      51        0.0%
BANK23              50      0       0      52        0.0%
BITSFR51             0      0       0      52        0.0%
SFR51                0      0       0      52        0.0%
BITBANK24           50      0       0      53        0.0%
BITSFR52             0      0       0      53        0.0%
SFR52                0      0       0      53        0.0%
BANK24              50      0       0      54        0.0%
BITSFR53             0      0       0      54        0.0%
SFR53                0      0       0      54        0.0%
BITBANK25           20      0       0      55        0.0%
BITSFR54             0      0       0      55        0.0%
SFR54                0      0       0      55        0.0%
BANK25              20      0       0      56        0.0%
BITSFR55             0      0       0      56        0.0%
SFR55                0      0       0      56        0.0%
BITSFR56             0      0       0      57        0.0%
SFR56                0      0       0      57        0.0%
DATA                 0      0      DA      57        0.0%
BITSFR57             0      0       0      58        0.0%
SFR57                0      0       0      58        0.0%
BITSFR58             0      0       0      59        0.0%
SFR58                0      0       0      59        0.0%
BITSFR59             0      0       0      60        0.0%
SFR59                0      0       0      60        0.0%
BITSFR60             0      0       0      61        0.0%
SFR60                0      0       0      61        0.0%
BITSFR61             0      0       0      62        0.0%
SFR61                0      0       0      62        0.0%
BITSFR62             0      0       0      63        0.0%
SFR62                0      0       0      63        0.0%
BITSFR63             0      0       0      64        0.0%
SFR63                0      0       0      64        0.0%


Microchip Technology PIC Macro Assembler V2.31 build 20201012212115 
Symbol Table                                                                                   Wed Nov 25 13:42:28 2020

                          ___altoft@exp 0034                           ___altoft@sign 0035  
                                    l63 0D9B                                      l81 0C6E  
                                    l84 0C84                                      l78 0C42  
                                    l87 0D0A                                      l95 0DC5  
                   ??_Interrupt_Handler 0074            __size_of_I2C1_GetCommandData 001F  
                          ___ftadd@exp1 0034                            ___ftadd@exp2 0033  
                          ___ftadd@sign 0032                                     l220 0C4C  
                                   l214 0D4C                                     l223 0CC0  
                                   l324 0CC9                                     l327 0CD5  
                                   l512 07FF                       ??_I2C1_GetCommand 0074  
                                   l522 0C91                                     l515 0C66  
                                   l620 0FBC                                     l612 0FCC  
                                   l541 056E                                     l605 0D6D  
                                   l613 0FB7                                     l606 0D73  
                                   l518 0C85                                     l526 0065  
                                   l630 0FD3                                     l622 0FBE  
                                   l614 0FAC                                     l551 05B4  
                                   l543 057C                                     l535 01EB  
                                   l711 0C9E                                     l553 05C2  
                                   l545 058A                                     l609 0C46  
                                   l562 05FA                                     l538 055E  
                                   l634 0FF8                                     l555 05D0  
                                   l547 0598                                     l627 0FC8  
                                   l636 0FFF                                     l557 05DE  
                                   l549 05A6                                     l565 0C5F  
                                   l645 06F3                                     l709 0C92  
                                   l639 0F47                                     l559 05EC  
                                   l647 06F6                                     l691 0358  
                                   l687 03E8                                     l966 0EB7  
                                   mcp0 0D01                 __size_of_PMD_Initialize 0013  
                                   wreg 0009                            ___ftdiv@cntr 0035  
                      __end_of_I2C1_ISR 0E76                            ___ftdiv@sign 003A  
                                  l1106 02AE                                    l1123 055D  
                                  l1132 0E36                                    l1071 076B  
                                  l1304 0DFD                                    l1082 0749  
                                  l1138 04AB                                    l1083 0753  
                                  l1075 0730                                    l1155 0D2B  
                                  l1084 076B                                    l1092 030B  
                                  l1166 0662                                    l1095 0236  
                                  l1159 067F                                    l1096 0240  
                                  l1097 0245                                    l1291 07DD  
                                  l1286 0CEB                                    l5000 0473  
                                  l1297 0EFE                                    l5010 048D  
                                  l5002 0477                                    l5012 0493  
                                  l5004 047B                                    l5100 0C65  
                                  l5020 0D75                                    l5102 0C87  
                                  l5006 0481                                    l5110 0063  
                                  l5030 0D8E                                    l5022 0D7D  
                                  l5200 0C82                                    l5104 0C8F  
                                  l5008 0487                                    l5016 0CD6  
                                  l5120 0097                                    l5112 006E  
                                  l5040 0D97                                    l5032 0D8F  
                                  l5024 0D88                                    l5202 0CEE  
                                  l5130 00E0                                    l5122 00A1  
                                  l5114 0072                                    l5106 005D  
                                  l5042 0D98                                    l5034 0D92  
                                  l5026 0D8A                                    l5050 0C47  
                                  l5204 0D02                                    l5060 07E6  
                                  l5052 07DE                                    l5140 0152  
                                  l5132 00ED                                    l5124 00A5  
                                  l5116 007E                                    l5108 0060  
                                  l5300 0F9B                                    l5044 0D99  
                                  l5036 0D94                                    l5028 0D8C  
                                  l5220 0D2D                                    l5070 07EB  
                                  l5062 07E7                                    l5054 07E1  
                                  l5150 01DA                                    l5142 0155  
                                  l5134 00F9                                    l5126 00DD  
                                  l5118 008B                                    l5310 0FB1  
                                  l5302 0FA1                                    l5038 0D96  
                                  l5046 0CAE                                    l5230 0D39  
                                  l5222 0D33                                    l5080 07F1  
                                  l5072 07EC                                    l5064 07E8  
                                  l5056 07E3                                    l5160 01E8  
                                  l5152 01DE                                    l5144 0180  
                                  l5136 0131                                    l5128 00DF  
                                  l5320 0FC5                                    l5312 0FB4  
                                  l5304 0FA6                                    l5048 0CB1  
                                  l5240 0D3F                                    l5232 0D3A  
                                  l5224 0D35                                    l5090 07F6  
                                  l5082 07F2                                    l5074 07ED  
                                  l5066 07E9                                    l5058 07E5  
                                  l5170 0588                                    l5162 01E9  
                                  l5154 01E2                                    l5146 0196  
                                  l5138 0133                                    l5330 0FDB  
                                  l5322 0FC7                                    l5314 0FBB  
                                  l5306 0FA7                                    l5250 0D4A  
                                  l5242 0D41                                    l5234 0D3C  
                                  l5226 0D37                                    l5092 07F9  
                                  l5084 07F3                                    l5076 07EF  
                                  l5068 07EA                                    l5180 05CE  
                                  l5172 0596                                    l5164 0560  
                                  l5260 0D55                                    l4700 0737  
                                  l5156 01E6                                    l5148 01D6  
                                  l5340 0FF6                                    l5332 0FE0  
                                  l5324 0FC9                                    l5316 0FBF  
                                  l5308 0FAE                                    l5252 0D4B  
                                  l5244 0D43                                    l5236 0D3D  
                                  l5228 0D38                                    l5190 0C40  
                                  l5430 0DB3                                    l5350 0F26  
                                  l5094 07FA                                    l5086 07F4  
                                  l5078 07F0                                    l5182 05DC  
                                  l5174 05A4                                    l5166 056C  
                                  l5270 0D5D                                    l5262 0D57  
                                  l5254 0D4D                                    l4710 0765  
                                  l4702 073F                                    l5158 01E7  
                                  l5342 0FF9                                    l5334 0FE3  
                                  l5326 0FD1                                    l5318 0FC2  
                                  l5246 0D45                                    l5238 0D3E  
                                  l5432 0DB9                                    l5424 0D9E  
                                  l5352 0F31                                    l5096 07FD  
                                  l5088 07F5                                    l5184 05EA  
                                  l5176 05B2                                    l5168 057A  
                                  l5280 0D63                                    l5272 0D5E  
                                  l5264 0D58                                    l5256 0D50  
                                  l4712 076A                                    l4704 0743  
                                  l4720 0E80                                    l4800 05FB  
                                  l5336 0FE6                                    l5328 0FD5  
                                  l5344 0FFC                                    l5360 068F  
                                  l5248 0D46                                    l5440 0316  
                                  l5434 0DBF                                    l5426 0D9F  
                                  l5194 0C67                                    l5354 0F3C  
                                  l5346 0EFF                                    l5186 05F8  
                                  l5178 05C0                                    l5290 0D69  
                                  l5282 0D65                                    l5274 0D5F  
                                  l5266 0D5A                                    l5258 0D53  
                                  l4706 074D                                    l4730 01EC  
                                  l4722 0E8E                                    l4714 0E76  
                                  l4810 0627                                    l4802 060D  
                                  l5338 0FE9                                    l5098 0C60  
                                  l5370 06E3                                    l5362 06AC  
                                  l5450 034A                                    l5442 0320  
                                  l5436 0DC4                                    l5428 0DAF  
                                  l5348 0F1B                                    l5292 0D6A  
                                  l5284 0D66                                    l5276 0D60  
                                  l5268 0D5B                                    l5188 0C59  
                                  l4708 0755                                    l4740 0221  
                                  l4732 020A                                    l4724 0E99  
                                  l4716 0E78                                    l4812 062D  
                                  l4900 07C3                                    l5372 06E9  
                                  l5364 06D4                                    l5356 0680  
                                  l5460 0370                                    l5452 0350  
                                  l5444 0333                                    l5198 0C7A  
                                  l5294 0D6C                                    l5286 0D67  
                                  l5278 0D62                                    l4910 04C5  
                                  l4750 023F                                    l4742 0226  
                                  l4734 0210                                    l4726 0E9F  
                                  l4718 0E7C                                    l4814 0634  
                                  l4806 0616                                    l5374 06EE  
                                  l5366 06DA                                    l5358 0686  
                                  l5470 039C                                    l5462 037B  
                                  l5454 035A                                    l5446 033D  
                                  l5438 030C                                    l5296 0D70  
                                  l5288 0D68                                    l4920 04E8  
                                  l4912 04D6                                    l4904 04AC  
                                  l4760 0261                                    l4752 0244  
                                  l4744 022C                                    l4736 021A  
                                  l4832 0659                                    l4824 0642  
                                  l4816 0636                                    l4808 0626  
                                  l5368 06DF                                    l5376 0C92  
                                  l5472 03A0                                    l5464 0382  
                                  l5456 0362                                    l5448 0345  
                                  l4690 070B                                    l4682 06F7  
                                  l4930 051E                                    l4922 04F8  
                                  l4906 04BE                                    l4770 0287  
                                  l4762 0267                                    l4754 0246  
                                  l4746 0237                                    l4834 0667  
                                  l4818 063A                                    l4826 0652  
                                  l4850 0DEF                                    l4842 0DC6  
                                  l5298 0C43                                    l5474 03A9  
                                  l5466 038B                                    l5458 0368  
                                  l5482 03D0                                    l4692 0715  
                                  l4684 06FD                                    l4940 053F  
                                  l4932 0524                                    l4924 0508  
                                  l4916 04DD                                    l4780 02B2  
                                  l4772 028F                                    l4764 0270  
                                  l4756 024C                                    l4748 023B  
                                  l4860 0D13                                    l4836 066C  
                                  l4852 0DF8                                    l4844 0DCE  
                                  l5476 03B2                                    l5468 0393  
                                  l4694 071C                                    l4686 0704  
                                  l4942 0545                                    l4934 0532  
                                  l4926 050C                                    l4918 04E3  
                                  l4950 0E10                                    l4790 02DD  
                                  l4782 02C2                                    l4774 0295  
                                  l4766 027A                                    l4758 0259  
                                  l4862 0D15                                    l4838 0677  
                                  l4854 0DFC                                    l4870 0ECB  
                                  l5478 03B9                                    l4696 0720  
                                  l4936 0538                                    l4928 0513  
                                  l4960 0E33                                    l4952 0E14  
                                  l4792 02E1                                    l4784 02C6  
                                  l4776 029E                                    l4768 0281  
                                  l4848 0DD5                                    l4880 0EF8  
                                  l4890 0CC8                                    l4698 072A  
                                  l4938 0539                                    l4962 0E35  
                                  l4954 0E21                                    l4946 0DFE  
                                  l4794 02F1                                    l4786 02D6  
                                  l4778 02A8                                    l4858 0D0B  
                                  l4874 0ED2                                    l4866 0EB8  
                                  l4892 0CCD                                    l4884 0CC2  
                                  l4956 0E23                                    l4948 0E03  
                                  l4980 0445                                    l4972 0404  
                                  l4796 02F3                                    l4788 02D7  
                                  l4876 0EDB                                    l4868 0EC6  
                                  l4886 0CC5                                    l4958 0E25  
                                  l4990 0457                                    l4982 0446  
                                  l4974 0415                                    l4966 03EB  
                                  l4878 0EDC                                    l4888 0CC7  
                                  l4992 045B                                    l4984 0447  
                                  l4968 03FD                                    l4896 076C  
                                  l4994 0461                                    l4986 044D  
                                  l4978 041C                                    l4898 079D  
                                  l4996 0467                                    l4988 0453  
                                  l4998 046D                  _floatBatThresholdLevel 00A6  
                                  _LATA 0018                                    _LATB 0019  
                                  _LATC 001A                                    u5000 0E33  
                                  u5001 0E32                                    u5010 03FD  
                                  u5011 03FC                                    u5020 0415  
                                  u5005 0E2F                                    u5021 0414  
                                  u5030 042B                                    u4400 071B  
                                  u5120 0493                                    u5040 043B  
                                  u5200 0FA1                                    u4401 071A  
                                  u5121 0492                                    u5105 0482  
                                  u5201 0FA0                                    u5050 045B  
                                  u5130 00A1                                    u5210 0FA6  
                                  u5115 0488                                    u5051 045A  
                                  u5035 0428                                    u5131 00A0  
                                  u5211 0FA5                                    u4420 0736  
                                  u5140 0152                                    u5220 0FAC  
                                  u5300 06E9                                    u4421 0735  
                                  u5045 0438                                    u5141 0151  
                                  u5221 0FAB                                    u5301 06E8  
                                  u5150 0C6D                                    u4510 0E9F  
                                  u5230 0FBB                                    u5310 06EE  
                                  u5151 0C6B                                    u4415 072B  
                                  u4511 0E9E                                    u5135 009D  
                                  u5231 0FBA                                    u5311 06ED  
                                  u5160 0C6E                                    u4440 0743  
                                  u5080 0473                                    u4600 0259  
                                  u4520 020A                                    u5240 0FD1  
                                  u5320 0C9C                                    u5400 0345  
                                  u4441 0742                                    u5081 0472  
                                  u5065 0462                                    u4601 0258  
                                  u4521 0209                                    u4505 0E8F  
                                  u5241 0FD0                                    u5321 0C99  
                                  u5401 0344                                    u4450 0749  
                                  u4370 06FD                                    u5090 047B  
                                  u4530 0210                                    u5250 0FDB  
                                  u5410 0393                                    u4451 0748  
                                  u4435 073A                                    u4371 06FC  
                                  u5091 047A                                    u5075 0468  
                                  u4531 020F                                    u5251 0FDA  
                                  u5411 0392                                    u4460 074D  
                                  u4380 0704                                    u4620 0267  
                                  u4540 021A                                    u5260 0FE0  
                                  u5420 039B                                    _PMD0 0796  
                                  u4461 074C                                    u4381 0703  
                                  u4621 0266                                    u4541 0219  
                                  u5261 0FDF                                    u5421 039A  
                                  _PMD1 0797                                    u4470 075D  
                                  u4710 02AE                                    u4630 026F  
                                  u4550 0226                                    u5270 0686  
                                  u5334 0C9E                                    u5430 03B9  
                                  _PMD2 0798                                    u4711 02AD  
                                  u4631 026E                                    u4615 025A  
                                  u4551 0225                                    u5271 0685  
                                  u5431 03B8                                    _PMD3 0799  
                                  u4480 076A                                    u4720 02B2  
                                  u4560 022C                                    u4800 0651  
                                  u5280 06DA                                    _PMD4 079A  
                                  u4481 0769                                    u4721 02B1  
                                  u4705 029F                                    u4561 022B  
                                  u4801 0650                                    u5281 06D9  
                                  _PMD5 079B                                    u4730 02C6  
                                  u4650 0280                                    u4570 0236  
                                  u4490 0E80                                    u4810 0658  
                                  u5290 06DF                                    _PMD6 079C  
                                  u5507 0C8A                                    u4475 075A  
                                  u4395 0710                                    u4731 02C5  
                                  u4651 027F                                    u4571 0235  
                                  u4491 0E7F                                    u4811 0657  
                                  u5291 06DE                                    _PMD7 079D  
                                  u5380 0DB9                                    u4900 04BE  
                                  u4740 02E1                                    u4660 0287  
                                  u4580 023F                                    u5381 0DB8  
                                  u5517 0565                                    u4901 04BD  
                                  u4741 02E0                                    u4661 0286  
                                  u4645 0271                                    u4581 023E  
                                  u5390 0DBF                                    u4910 04D6  
                                  u4590 0244                                    u4830 0667  
                                  u4750 060D                                    u5391 0DBE  
                                  u5607 05E3                                    u5527 0573  
                                  u4911 04D5                                    u4591 0243  
                                  u4831 0666                                    u4751 060C  
                                  u5447 0386                                    i1l72 0E6A  
                                  u4920 04F2                                    u4680 0295  
                                  u4840 066C                                    u4760 0620  
                                  u5617 05F1                                    u5537 0581  
                                  u4681 0294                                    u4841 066B  
                                  u4825 065A                                    u5457 03A4  
                                  i1l66 0E57                                    u4930 0502  
                                  u4690 029D                                    u4770 063A  
                                  u4850 0DCE                                    i1l75 0E75  
                                  u5547 058F                                    u4691 029C  
                                  u4675 0288                                    u4771 0639  
                                  u4851 0DCD                                    u5467 0FEF  
                                  u4860 0D13                                    u4780 0641  
                                  i1l69 0E6F                                    u5557 059D  
                                  u4925 04EF                                    u4861 0D12  
                                  u4781 0640                                    u4765 061D  
                                  u5477 0069                                    u4950 0532  
                                  u4870 0ECB                                    u5567 05AB  
                                  u4951 0531                                    u4935 04FF  
                                  u4871 0ECA                                    u5487 0084  
                                  u4880 0EDB                                    u5577 05B9  
                                  u4945 051F                                    u4881 0EDA  
                                  u5497 00E4                                    u4890 0CCD  
                                  u4970 0545                                    u5587 05C7  
                                  u4891 0CCC                                    u4971 0544  
                                  u4955 052E                                    u4795 0643  
                                  u4980 0E03                                    u5597 05D5  
                                  u4965 053A                                    u4981 0E02  
                                  u4990 0E14                                    u4991 0E13  
             __end_of_Interrupt_Handler 002B                        __end_of_ADCC_ISR 0CAE  
                                  _main 030C                            ___ftpack@arg 0020  
                          ___ftpack@exp 0023                                    mcp0b 0CF3  
                                  mcp0z 0D02                                    fsr0h 0005  
                                  fsr1h 0007                                    indf0 0000  
                                  fsr0l 0004                                    indf1 0001  
                                  fsr1l 0006                                    btemp 007E  
                           main@retries 01B4                        __end_of_ADC_Init 0800  
                                  start 002B                            ___ftmul@cntr 0049  
                          ___ftmul@sign 004A                     _I2C1_StatusCallback 0F48  
                          ___fttol@exp1 002D                            ___fttol@lval 0029  
        __size_of_OSCILLATOR_Initialize 0006           __end_of_OSCILLATOR_Initialize 0C4D  
                     Power_GetData@data 0074                                   _ADCAP 010E  
                                 _ADACT 0117                                   ?_main 0070  
                                 _ADCLK 0118                                   _ADCNT 0099  
                                 _ADPCH 009F                                   _ADREF 0116  
                       __end_of___ftadd 030C                                   _ADRPT 009A  
                       __end_of___ftdiv 055E                         __end_of___ftmul 04AC  
                       __end_of___ftsub 0D2C                         __end_of___fttol 0680  
                                 i1l104 0F4A                                   i1l118 0F9A  
                                 i1l142 001D                                   i1l143 0029  
                                 i1l153 0C3E                                   i1l403 0C3D  
                                 i1l147 0029                                   i1l397 0CAD  
                                 u517m0 0CFC                                   u517m1 0D02  
                                 _TRISA 0012                                   _TRISB 0013  
                                 _TRISC 0014                 _floatVoltageLDRMeasured 00A9  
                      _generateIntPower 0C85                       ??_I2C1_Initialize 0074  
              Power_SetThreshold@metric 003B                    ?_I2C1_StatusCallback 0070  
                                 _mData 0160                         __end_of_measure 01EC  
                                 _frexp 0DC6                                   _errno 00B2  
                                 _rxLen 0077                                   _txCnt 0076  
                         ___ftpack@sign 0024                                   _txLen 00BF  
                                 _round 076C                                   _trunc 0EB8  
                      __end_of_WDT_Init 0C67                                   pclath 000A  
                                 status 0003                                   wtemp0 007E  
                       __initialization 002D                            __end_of_main 03EB  
                                ??_main 00D7                           ___fttol@sign1 0028  
          __end_of_I2C1_SetTransmitData 0DC6                   ??_I2C1_StatusCallback 0070  
                    _I2C1_TxBufferEmpty 0C67                                  _ADACCH 0097  
                                _ADACCL 0096                                  _ADACCU 0098  
                                _ADACQH 010D                                  _ADACQL 010C  
                                _ADCON0 0111                                  _ADCON1 0112  
                                _ADCON2 0113                                  _ADCON3 0114  
                                _ADERRH 0091                                  _ADERRL 0090  
                                ?_frexp 0020                        __end_of___altoft 0EB8  
                                _ADLTHH 008D                                  _ADLTHL 008C  
                                _ADRESH 009E                                  _ADRESL 009D  
                                _ADPREH 0110                                  _ADPREL 010F  
                                _ADSTAT 0115                                  _ADUTHH 008F  
                                _ADUTHL 008E                                  _ANSELA 1F38  
                                _ANSELB 1F43                                  _ANSELC 1F4E  
                      __end_of___ftpack 076C                                  ?_round 00C6  
                                ?_trunc 0036                                  _RB5PPS 1F1D  
            __size_of_Interrupt_Handler 0027                                  _RB7PPS 1F1F  
                                i1l3050 0006                                  i1l3060 0021  
                                i1l3052 000C                                  i1l3062 0025  
                                i1l3054 0010                                  i1l3056 0015  
                                i1l3058 0019                                  i1l2650 0F49  
                                i1l2660 0F5C                                  i1l2652 0F4E  
                                i1l2670 0F75                                  i1l2662 0F65  
                                i1l2654 0F52                                  i1l2830 0E3A  
                                i1l2672 0F7C                                  i1l2656 0F53  
                                i1l2840 0E50                                  i1l2832 0E3F  
                                i1l2824 0E37                                  i1l2674 0F84  
                                i1l2666 0F6A                                  i1l2658 0F56  
                                i1l2850 0E68                                  i1l2842 0E54  
                                i1l2834 0E43                                  i1l2826 0E37  
                                i1l2676 0F89                                  i1l2668 0F73  
                                i1l2844 0E5B                                  i1l2836 0E47  
                                i1l2828 0E39                                  i1l2678 0F8C  
                                i1l2846 0E60                                  i1l2838 0E4B  
                                i1l2848 0E64                                  u220_20 0010  
                                u220_21 000F                                  i1l2882 0C9F  
                                i1l2890 0C3E                                  i1l2884 0CA1  
                                i1l2886 0CA8                                  u205_20 0CA8  
                                u221_20 0015                                  u205_21 0CA7  
                                u221_21 0014                   measure@datasolvoltage 00D0  
                                u222_20 0019                                  u222_21 0018  
                                u223_20 0021                                  u223_21 0020  
                                u224_20 0025                                  u224_21 0024  
                                _FVRCON 090C                                  u191_20 0F5C  
                                u191_21 0F5B                                  u192_20 0F7C  
                                u192_21 0F7B                        __end_of___lwtoft 0CEC  
                                u195_20 0E43                                  u195_21 0E42  
                                u196_20 0E47                                  u196_21 0E46  
                                u197_20 0E4B                                  u197_21 0E4A  
                                u198_20 0E5B                                  u198_21 0E5A  
                                u199_20 0E6F                                  u199_21 0E6E  
                   ?_I2C1_TxBufferEmpty 0070                                  _OSCFRQ 0893  
                      __end_of_ledBlink 05FB                            _AfterMeasure 00AF  
                                ___ftge 0DFE                               ??___ftadd 002E  
                             ??___ftdiv 0031                               ??___ftmul 0041  
                             ??___ftsub 0076                               ??___fttol 0024  
                             ?_I2C1_ISR 0070                    ??_I2C1_TxBufferEmpty 0074  
                             ?_ADCC_ISR 0070                   ___ftmul@f3_as_product 0046  
                            _Power_Init 0D4D                              _Power_Loop 0F9B  
                             ??_measure 00CC                          _PMD_Initialize 0CAE  
                    _MeasurementRunning 00BC                            __pdataCOMMON 0079  
                    _PollingMeasurement 00BD                               ?_ADC_Init 0070  
     __size_of_ADCC_GetSingleConversion 0015                                  round@f 00C9  
                                round@x 00C6               ?_ADCC_GetSingleConversion 0020  
                                trunc@i 003A                                  trunc@x 0036  
                     _SYSTEM_Initialize 0D2C            __end_of_I2C1_CommandReceived 0C43  
                   _I2C1_GetCommandData 0CEC                 __end_of__initialization 0059  
                            ___altoft@c 002E                              ___ftadd@f1 0028  
                            ___ftadd@f2 002B                              ___ftge@ff1 0020  
                            ___ftge@ff2 0023                      ?_SYSTEM_Initialize 0070  
                            ___ftdiv@f1 002E                              ___ftdiv@f2 002B  
                            ___ftdiv@f3 0037                      _Power_SetThreshold 0680  
                            ___ftmul@f1 003B                              ___ftmul@f2 003E  
                       _I2C1_GetCommand 0C79                          _i2c1_rx_buffer 0140  
                            ___ftsub@f1 0042                              ___ftsub@f2 003F  
                            ___fttol@f1 0020                          __pcstackCOMMON 0070  
                   _batThresholdEnabled 00BB                            __pidataBANK1 0002  
                          __pidataBANK2 0C6F                     ??_SYSTEM_Initialize 0075  
                        _i2c1_tx_buffer 0120                           __end_of_frexp 0DFE  
                         __end_of_round 07DE                  _SensorInterruptHandler 00D9  
                            ??_I2C1_ISR 0072                           __end_of_trunc 0EFF  
                   ?_Power_SetThreshold 003B                    ?_I2C1_GetCommandData 0074  
                __end_of_PMD_Initialize 0CC1                  I2C1_GetCommandData@len 0074  
                             ?_WDT_Init 0070                              ___lwtoft@c 0028  
                            ??_ADCC_ISR 0070                              ??_ADC_Init 0074  
                 __end_of_Power_GetData 0F48                                 ??_frexp 0074  
             __end_of_SYSTEM_Initialize 0D4D                                 ??_round 0076  
                               ??_trunc 0039                              __pbssBANK1 00A0  
                            __pbssBANK2 0120                   __end_of_Power_Measure 0C47  
                  ??_Power_SetThreshold 003D                 _floatVoltageBatMeasured 00AC  
                        _alertThreshold 00BA                    _I2C1_SetTransmitData 0D9C  
              __end_of_generateIntPower 0C92                              __pmaintext 030C  
                               ?___ftge 0020                     Power_GetData@length 0075  
                            __pintentry 0004                         _I2C1_Initialize 0D74  
                               _ADFLTRH 0095                                 _ADFLTRL 0094  
                 ??_I2C1_GetCommandData 0075                               ?___altoft 002E  
                               _ADPREVH 009C                                 _ADPREVL 009B  
                             ?___ftpack 0020                                 _ADSTPTH 0093  
                               _ADSTPTL 0092                              ??_WDT_Init 0074  
                       ?_PMD_Initialize 0070                               ?___lwtoft 0028  
                           ?_Power_Init 0070                             ?_Power_Loop 0070  
          I2C1_Initialize@slave_address 0074       I2C1_StatusCallback@slaveWriteType 00BE  
                               _OSCCON1 088D                      __size_of_toggleInt 000D  
                             ?_ledBlink 0070                                 _SSP1ADD 018D  
                               _WDTCON0 080C                                 _SSP1BUF 018C  
                               _WDTCON1 080D                                 _SSP1MSK 018E  
               __end_of_I2C1_GetCommand 0C85                              _enterSleep 0C59  
                 ?_I2C1_SetTransmitData 0020                         __size_of___ftge 0039  
                               ___ftadd 01EC                                 ___ftdiv 04AC  
                               ___ftmul 03EB                                 ___ftsub 0D0B  
                               ___fttol 05FB                              ??___altoft 0032  
                               _cmdByte 0078                              ??___ftpack 0025  
                               __ptext1 0C92                                 __ptext2 0D2C  
                               __ptext3 0CAE                                 __ptext4 0C47  
                               __ptext5 0D74                                 __ptext6 0680  
                               __ptext7 0C60                                 __ptext8 0C43  
                               __ptext9 0F9B                    _I2C1_CommandReceived 0C40  
                            ??___lwtoft 0074                                 _measure 005D  
                 _OSCILLATOR_Initialize 0C47                              ??_ledBlink 0074  
                               main@ack 01B5                                 main@cmd 01B8  
            __size_of_SYSTEM_Initialize 0021                                 main@len 01B9  
                               main@mnr 01B7                                 clrloop0 0C4E  
                  end_of_initialization 0059                                 init_ram 0C53  
                               initloop 0C54                     __size_of_Power_Init 0027  
               __end_of_I2C1_Initialize 0D9C                     __size_of_Power_Loop 0065  
       ??_DefaultSensorInterruptHandler 0070                       __end_of_toggleInt 0C9F  
      __end_of_ADCC_GetSingleConversion 0CD6             __end_of_I2C1_StatusCallback 0F9B  
                 ?_I2C1_CommandReceived 0070                       __size_of_I2C1_ISR 003F  
                           _mDataLength 00C5                       __size_of_ADCC_ISR 000F  
                             _TRISBbits 0013                               _TRISCbits 0014  
       Power_SetThreshold@thresholdData 003C                       __size_of_ADC_Init 0022  
                      ?_I2C1_GetCommand 0070                  ??_I2C1_SetTransmitData 0021  
                           ___ftdiv@exp 0036                             ?_enterSleep 0070  
                           ___ftmul@exp 0045          ??_ADCC_DefaultInterruptHandler 0070  
                        __end_of___ftge 0E37                           __pidataCOMMON 0C3F  
           __size_of_I2C1_TxBufferEmpty 0008                  ?_OSCILLATOR_Initialize 0070  
                     __size_of_WDT_Init 0007                     start_initialization 002D  
               I2C1_GetCommandData@data 0020                              frexp@value 0020  
                          _measure$2342 00D2                        ?_I2C1_Initialize 0070  
                     ?_generateIntPower 0070                        ??_PMD_Initialize 0074  
                              ??___ftge 0074                        I2C1_ISR@i2c_data 0073  
              I2C1_SetTransmitData@data 0023                      ??_generateIntPower 0074  
                           __pdataBANK1 00D9                             __pdataBANK2 0166  
                ??_I2C1_CommandReceived 0074   __end_of_DefaultSensorInterruptHandler 0C3F  
__size_of_DefaultSensorInterruptHandler 0001           _DefaultSensorInterruptHandler 0C3E  
                          ??_Power_Init 0076                            ??_Power_Loop 00D5  
                     __size_of___altoft 0042                _ADCC_GetSingleConversion 0CC1  
                     __size_of___ftpack 0075                             _cmdReceived 00C0  
                   __size_of_enterSleep 0007                             __pbssCOMMON 0076  
                             ___latbits 0003                       __size_of___lwtoft 0016  
                         __pcstackBANK0 0020                           __pcstackBANK1 00C6  
                         __pcstackBANK3 01A0        I2C1_StatusCallback@i2c_bus_state 0071  
                    _voltageLDRMeasured 00C1                       __size_of_ledBlink 009D  
           __size_of_Power_SetThreshold 0077                      __end_of_Power_Init 0D74  
                    __end_of_Power_Loop 1000             __end_of_I2C1_GetCommandData 0D0B  
       ADCC_GetSingleConversion@channel 0074                                ?___ftadd 0028  
                              ?___ftdiv 002B                                ?___ftmul 003B  
                __size_of_Power_GetData 0049                                ?___ftsub 003F  
                              ?___fttol 0020                                _I2C1_ISR 0E37  
                __size_of_Power_Measure 0004                                _ADCC_ISR 0C9F  
                              ?_measure 0070                                _ADC_Init 07DE  
                        __size_of_frexp 0038                             _CPUDOZEbits 088C  
                        __size_of_round 0072                          __size_of_trunc 0047  
                              _LATBbits 0019                                _LATCbits 001A  
                             clear_ram0 0C4D                                _PIE1bits 0717  
                              _PIE3bits 0719                                _PMD0bits 0796  
                              _PMD3bits 0799                                _PMD6bits 079C  
                              _PIR1bits 070D                                _PIR3bits 070F  
                             _tempValue 00B6                               _sensorAPI 0166  
                              _SSP1CON1 0190                                _SSP1CON2 0191  
                              _SSP1CON3 0192                                _SSP1STAT 018F  
                             _toggleInt 0C92                     _I2C1_slaveWriteData 0079  
                              _WDT_Init 0C60                              _ADCON0bits 0111  
                            _ADCON1bits 0112                              _ADCON2bits 0113  
                            _ADCON3bits 0114          ?_DefaultSensorInterruptHandler 0070  
                         _Power_GetData 0EFF                           _Power_Measure 0C43  
                          ??_enterSleep 0074                               frexp@eptr 0023  
                            _ADSTATbits 0115                 I2C1_SetTransmitData@len 0020  
               ??_OSCILLATOR_Initialize 0074                        __size_of___ftadd 0120  
                      __size_of___ftdiv 00B2                                ___altoft 0E76  
                      __size_of___ftmul 00C1                        __size_of___ftsub 0021  
                      __size_of___fttol 0085                              ?_toggleInt 0070  
                              ___ftpack 06F7                       _batThresholdLevel 00B4  
                              ___lwtoft 0CD6                              _ANSELBbits 1F43  
                            _ANSELCbits 1F4E                        __size_of_measure 018F  
                    __end_of_enterSleep 0C60            __size_of_I2C1_StatusCallback 0053  
                              _ledBlink 055E                          ?_Power_GetData 0074  
                              __ptext10 005D                                __ptext11 076C  
                              __ptext20 0DFE                                __ptext12 0EB8  
                              __ptext21 04AC                                __ptext13 0DC6  
                              __ptext30 0C67                                __ptext22 06F7  
                              __ptext14 05FB                                __ptext31 0D9C  
                              __ptext23 0CC1                                __ptext15 0E76  
                              __ptext40 0C3D                                __ptext32 0CEC  
                              __ptext24 0C85                                __ptext16 0D0B  
                              __ptext33 0C79                                __ptext25 0C59  
                              __ptext17 01EC                                __ptext34 0C40  
                              __ptext26 0D4D                                __ptext18 0CD6  
                              __ptext27 055E                                __ptext19 03EB  
                              __ptext36 0E37                                __ptext28 07DE  
                              __ptext37 0F48                                __ptext29 0EFF  
                              __ptext38 0C3E                                __ptext39 0C9F  
                          _SSP1CON1bits 0190                            _SSP1CON2bits 0191  
                          _SSP1CON3bits 0192                          ?_Power_Measure 0070  
                            trunc@expon 003D                           __size_of_main 00DF  
         __size_of_I2C1_SetTransmitData 002A                      _voltageBatMeasured 00C3  
             _ADCC_ADI_InterruptHandler 00B8                __size_of_I2C1_GetCommand 000C  
            ??_ADCC_GetSingleConversion 0074                                int$flags 007E  
            __end_of_I2C1_TxBufferEmpty 0C6F                                main@data 01A0  
                          _SSP1STATbits 018F                                main@type 01B6  
                    I2C1_GetCommand@cmd 0075                              _INTCONbits 000B  
             __size_of_generateIntPower 000D    __end_of_ADCC_DefaultInterruptHandler 0C3E  
 __size_of_ADCC_DefaultInterruptHandler 0001            _ADCC_DefaultInterruptHandler 0C3D  
                              intlevel1 0000                             _WDTCON0bits 080C  
                       _measurementData 00A0                             ??_toggleInt 0074  
              __size_of_I2C1_Initialize 0028           __size_of_I2C1_CommandReceived 0003  
                            _SSP1DATPPS 1EC6                              _SSP1CLKPPS 1EC5  
                       ??_Power_GetData 0020                             _VREGCONbits 0812  
        SYSTEM_Initialize@slave_address 0075                         ??_Power_Measure 0074  
            __end_of_Power_SetThreshold 06F7           ?_ADCC_DefaultInterruptHandler 0070  
                            _STATUSbits 0003                       _Interrupt_Handler 0004  
                 measure@databatvoltage 00CE                      ?_Interrupt_Handler 0070  
